
SPI_Master_spaghiti.elf:     file format elf32-avr

Sections:
Idx Name          Size      VMA       LMA       File off  Algn
  0 .text         00001aae  00000000  00000000  00000074  2**1
                  CONTENTS, ALLOC, LOAD, READONLY, CODE
  1 .data         00000008  00800060  00001aae  00001b22  2**0
                  CONTENTS, ALLOC, LOAD, DATA
  2 .stab         00000fd8  00000000  00000000  00001b2c  2**2
                  CONTENTS, READONLY, DEBUGGING
  3 .stabstr      00000922  00000000  00000000  00002b04  2**0
                  CONTENTS, READONLY, DEBUGGING
  4 .debug_aranges 00000140  00000000  00000000  00003426  2**0
                  CONTENTS, READONLY, DEBUGGING
  5 .debug_pubnames 00000170  00000000  00000000  00003566  2**0
                  CONTENTS, READONLY, DEBUGGING
  6 .debug_info   00001c49  00000000  00000000  000036d6  2**0
                  CONTENTS, READONLY, DEBUGGING
  7 .debug_abbrev 00000eeb  00000000  00000000  0000531f  2**0
                  CONTENTS, READONLY, DEBUGGING
  8 .debug_line   00000dad  00000000  00000000  0000620a  2**0
                  CONTENTS, READONLY, DEBUGGING
  9 .debug_frame  00000160  00000000  00000000  00006fb8  2**2
                  CONTENTS, READONLY, DEBUGGING
 10 .debug_str    0000028d  00000000  00000000  00007118  2**0
                  CONTENTS, READONLY, DEBUGGING
 11 .debug_loc    000007ce  00000000  00000000  000073a5  2**0
                  CONTENTS, READONLY, DEBUGGING
 12 .debug_ranges 00000050  00000000  00000000  00007b73  2**0
                  CONTENTS, READONLY, DEBUGGING

Disassembly of section .text:

00000000 <__vectors>:
       0:	0c 94 2a 00 	jmp	0x54	; 0x54 <__ctors_end>
       4:	0c 94 3f 00 	jmp	0x7e	; 0x7e <__bad_interrupt>
       8:	0c 94 3f 00 	jmp	0x7e	; 0x7e <__bad_interrupt>
       c:	0c 94 3f 00 	jmp	0x7e	; 0x7e <__bad_interrupt>
      10:	0c 94 3f 00 	jmp	0x7e	; 0x7e <__bad_interrupt>
      14:	0c 94 3f 00 	jmp	0x7e	; 0x7e <__bad_interrupt>
      18:	0c 94 3f 00 	jmp	0x7e	; 0x7e <__bad_interrupt>
      1c:	0c 94 3f 00 	jmp	0x7e	; 0x7e <__bad_interrupt>
      20:	0c 94 3f 00 	jmp	0x7e	; 0x7e <__bad_interrupt>
      24:	0c 94 3f 00 	jmp	0x7e	; 0x7e <__bad_interrupt>
      28:	0c 94 3f 00 	jmp	0x7e	; 0x7e <__bad_interrupt>
      2c:	0c 94 3f 00 	jmp	0x7e	; 0x7e <__bad_interrupt>
      30:	0c 94 3f 00 	jmp	0x7e	; 0x7e <__bad_interrupt>
      34:	0c 94 3f 00 	jmp	0x7e	; 0x7e <__bad_interrupt>
      38:	0c 94 3f 00 	jmp	0x7e	; 0x7e <__bad_interrupt>
      3c:	0c 94 3f 00 	jmp	0x7e	; 0x7e <__bad_interrupt>
      40:	0c 94 3f 00 	jmp	0x7e	; 0x7e <__bad_interrupt>
      44:	0c 94 3f 00 	jmp	0x7e	; 0x7e <__bad_interrupt>
      48:	0c 94 3f 00 	jmp	0x7e	; 0x7e <__bad_interrupt>
      4c:	0c 94 3f 00 	jmp	0x7e	; 0x7e <__bad_interrupt>
      50:	0c 94 3f 00 	jmp	0x7e	; 0x7e <__bad_interrupt>

00000054 <__ctors_end>:
      54:	11 24       	eor	r1, r1
      56:	1f be       	out	0x3f, r1	; 63
      58:	cf e5       	ldi	r28, 0x5F	; 95
      5a:	d8 e0       	ldi	r29, 0x08	; 8
      5c:	de bf       	out	0x3e, r29	; 62
      5e:	cd bf       	out	0x3d, r28	; 61

00000060 <__do_copy_data>:
      60:	10 e0       	ldi	r17, 0x00	; 0
      62:	a0 e6       	ldi	r26, 0x60	; 96
      64:	b0 e0       	ldi	r27, 0x00	; 0
      66:	ee ea       	ldi	r30, 0xAE	; 174
      68:	fa e1       	ldi	r31, 0x1A	; 26
      6a:	02 c0       	rjmp	.+4      	; 0x70 <.do_copy_data_start>

0000006c <.do_copy_data_loop>:
      6c:	05 90       	lpm	r0, Z+
      6e:	0d 92       	st	X+, r0

00000070 <.do_copy_data_start>:
      70:	a8 36       	cpi	r26, 0x68	; 104
      72:	b1 07       	cpc	r27, r17
      74:	d9 f7       	brne	.-10     	; 0x6c <.do_copy_data_loop>
      76:	0e 94 cb 0a 	call	0x1596	; 0x1596 <main>
      7a:	0c 94 55 0d 	jmp	0x1aaa	; 0x1aaa <_exit>

0000007e <__bad_interrupt>:
      7e:	0c 94 00 00 	jmp	0	; 0x0 <__vectors>

00000082 <__fixunssfsi>:
      82:	ef 92       	push	r14
      84:	ff 92       	push	r15
      86:	0f 93       	push	r16
      88:	1f 93       	push	r17
      8a:	7b 01       	movw	r14, r22
      8c:	8c 01       	movw	r16, r24
      8e:	20 e0       	ldi	r18, 0x00	; 0
      90:	30 e0       	ldi	r19, 0x00	; 0
      92:	40 e0       	ldi	r20, 0x00	; 0
      94:	5f e4       	ldi	r21, 0x4F	; 79
      96:	0e 94 41 03 	call	0x682	; 0x682 <__gesf2>
      9a:	88 23       	and	r24, r24
      9c:	8c f0       	brlt	.+34     	; 0xc0 <__fixunssfsi+0x3e>
      9e:	c8 01       	movw	r24, r16
      a0:	b7 01       	movw	r22, r14
      a2:	20 e0       	ldi	r18, 0x00	; 0
      a4:	30 e0       	ldi	r19, 0x00	; 0
      a6:	40 e0       	ldi	r20, 0x00	; 0
      a8:	5f e4       	ldi	r21, 0x4F	; 79
      aa:	0e 94 b9 01 	call	0x372	; 0x372 <__subsf3>
      ae:	0e 94 a1 03 	call	0x742	; 0x742 <__fixsfsi>
      b2:	9b 01       	movw	r18, r22
      b4:	ac 01       	movw	r20, r24
      b6:	20 50       	subi	r18, 0x00	; 0
      b8:	30 40       	sbci	r19, 0x00	; 0
      ba:	40 40       	sbci	r20, 0x00	; 0
      bc:	50 48       	sbci	r21, 0x80	; 128
      be:	06 c0       	rjmp	.+12     	; 0xcc <__fixunssfsi+0x4a>
      c0:	c8 01       	movw	r24, r16
      c2:	b7 01       	movw	r22, r14
      c4:	0e 94 a1 03 	call	0x742	; 0x742 <__fixsfsi>
      c8:	9b 01       	movw	r18, r22
      ca:	ac 01       	movw	r20, r24
      cc:	b9 01       	movw	r22, r18
      ce:	ca 01       	movw	r24, r20
      d0:	1f 91       	pop	r17
      d2:	0f 91       	pop	r16
      d4:	ff 90       	pop	r15
      d6:	ef 90       	pop	r14
      d8:	08 95       	ret

000000da <_fpadd_parts>:
      da:	a0 e0       	ldi	r26, 0x00	; 0
      dc:	b0 e0       	ldi	r27, 0x00	; 0
      de:	e3 e7       	ldi	r30, 0x73	; 115
      e0:	f0 e0       	ldi	r31, 0x00	; 0
      e2:	0c 94 1e 0d 	jmp	0x1a3c	; 0x1a3c <__prologue_saves__>
      e6:	dc 01       	movw	r26, r24
      e8:	2b 01       	movw	r4, r22
      ea:	fa 01       	movw	r30, r20
      ec:	9c 91       	ld	r25, X
      ee:	92 30       	cpi	r25, 0x02	; 2
      f0:	08 f4       	brcc	.+2      	; 0xf4 <_fpadd_parts+0x1a>
      f2:	39 c1       	rjmp	.+626    	; 0x366 <_fpadd_parts+0x28c>
      f4:	eb 01       	movw	r28, r22
      f6:	88 81       	ld	r24, Y
      f8:	82 30       	cpi	r24, 0x02	; 2
      fa:	08 f4       	brcc	.+2      	; 0xfe <_fpadd_parts+0x24>
      fc:	33 c1       	rjmp	.+614    	; 0x364 <_fpadd_parts+0x28a>
      fe:	94 30       	cpi	r25, 0x04	; 4
     100:	69 f4       	brne	.+26     	; 0x11c <_fpadd_parts+0x42>
     102:	84 30       	cpi	r24, 0x04	; 4
     104:	09 f0       	breq	.+2      	; 0x108 <_fpadd_parts+0x2e>
     106:	2f c1       	rjmp	.+606    	; 0x366 <_fpadd_parts+0x28c>
     108:	11 96       	adiw	r26, 0x01	; 1
     10a:	9c 91       	ld	r25, X
     10c:	11 97       	sbiw	r26, 0x01	; 1
     10e:	89 81       	ldd	r24, Y+1	; 0x01
     110:	98 17       	cp	r25, r24
     112:	09 f4       	brne	.+2      	; 0x116 <_fpadd_parts+0x3c>
     114:	28 c1       	rjmp	.+592    	; 0x366 <_fpadd_parts+0x28c>
     116:	a0 e6       	ldi	r26, 0x60	; 96
     118:	b0 e0       	ldi	r27, 0x00	; 0
     11a:	25 c1       	rjmp	.+586    	; 0x366 <_fpadd_parts+0x28c>
     11c:	84 30       	cpi	r24, 0x04	; 4
     11e:	09 f4       	brne	.+2      	; 0x122 <_fpadd_parts+0x48>
     120:	21 c1       	rjmp	.+578    	; 0x364 <_fpadd_parts+0x28a>
     122:	82 30       	cpi	r24, 0x02	; 2
     124:	a9 f4       	brne	.+42     	; 0x150 <_fpadd_parts+0x76>
     126:	92 30       	cpi	r25, 0x02	; 2
     128:	09 f0       	breq	.+2      	; 0x12c <_fpadd_parts+0x52>
     12a:	1d c1       	rjmp	.+570    	; 0x366 <_fpadd_parts+0x28c>
     12c:	9a 01       	movw	r18, r20
     12e:	ad 01       	movw	r20, r26
     130:	88 e0       	ldi	r24, 0x08	; 8
     132:	ea 01       	movw	r28, r20
     134:	09 90       	ld	r0, Y+
     136:	ae 01       	movw	r20, r28
     138:	e9 01       	movw	r28, r18
     13a:	09 92       	st	Y+, r0
     13c:	9e 01       	movw	r18, r28
     13e:	81 50       	subi	r24, 0x01	; 1
     140:	c1 f7       	brne	.-16     	; 0x132 <_fpadd_parts+0x58>
     142:	e2 01       	movw	r28, r4
     144:	89 81       	ldd	r24, Y+1	; 0x01
     146:	11 96       	adiw	r26, 0x01	; 1
     148:	9c 91       	ld	r25, X
     14a:	89 23       	and	r24, r25
     14c:	81 83       	std	Z+1, r24	; 0x01
     14e:	08 c1       	rjmp	.+528    	; 0x360 <_fpadd_parts+0x286>
     150:	92 30       	cpi	r25, 0x02	; 2
     152:	09 f4       	brne	.+2      	; 0x156 <_fpadd_parts+0x7c>
     154:	07 c1       	rjmp	.+526    	; 0x364 <_fpadd_parts+0x28a>
     156:	12 96       	adiw	r26, 0x02	; 2
     158:	2d 90       	ld	r2, X+
     15a:	3c 90       	ld	r3, X
     15c:	13 97       	sbiw	r26, 0x03	; 3
     15e:	eb 01       	movw	r28, r22
     160:	8a 81       	ldd	r24, Y+2	; 0x02
     162:	9b 81       	ldd	r25, Y+3	; 0x03
     164:	14 96       	adiw	r26, 0x04	; 4
     166:	ad 90       	ld	r10, X+
     168:	bd 90       	ld	r11, X+
     16a:	cd 90       	ld	r12, X+
     16c:	dc 90       	ld	r13, X
     16e:	17 97       	sbiw	r26, 0x07	; 7
     170:	ec 80       	ldd	r14, Y+4	; 0x04
     172:	fd 80       	ldd	r15, Y+5	; 0x05
     174:	0e 81       	ldd	r16, Y+6	; 0x06
     176:	1f 81       	ldd	r17, Y+7	; 0x07
     178:	91 01       	movw	r18, r2
     17a:	28 1b       	sub	r18, r24
     17c:	39 0b       	sbc	r19, r25
     17e:	b9 01       	movw	r22, r18
     180:	37 ff       	sbrs	r19, 7
     182:	04 c0       	rjmp	.+8      	; 0x18c <_fpadd_parts+0xb2>
     184:	66 27       	eor	r22, r22
     186:	77 27       	eor	r23, r23
     188:	62 1b       	sub	r22, r18
     18a:	73 0b       	sbc	r23, r19
     18c:	60 32       	cpi	r22, 0x20	; 32
     18e:	71 05       	cpc	r23, r1
     190:	0c f0       	brlt	.+2      	; 0x194 <_fpadd_parts+0xba>
     192:	61 c0       	rjmp	.+194    	; 0x256 <_fpadd_parts+0x17c>
     194:	12 16       	cp	r1, r18
     196:	13 06       	cpc	r1, r19
     198:	6c f5       	brge	.+90     	; 0x1f4 <_fpadd_parts+0x11a>
     19a:	37 01       	movw	r6, r14
     19c:	48 01       	movw	r8, r16
     19e:	06 2e       	mov	r0, r22
     1a0:	04 c0       	rjmp	.+8      	; 0x1aa <_fpadd_parts+0xd0>
     1a2:	96 94       	lsr	r9
     1a4:	87 94       	ror	r8
     1a6:	77 94       	ror	r7
     1a8:	67 94       	ror	r6
     1aa:	0a 94       	dec	r0
     1ac:	d2 f7       	brpl	.-12     	; 0x1a2 <_fpadd_parts+0xc8>
     1ae:	21 e0       	ldi	r18, 0x01	; 1
     1b0:	30 e0       	ldi	r19, 0x00	; 0
     1b2:	40 e0       	ldi	r20, 0x00	; 0
     1b4:	50 e0       	ldi	r21, 0x00	; 0
     1b6:	04 c0       	rjmp	.+8      	; 0x1c0 <_fpadd_parts+0xe6>
     1b8:	22 0f       	add	r18, r18
     1ba:	33 1f       	adc	r19, r19
     1bc:	44 1f       	adc	r20, r20
     1be:	55 1f       	adc	r21, r21
     1c0:	6a 95       	dec	r22
     1c2:	d2 f7       	brpl	.-12     	; 0x1b8 <_fpadd_parts+0xde>
     1c4:	21 50       	subi	r18, 0x01	; 1
     1c6:	30 40       	sbci	r19, 0x00	; 0
     1c8:	40 40       	sbci	r20, 0x00	; 0
     1ca:	50 40       	sbci	r21, 0x00	; 0
     1cc:	2e 21       	and	r18, r14
     1ce:	3f 21       	and	r19, r15
     1d0:	40 23       	and	r20, r16
     1d2:	51 23       	and	r21, r17
     1d4:	21 15       	cp	r18, r1
     1d6:	31 05       	cpc	r19, r1
     1d8:	41 05       	cpc	r20, r1
     1da:	51 05       	cpc	r21, r1
     1dc:	21 f0       	breq	.+8      	; 0x1e6 <_fpadd_parts+0x10c>
     1de:	21 e0       	ldi	r18, 0x01	; 1
     1e0:	30 e0       	ldi	r19, 0x00	; 0
     1e2:	40 e0       	ldi	r20, 0x00	; 0
     1e4:	50 e0       	ldi	r21, 0x00	; 0
     1e6:	79 01       	movw	r14, r18
     1e8:	8a 01       	movw	r16, r20
     1ea:	e6 28       	or	r14, r6
     1ec:	f7 28       	or	r15, r7
     1ee:	08 29       	or	r16, r8
     1f0:	19 29       	or	r17, r9
     1f2:	3c c0       	rjmp	.+120    	; 0x26c <_fpadd_parts+0x192>
     1f4:	23 2b       	or	r18, r19
     1f6:	d1 f1       	breq	.+116    	; 0x26c <_fpadd_parts+0x192>
     1f8:	26 0e       	add	r2, r22
     1fa:	37 1e       	adc	r3, r23
     1fc:	35 01       	movw	r6, r10
     1fe:	46 01       	movw	r8, r12
     200:	06 2e       	mov	r0, r22
     202:	04 c0       	rjmp	.+8      	; 0x20c <_fpadd_parts+0x132>
     204:	96 94       	lsr	r9
     206:	87 94       	ror	r8
     208:	77 94       	ror	r7
     20a:	67 94       	ror	r6
     20c:	0a 94       	dec	r0
     20e:	d2 f7       	brpl	.-12     	; 0x204 <_fpadd_parts+0x12a>
     210:	21 e0       	ldi	r18, 0x01	; 1
     212:	30 e0       	ldi	r19, 0x00	; 0
     214:	40 e0       	ldi	r20, 0x00	; 0
     216:	50 e0       	ldi	r21, 0x00	; 0
     218:	04 c0       	rjmp	.+8      	; 0x222 <_fpadd_parts+0x148>
     21a:	22 0f       	add	r18, r18
     21c:	33 1f       	adc	r19, r19
     21e:	44 1f       	adc	r20, r20
     220:	55 1f       	adc	r21, r21
     222:	6a 95       	dec	r22
     224:	d2 f7       	brpl	.-12     	; 0x21a <_fpadd_parts+0x140>
     226:	21 50       	subi	r18, 0x01	; 1
     228:	30 40       	sbci	r19, 0x00	; 0
     22a:	40 40       	sbci	r20, 0x00	; 0
     22c:	50 40       	sbci	r21, 0x00	; 0
     22e:	2a 21       	and	r18, r10
     230:	3b 21       	and	r19, r11
     232:	4c 21       	and	r20, r12
     234:	5d 21       	and	r21, r13
     236:	21 15       	cp	r18, r1
     238:	31 05       	cpc	r19, r1
     23a:	41 05       	cpc	r20, r1
     23c:	51 05       	cpc	r21, r1
     23e:	21 f0       	breq	.+8      	; 0x248 <_fpadd_parts+0x16e>
     240:	21 e0       	ldi	r18, 0x01	; 1
     242:	30 e0       	ldi	r19, 0x00	; 0
     244:	40 e0       	ldi	r20, 0x00	; 0
     246:	50 e0       	ldi	r21, 0x00	; 0
     248:	59 01       	movw	r10, r18
     24a:	6a 01       	movw	r12, r20
     24c:	a6 28       	or	r10, r6
     24e:	b7 28       	or	r11, r7
     250:	c8 28       	or	r12, r8
     252:	d9 28       	or	r13, r9
     254:	0b c0       	rjmp	.+22     	; 0x26c <_fpadd_parts+0x192>
     256:	82 15       	cp	r24, r2
     258:	93 05       	cpc	r25, r3
     25a:	2c f0       	brlt	.+10     	; 0x266 <_fpadd_parts+0x18c>
     25c:	1c 01       	movw	r2, r24
     25e:	aa 24       	eor	r10, r10
     260:	bb 24       	eor	r11, r11
     262:	65 01       	movw	r12, r10
     264:	03 c0       	rjmp	.+6      	; 0x26c <_fpadd_parts+0x192>
     266:	ee 24       	eor	r14, r14
     268:	ff 24       	eor	r15, r15
     26a:	87 01       	movw	r16, r14
     26c:	11 96       	adiw	r26, 0x01	; 1
     26e:	9c 91       	ld	r25, X
     270:	d2 01       	movw	r26, r4
     272:	11 96       	adiw	r26, 0x01	; 1
     274:	8c 91       	ld	r24, X
     276:	98 17       	cp	r25, r24
     278:	09 f4       	brne	.+2      	; 0x27c <_fpadd_parts+0x1a2>
     27a:	45 c0       	rjmp	.+138    	; 0x306 <_fpadd_parts+0x22c>
     27c:	99 23       	and	r25, r25
     27e:	39 f0       	breq	.+14     	; 0x28e <_fpadd_parts+0x1b4>
     280:	a8 01       	movw	r20, r16
     282:	97 01       	movw	r18, r14
     284:	2a 19       	sub	r18, r10
     286:	3b 09       	sbc	r19, r11
     288:	4c 09       	sbc	r20, r12
     28a:	5d 09       	sbc	r21, r13
     28c:	06 c0       	rjmp	.+12     	; 0x29a <_fpadd_parts+0x1c0>
     28e:	a6 01       	movw	r20, r12
     290:	95 01       	movw	r18, r10
     292:	2e 19       	sub	r18, r14
     294:	3f 09       	sbc	r19, r15
     296:	40 0b       	sbc	r20, r16
     298:	51 0b       	sbc	r21, r17
     29a:	57 fd       	sbrc	r21, 7
     29c:	08 c0       	rjmp	.+16     	; 0x2ae <_fpadd_parts+0x1d4>
     29e:	11 82       	std	Z+1, r1	; 0x01
     2a0:	33 82       	std	Z+3, r3	; 0x03
     2a2:	22 82       	std	Z+2, r2	; 0x02
     2a4:	24 83       	std	Z+4, r18	; 0x04
     2a6:	35 83       	std	Z+5, r19	; 0x05
     2a8:	46 83       	std	Z+6, r20	; 0x06
     2aa:	57 83       	std	Z+7, r21	; 0x07
     2ac:	1d c0       	rjmp	.+58     	; 0x2e8 <_fpadd_parts+0x20e>
     2ae:	81 e0       	ldi	r24, 0x01	; 1
     2b0:	81 83       	std	Z+1, r24	; 0x01
     2b2:	33 82       	std	Z+3, r3	; 0x03
     2b4:	22 82       	std	Z+2, r2	; 0x02
     2b6:	88 27       	eor	r24, r24
     2b8:	99 27       	eor	r25, r25
     2ba:	dc 01       	movw	r26, r24
     2bc:	82 1b       	sub	r24, r18
     2be:	93 0b       	sbc	r25, r19
     2c0:	a4 0b       	sbc	r26, r20
     2c2:	b5 0b       	sbc	r27, r21
     2c4:	84 83       	std	Z+4, r24	; 0x04
     2c6:	95 83       	std	Z+5, r25	; 0x05
     2c8:	a6 83       	std	Z+6, r26	; 0x06
     2ca:	b7 83       	std	Z+7, r27	; 0x07
     2cc:	0d c0       	rjmp	.+26     	; 0x2e8 <_fpadd_parts+0x20e>
     2ce:	22 0f       	add	r18, r18
     2d0:	33 1f       	adc	r19, r19
     2d2:	44 1f       	adc	r20, r20
     2d4:	55 1f       	adc	r21, r21
     2d6:	24 83       	std	Z+4, r18	; 0x04
     2d8:	35 83       	std	Z+5, r19	; 0x05
     2da:	46 83       	std	Z+6, r20	; 0x06
     2dc:	57 83       	std	Z+7, r21	; 0x07
     2de:	82 81       	ldd	r24, Z+2	; 0x02
     2e0:	93 81       	ldd	r25, Z+3	; 0x03
     2e2:	01 97       	sbiw	r24, 0x01	; 1
     2e4:	93 83       	std	Z+3, r25	; 0x03
     2e6:	82 83       	std	Z+2, r24	; 0x02
     2e8:	24 81       	ldd	r18, Z+4	; 0x04
     2ea:	35 81       	ldd	r19, Z+5	; 0x05
     2ec:	46 81       	ldd	r20, Z+6	; 0x06
     2ee:	57 81       	ldd	r21, Z+7	; 0x07
     2f0:	da 01       	movw	r26, r20
     2f2:	c9 01       	movw	r24, r18
     2f4:	01 97       	sbiw	r24, 0x01	; 1
     2f6:	a1 09       	sbc	r26, r1
     2f8:	b1 09       	sbc	r27, r1
     2fa:	8f 5f       	subi	r24, 0xFF	; 255
     2fc:	9f 4f       	sbci	r25, 0xFF	; 255
     2fe:	af 4f       	sbci	r26, 0xFF	; 255
     300:	bf 43       	sbci	r27, 0x3F	; 63
     302:	28 f3       	brcs	.-54     	; 0x2ce <_fpadd_parts+0x1f4>
     304:	0b c0       	rjmp	.+22     	; 0x31c <_fpadd_parts+0x242>
     306:	91 83       	std	Z+1, r25	; 0x01
     308:	33 82       	std	Z+3, r3	; 0x03
     30a:	22 82       	std	Z+2, r2	; 0x02
     30c:	ea 0c       	add	r14, r10
     30e:	fb 1c       	adc	r15, r11
     310:	0c 1d       	adc	r16, r12
     312:	1d 1d       	adc	r17, r13
     314:	e4 82       	std	Z+4, r14	; 0x04
     316:	f5 82       	std	Z+5, r15	; 0x05
     318:	06 83       	std	Z+6, r16	; 0x06
     31a:	17 83       	std	Z+7, r17	; 0x07
     31c:	83 e0       	ldi	r24, 0x03	; 3
     31e:	80 83       	st	Z, r24
     320:	24 81       	ldd	r18, Z+4	; 0x04
     322:	35 81       	ldd	r19, Z+5	; 0x05
     324:	46 81       	ldd	r20, Z+6	; 0x06
     326:	57 81       	ldd	r21, Z+7	; 0x07
     328:	57 ff       	sbrs	r21, 7
     32a:	1a c0       	rjmp	.+52     	; 0x360 <_fpadd_parts+0x286>
     32c:	c9 01       	movw	r24, r18
     32e:	aa 27       	eor	r26, r26
     330:	97 fd       	sbrc	r25, 7
     332:	a0 95       	com	r26
     334:	ba 2f       	mov	r27, r26
     336:	81 70       	andi	r24, 0x01	; 1
     338:	90 70       	andi	r25, 0x00	; 0
     33a:	a0 70       	andi	r26, 0x00	; 0
     33c:	b0 70       	andi	r27, 0x00	; 0
     33e:	56 95       	lsr	r21
     340:	47 95       	ror	r20
     342:	37 95       	ror	r19
     344:	27 95       	ror	r18
     346:	82 2b       	or	r24, r18
     348:	93 2b       	or	r25, r19
     34a:	a4 2b       	or	r26, r20
     34c:	b5 2b       	or	r27, r21
     34e:	84 83       	std	Z+4, r24	; 0x04
     350:	95 83       	std	Z+5, r25	; 0x05
     352:	a6 83       	std	Z+6, r26	; 0x06
     354:	b7 83       	std	Z+7, r27	; 0x07
     356:	82 81       	ldd	r24, Z+2	; 0x02
     358:	93 81       	ldd	r25, Z+3	; 0x03
     35a:	01 96       	adiw	r24, 0x01	; 1
     35c:	93 83       	std	Z+3, r25	; 0x03
     35e:	82 83       	std	Z+2, r24	; 0x02
     360:	df 01       	movw	r26, r30
     362:	01 c0       	rjmp	.+2      	; 0x366 <_fpadd_parts+0x28c>
     364:	d2 01       	movw	r26, r4
     366:	cd 01       	movw	r24, r26
     368:	cd b7       	in	r28, 0x3d	; 61
     36a:	de b7       	in	r29, 0x3e	; 62
     36c:	e2 e1       	ldi	r30, 0x12	; 18
     36e:	0c 94 3a 0d 	jmp	0x1a74	; 0x1a74 <__epilogue_restores__>

00000372 <__subsf3>:
     372:	a0 e2       	ldi	r26, 0x20	; 32
     374:	b0 e0       	ldi	r27, 0x00	; 0
     376:	ef eb       	ldi	r30, 0xBF	; 191
     378:	f1 e0       	ldi	r31, 0x01	; 1
     37a:	0c 94 2a 0d 	jmp	0x1a54	; 0x1a54 <__prologue_saves__+0x18>
     37e:	69 83       	std	Y+1, r22	; 0x01
     380:	7a 83       	std	Y+2, r23	; 0x02
     382:	8b 83       	std	Y+3, r24	; 0x03
     384:	9c 83       	std	Y+4, r25	; 0x04
     386:	2d 83       	std	Y+5, r18	; 0x05
     388:	3e 83       	std	Y+6, r19	; 0x06
     38a:	4f 83       	std	Y+7, r20	; 0x07
     38c:	58 87       	std	Y+8, r21	; 0x08
     38e:	e9 e0       	ldi	r30, 0x09	; 9
     390:	ee 2e       	mov	r14, r30
     392:	f1 2c       	mov	r15, r1
     394:	ec 0e       	add	r14, r28
     396:	fd 1e       	adc	r15, r29
     398:	ce 01       	movw	r24, r28
     39a:	01 96       	adiw	r24, 0x01	; 1
     39c:	b7 01       	movw	r22, r14
     39e:	0e 94 ca 04 	call	0x994	; 0x994 <__unpack_f>
     3a2:	8e 01       	movw	r16, r28
     3a4:	0f 5e       	subi	r16, 0xEF	; 239
     3a6:	1f 4f       	sbci	r17, 0xFF	; 255
     3a8:	ce 01       	movw	r24, r28
     3aa:	05 96       	adiw	r24, 0x05	; 5
     3ac:	b8 01       	movw	r22, r16
     3ae:	0e 94 ca 04 	call	0x994	; 0x994 <__unpack_f>
     3b2:	8a 89       	ldd	r24, Y+18	; 0x12
     3b4:	91 e0       	ldi	r25, 0x01	; 1
     3b6:	89 27       	eor	r24, r25
     3b8:	8a 8b       	std	Y+18, r24	; 0x12
     3ba:	c7 01       	movw	r24, r14
     3bc:	b8 01       	movw	r22, r16
     3be:	ae 01       	movw	r20, r28
     3c0:	47 5e       	subi	r20, 0xE7	; 231
     3c2:	5f 4f       	sbci	r21, 0xFF	; 255
     3c4:	0e 94 6d 00 	call	0xda	; 0xda <_fpadd_parts>
     3c8:	0e 94 f5 03 	call	0x7ea	; 0x7ea <__pack_f>
     3cc:	a0 96       	adiw	r28, 0x20	; 32
     3ce:	e6 e0       	ldi	r30, 0x06	; 6
     3d0:	0c 94 46 0d 	jmp	0x1a8c	; 0x1a8c <__epilogue_restores__+0x18>

000003d4 <__addsf3>:
     3d4:	a0 e2       	ldi	r26, 0x20	; 32
     3d6:	b0 e0       	ldi	r27, 0x00	; 0
     3d8:	e0 ef       	ldi	r30, 0xF0	; 240
     3da:	f1 e0       	ldi	r31, 0x01	; 1
     3dc:	0c 94 2a 0d 	jmp	0x1a54	; 0x1a54 <__prologue_saves__+0x18>
     3e0:	69 83       	std	Y+1, r22	; 0x01
     3e2:	7a 83       	std	Y+2, r23	; 0x02
     3e4:	8b 83       	std	Y+3, r24	; 0x03
     3e6:	9c 83       	std	Y+4, r25	; 0x04
     3e8:	2d 83       	std	Y+5, r18	; 0x05
     3ea:	3e 83       	std	Y+6, r19	; 0x06
     3ec:	4f 83       	std	Y+7, r20	; 0x07
     3ee:	58 87       	std	Y+8, r21	; 0x08
     3f0:	f9 e0       	ldi	r31, 0x09	; 9
     3f2:	ef 2e       	mov	r14, r31
     3f4:	f1 2c       	mov	r15, r1
     3f6:	ec 0e       	add	r14, r28
     3f8:	fd 1e       	adc	r15, r29
     3fa:	ce 01       	movw	r24, r28
     3fc:	01 96       	adiw	r24, 0x01	; 1
     3fe:	b7 01       	movw	r22, r14
     400:	0e 94 ca 04 	call	0x994	; 0x994 <__unpack_f>
     404:	8e 01       	movw	r16, r28
     406:	0f 5e       	subi	r16, 0xEF	; 239
     408:	1f 4f       	sbci	r17, 0xFF	; 255
     40a:	ce 01       	movw	r24, r28
     40c:	05 96       	adiw	r24, 0x05	; 5
     40e:	b8 01       	movw	r22, r16
     410:	0e 94 ca 04 	call	0x994	; 0x994 <__unpack_f>
     414:	c7 01       	movw	r24, r14
     416:	b8 01       	movw	r22, r16
     418:	ae 01       	movw	r20, r28
     41a:	47 5e       	subi	r20, 0xE7	; 231
     41c:	5f 4f       	sbci	r21, 0xFF	; 255
     41e:	0e 94 6d 00 	call	0xda	; 0xda <_fpadd_parts>
     422:	0e 94 f5 03 	call	0x7ea	; 0x7ea <__pack_f>
     426:	a0 96       	adiw	r28, 0x20	; 32
     428:	e6 e0       	ldi	r30, 0x06	; 6
     42a:	0c 94 46 0d 	jmp	0x1a8c	; 0x1a8c <__epilogue_restores__+0x18>

0000042e <__mulsf3>:
     42e:	a0 e2       	ldi	r26, 0x20	; 32
     430:	b0 e0       	ldi	r27, 0x00	; 0
     432:	ed e1       	ldi	r30, 0x1D	; 29
     434:	f2 e0       	ldi	r31, 0x02	; 2
     436:	0c 94 1e 0d 	jmp	0x1a3c	; 0x1a3c <__prologue_saves__>
     43a:	69 83       	std	Y+1, r22	; 0x01
     43c:	7a 83       	std	Y+2, r23	; 0x02
     43e:	8b 83       	std	Y+3, r24	; 0x03
     440:	9c 83       	std	Y+4, r25	; 0x04
     442:	2d 83       	std	Y+5, r18	; 0x05
     444:	3e 83       	std	Y+6, r19	; 0x06
     446:	4f 83       	std	Y+7, r20	; 0x07
     448:	58 87       	std	Y+8, r21	; 0x08
     44a:	ce 01       	movw	r24, r28
     44c:	01 96       	adiw	r24, 0x01	; 1
     44e:	be 01       	movw	r22, r28
     450:	67 5f       	subi	r22, 0xF7	; 247
     452:	7f 4f       	sbci	r23, 0xFF	; 255
     454:	0e 94 ca 04 	call	0x994	; 0x994 <__unpack_f>
     458:	ce 01       	movw	r24, r28
     45a:	05 96       	adiw	r24, 0x05	; 5
     45c:	be 01       	movw	r22, r28
     45e:	6f 5e       	subi	r22, 0xEF	; 239
     460:	7f 4f       	sbci	r23, 0xFF	; 255
     462:	0e 94 ca 04 	call	0x994	; 0x994 <__unpack_f>
     466:	99 85       	ldd	r25, Y+9	; 0x09
     468:	92 30       	cpi	r25, 0x02	; 2
     46a:	88 f0       	brcs	.+34     	; 0x48e <__mulsf3+0x60>
     46c:	89 89       	ldd	r24, Y+17	; 0x11
     46e:	82 30       	cpi	r24, 0x02	; 2
     470:	c8 f0       	brcs	.+50     	; 0x4a4 <__mulsf3+0x76>
     472:	94 30       	cpi	r25, 0x04	; 4
     474:	19 f4       	brne	.+6      	; 0x47c <__mulsf3+0x4e>
     476:	82 30       	cpi	r24, 0x02	; 2
     478:	51 f4       	brne	.+20     	; 0x48e <__mulsf3+0x60>
     47a:	04 c0       	rjmp	.+8      	; 0x484 <__mulsf3+0x56>
     47c:	84 30       	cpi	r24, 0x04	; 4
     47e:	29 f4       	brne	.+10     	; 0x48a <__mulsf3+0x5c>
     480:	92 30       	cpi	r25, 0x02	; 2
     482:	81 f4       	brne	.+32     	; 0x4a4 <__mulsf3+0x76>
     484:	80 e6       	ldi	r24, 0x60	; 96
     486:	90 e0       	ldi	r25, 0x00	; 0
     488:	c6 c0       	rjmp	.+396    	; 0x616 <__mulsf3+0x1e8>
     48a:	92 30       	cpi	r25, 0x02	; 2
     48c:	49 f4       	brne	.+18     	; 0x4a0 <__mulsf3+0x72>
     48e:	20 e0       	ldi	r18, 0x00	; 0
     490:	9a 85       	ldd	r25, Y+10	; 0x0a
     492:	8a 89       	ldd	r24, Y+18	; 0x12
     494:	98 13       	cpse	r25, r24
     496:	21 e0       	ldi	r18, 0x01	; 1
     498:	2a 87       	std	Y+10, r18	; 0x0a
     49a:	ce 01       	movw	r24, r28
     49c:	09 96       	adiw	r24, 0x09	; 9
     49e:	bb c0       	rjmp	.+374    	; 0x616 <__mulsf3+0x1e8>
     4a0:	82 30       	cpi	r24, 0x02	; 2
     4a2:	49 f4       	brne	.+18     	; 0x4b6 <__mulsf3+0x88>
     4a4:	20 e0       	ldi	r18, 0x00	; 0
     4a6:	9a 85       	ldd	r25, Y+10	; 0x0a
     4a8:	8a 89       	ldd	r24, Y+18	; 0x12
     4aa:	98 13       	cpse	r25, r24
     4ac:	21 e0       	ldi	r18, 0x01	; 1
     4ae:	2a 8b       	std	Y+18, r18	; 0x12
     4b0:	ce 01       	movw	r24, r28
     4b2:	41 96       	adiw	r24, 0x11	; 17
     4b4:	b0 c0       	rjmp	.+352    	; 0x616 <__mulsf3+0x1e8>
     4b6:	2d 84       	ldd	r2, Y+13	; 0x0d
     4b8:	3e 84       	ldd	r3, Y+14	; 0x0e
     4ba:	4f 84       	ldd	r4, Y+15	; 0x0f
     4bc:	58 88       	ldd	r5, Y+16	; 0x10
     4be:	6d 88       	ldd	r6, Y+21	; 0x15
     4c0:	7e 88       	ldd	r7, Y+22	; 0x16
     4c2:	8f 88       	ldd	r8, Y+23	; 0x17
     4c4:	98 8c       	ldd	r9, Y+24	; 0x18
     4c6:	ee 24       	eor	r14, r14
     4c8:	ff 24       	eor	r15, r15
     4ca:	87 01       	movw	r16, r14
     4cc:	aa 24       	eor	r10, r10
     4ce:	bb 24       	eor	r11, r11
     4d0:	65 01       	movw	r12, r10
     4d2:	40 e0       	ldi	r20, 0x00	; 0
     4d4:	50 e0       	ldi	r21, 0x00	; 0
     4d6:	60 e0       	ldi	r22, 0x00	; 0
     4d8:	70 e0       	ldi	r23, 0x00	; 0
     4da:	e0 e0       	ldi	r30, 0x00	; 0
     4dc:	f0 e0       	ldi	r31, 0x00	; 0
     4de:	c1 01       	movw	r24, r2
     4e0:	81 70       	andi	r24, 0x01	; 1
     4e2:	90 70       	andi	r25, 0x00	; 0
     4e4:	89 2b       	or	r24, r25
     4e6:	e9 f0       	breq	.+58     	; 0x522 <__mulsf3+0xf4>
     4e8:	e6 0c       	add	r14, r6
     4ea:	f7 1c       	adc	r15, r7
     4ec:	08 1d       	adc	r16, r8
     4ee:	19 1d       	adc	r17, r9
     4f0:	9a 01       	movw	r18, r20
     4f2:	ab 01       	movw	r20, r22
     4f4:	2a 0d       	add	r18, r10
     4f6:	3b 1d       	adc	r19, r11
     4f8:	4c 1d       	adc	r20, r12
     4fa:	5d 1d       	adc	r21, r13
     4fc:	80 e0       	ldi	r24, 0x00	; 0
     4fe:	90 e0       	ldi	r25, 0x00	; 0
     500:	a0 e0       	ldi	r26, 0x00	; 0
     502:	b0 e0       	ldi	r27, 0x00	; 0
     504:	e6 14       	cp	r14, r6
     506:	f7 04       	cpc	r15, r7
     508:	08 05       	cpc	r16, r8
     50a:	19 05       	cpc	r17, r9
     50c:	20 f4       	brcc	.+8      	; 0x516 <__mulsf3+0xe8>
     50e:	81 e0       	ldi	r24, 0x01	; 1
     510:	90 e0       	ldi	r25, 0x00	; 0
     512:	a0 e0       	ldi	r26, 0x00	; 0
     514:	b0 e0       	ldi	r27, 0x00	; 0
     516:	ba 01       	movw	r22, r20
     518:	a9 01       	movw	r20, r18
     51a:	48 0f       	add	r20, r24
     51c:	59 1f       	adc	r21, r25
     51e:	6a 1f       	adc	r22, r26
     520:	7b 1f       	adc	r23, r27
     522:	aa 0c       	add	r10, r10
     524:	bb 1c       	adc	r11, r11
     526:	cc 1c       	adc	r12, r12
     528:	dd 1c       	adc	r13, r13
     52a:	97 fe       	sbrs	r9, 7
     52c:	08 c0       	rjmp	.+16     	; 0x53e <__mulsf3+0x110>
     52e:	81 e0       	ldi	r24, 0x01	; 1
     530:	90 e0       	ldi	r25, 0x00	; 0
     532:	a0 e0       	ldi	r26, 0x00	; 0
     534:	b0 e0       	ldi	r27, 0x00	; 0
     536:	a8 2a       	or	r10, r24
     538:	b9 2a       	or	r11, r25
     53a:	ca 2a       	or	r12, r26
     53c:	db 2a       	or	r13, r27
     53e:	31 96       	adiw	r30, 0x01	; 1
     540:	e0 32       	cpi	r30, 0x20	; 32
     542:	f1 05       	cpc	r31, r1
     544:	49 f0       	breq	.+18     	; 0x558 <__mulsf3+0x12a>
     546:	66 0c       	add	r6, r6
     548:	77 1c       	adc	r7, r7
     54a:	88 1c       	adc	r8, r8
     54c:	99 1c       	adc	r9, r9
     54e:	56 94       	lsr	r5
     550:	47 94       	ror	r4
     552:	37 94       	ror	r3
     554:	27 94       	ror	r2
     556:	c3 cf       	rjmp	.-122    	; 0x4de <__mulsf3+0xb0>
     558:	fa 85       	ldd	r31, Y+10	; 0x0a
     55a:	ea 89       	ldd	r30, Y+18	; 0x12
     55c:	2b 89       	ldd	r18, Y+19	; 0x13
     55e:	3c 89       	ldd	r19, Y+20	; 0x14
     560:	8b 85       	ldd	r24, Y+11	; 0x0b
     562:	9c 85       	ldd	r25, Y+12	; 0x0c
     564:	28 0f       	add	r18, r24
     566:	39 1f       	adc	r19, r25
     568:	2e 5f       	subi	r18, 0xFE	; 254
     56a:	3f 4f       	sbci	r19, 0xFF	; 255
     56c:	17 c0       	rjmp	.+46     	; 0x59c <__mulsf3+0x16e>
     56e:	ca 01       	movw	r24, r20
     570:	81 70       	andi	r24, 0x01	; 1
     572:	90 70       	andi	r25, 0x00	; 0
     574:	89 2b       	or	r24, r25
     576:	61 f0       	breq	.+24     	; 0x590 <__mulsf3+0x162>
     578:	16 95       	lsr	r17
     57a:	07 95       	ror	r16
     57c:	f7 94       	ror	r15
     57e:	e7 94       	ror	r14
     580:	80 e0       	ldi	r24, 0x00	; 0
     582:	90 e0       	ldi	r25, 0x00	; 0
     584:	a0 e0       	ldi	r26, 0x00	; 0
     586:	b0 e8       	ldi	r27, 0x80	; 128
     588:	e8 2a       	or	r14, r24
     58a:	f9 2a       	or	r15, r25
     58c:	0a 2b       	or	r16, r26
     58e:	1b 2b       	or	r17, r27
     590:	76 95       	lsr	r23
     592:	67 95       	ror	r22
     594:	57 95       	ror	r21
     596:	47 95       	ror	r20
     598:	2f 5f       	subi	r18, 0xFF	; 255
     59a:	3f 4f       	sbci	r19, 0xFF	; 255
     59c:	77 fd       	sbrc	r23, 7
     59e:	e7 cf       	rjmp	.-50     	; 0x56e <__mulsf3+0x140>
     5a0:	0c c0       	rjmp	.+24     	; 0x5ba <__mulsf3+0x18c>
     5a2:	44 0f       	add	r20, r20
     5a4:	55 1f       	adc	r21, r21
     5a6:	66 1f       	adc	r22, r22
     5a8:	77 1f       	adc	r23, r23
     5aa:	17 fd       	sbrc	r17, 7
     5ac:	41 60       	ori	r20, 0x01	; 1
     5ae:	ee 0c       	add	r14, r14
     5b0:	ff 1c       	adc	r15, r15
     5b2:	00 1f       	adc	r16, r16
     5b4:	11 1f       	adc	r17, r17
     5b6:	21 50       	subi	r18, 0x01	; 1
     5b8:	30 40       	sbci	r19, 0x00	; 0
     5ba:	40 30       	cpi	r20, 0x00	; 0
     5bc:	90 e0       	ldi	r25, 0x00	; 0
     5be:	59 07       	cpc	r21, r25
     5c0:	90 e0       	ldi	r25, 0x00	; 0
     5c2:	69 07       	cpc	r22, r25
     5c4:	90 e4       	ldi	r25, 0x40	; 64
     5c6:	79 07       	cpc	r23, r25
     5c8:	60 f3       	brcs	.-40     	; 0x5a2 <__mulsf3+0x174>
     5ca:	2b 8f       	std	Y+27, r18	; 0x1b
     5cc:	3c 8f       	std	Y+28, r19	; 0x1c
     5ce:	db 01       	movw	r26, r22
     5d0:	ca 01       	movw	r24, r20
     5d2:	8f 77       	andi	r24, 0x7F	; 127
     5d4:	90 70       	andi	r25, 0x00	; 0
     5d6:	a0 70       	andi	r26, 0x00	; 0
     5d8:	b0 70       	andi	r27, 0x00	; 0
     5da:	80 34       	cpi	r24, 0x40	; 64
     5dc:	91 05       	cpc	r25, r1
     5de:	a1 05       	cpc	r26, r1
     5e0:	b1 05       	cpc	r27, r1
     5e2:	61 f4       	brne	.+24     	; 0x5fc <__mulsf3+0x1ce>
     5e4:	47 fd       	sbrc	r20, 7
     5e6:	0a c0       	rjmp	.+20     	; 0x5fc <__mulsf3+0x1ce>
     5e8:	e1 14       	cp	r14, r1
     5ea:	f1 04       	cpc	r15, r1
     5ec:	01 05       	cpc	r16, r1
     5ee:	11 05       	cpc	r17, r1
     5f0:	29 f0       	breq	.+10     	; 0x5fc <__mulsf3+0x1ce>
     5f2:	40 5c       	subi	r20, 0xC0	; 192
     5f4:	5f 4f       	sbci	r21, 0xFF	; 255
     5f6:	6f 4f       	sbci	r22, 0xFF	; 255
     5f8:	7f 4f       	sbci	r23, 0xFF	; 255
     5fa:	40 78       	andi	r20, 0x80	; 128
     5fc:	1a 8e       	std	Y+26, r1	; 0x1a
     5fe:	fe 17       	cp	r31, r30
     600:	11 f0       	breq	.+4      	; 0x606 <__mulsf3+0x1d8>
     602:	81 e0       	ldi	r24, 0x01	; 1
     604:	8a 8f       	std	Y+26, r24	; 0x1a
     606:	4d 8f       	std	Y+29, r20	; 0x1d
     608:	5e 8f       	std	Y+30, r21	; 0x1e
     60a:	6f 8f       	std	Y+31, r22	; 0x1f
     60c:	78 a3       	std	Y+32, r23	; 0x20
     60e:	83 e0       	ldi	r24, 0x03	; 3
     610:	89 8f       	std	Y+25, r24	; 0x19
     612:	ce 01       	movw	r24, r28
     614:	49 96       	adiw	r24, 0x19	; 25
     616:	0e 94 f5 03 	call	0x7ea	; 0x7ea <__pack_f>
     61a:	a0 96       	adiw	r28, 0x20	; 32
     61c:	e2 e1       	ldi	r30, 0x12	; 18
     61e:	0c 94 3a 0d 	jmp	0x1a74	; 0x1a74 <__epilogue_restores__>

00000622 <__gtsf2>:
     622:	a8 e1       	ldi	r26, 0x18	; 24
     624:	b0 e0       	ldi	r27, 0x00	; 0
     626:	e7 e1       	ldi	r30, 0x17	; 23
     628:	f3 e0       	ldi	r31, 0x03	; 3
     62a:	0c 94 2a 0d 	jmp	0x1a54	; 0x1a54 <__prologue_saves__+0x18>
     62e:	69 83       	std	Y+1, r22	; 0x01
     630:	7a 83       	std	Y+2, r23	; 0x02
     632:	8b 83       	std	Y+3, r24	; 0x03
     634:	9c 83       	std	Y+4, r25	; 0x04
     636:	2d 83       	std	Y+5, r18	; 0x05
     638:	3e 83       	std	Y+6, r19	; 0x06
     63a:	4f 83       	std	Y+7, r20	; 0x07
     63c:	58 87       	std	Y+8, r21	; 0x08
     63e:	89 e0       	ldi	r24, 0x09	; 9
     640:	e8 2e       	mov	r14, r24
     642:	f1 2c       	mov	r15, r1
     644:	ec 0e       	add	r14, r28
     646:	fd 1e       	adc	r15, r29
     648:	ce 01       	movw	r24, r28
     64a:	01 96       	adiw	r24, 0x01	; 1
     64c:	b7 01       	movw	r22, r14
     64e:	0e 94 ca 04 	call	0x994	; 0x994 <__unpack_f>
     652:	8e 01       	movw	r16, r28
     654:	0f 5e       	subi	r16, 0xEF	; 239
     656:	1f 4f       	sbci	r17, 0xFF	; 255
     658:	ce 01       	movw	r24, r28
     65a:	05 96       	adiw	r24, 0x05	; 5
     65c:	b8 01       	movw	r22, r16
     65e:	0e 94 ca 04 	call	0x994	; 0x994 <__unpack_f>
     662:	89 85       	ldd	r24, Y+9	; 0x09
     664:	82 30       	cpi	r24, 0x02	; 2
     666:	40 f0       	brcs	.+16     	; 0x678 <__gtsf2+0x56>
     668:	89 89       	ldd	r24, Y+17	; 0x11
     66a:	82 30       	cpi	r24, 0x02	; 2
     66c:	28 f0       	brcs	.+10     	; 0x678 <__gtsf2+0x56>
     66e:	c7 01       	movw	r24, r14
     670:	b8 01       	movw	r22, r16
     672:	0e 94 42 05 	call	0xa84	; 0xa84 <__fpcmp_parts_f>
     676:	01 c0       	rjmp	.+2      	; 0x67a <__gtsf2+0x58>
     678:	8f ef       	ldi	r24, 0xFF	; 255
     67a:	68 96       	adiw	r28, 0x18	; 24
     67c:	e6 e0       	ldi	r30, 0x06	; 6
     67e:	0c 94 46 0d 	jmp	0x1a8c	; 0x1a8c <__epilogue_restores__+0x18>

00000682 <__gesf2>:
     682:	a8 e1       	ldi	r26, 0x18	; 24
     684:	b0 e0       	ldi	r27, 0x00	; 0
     686:	e7 e4       	ldi	r30, 0x47	; 71
     688:	f3 e0       	ldi	r31, 0x03	; 3
     68a:	0c 94 2a 0d 	jmp	0x1a54	; 0x1a54 <__prologue_saves__+0x18>
     68e:	69 83       	std	Y+1, r22	; 0x01
     690:	7a 83       	std	Y+2, r23	; 0x02
     692:	8b 83       	std	Y+3, r24	; 0x03
     694:	9c 83       	std	Y+4, r25	; 0x04
     696:	2d 83       	std	Y+5, r18	; 0x05
     698:	3e 83       	std	Y+6, r19	; 0x06
     69a:	4f 83       	std	Y+7, r20	; 0x07
     69c:	58 87       	std	Y+8, r21	; 0x08
     69e:	89 e0       	ldi	r24, 0x09	; 9
     6a0:	e8 2e       	mov	r14, r24
     6a2:	f1 2c       	mov	r15, r1
     6a4:	ec 0e       	add	r14, r28
     6a6:	fd 1e       	adc	r15, r29
     6a8:	ce 01       	movw	r24, r28
     6aa:	01 96       	adiw	r24, 0x01	; 1
     6ac:	b7 01       	movw	r22, r14
     6ae:	0e 94 ca 04 	call	0x994	; 0x994 <__unpack_f>
     6b2:	8e 01       	movw	r16, r28
     6b4:	0f 5e       	subi	r16, 0xEF	; 239
     6b6:	1f 4f       	sbci	r17, 0xFF	; 255
     6b8:	ce 01       	movw	r24, r28
     6ba:	05 96       	adiw	r24, 0x05	; 5
     6bc:	b8 01       	movw	r22, r16
     6be:	0e 94 ca 04 	call	0x994	; 0x994 <__unpack_f>
     6c2:	89 85       	ldd	r24, Y+9	; 0x09
     6c4:	82 30       	cpi	r24, 0x02	; 2
     6c6:	40 f0       	brcs	.+16     	; 0x6d8 <__gesf2+0x56>
     6c8:	89 89       	ldd	r24, Y+17	; 0x11
     6ca:	82 30       	cpi	r24, 0x02	; 2
     6cc:	28 f0       	brcs	.+10     	; 0x6d8 <__gesf2+0x56>
     6ce:	c7 01       	movw	r24, r14
     6d0:	b8 01       	movw	r22, r16
     6d2:	0e 94 42 05 	call	0xa84	; 0xa84 <__fpcmp_parts_f>
     6d6:	01 c0       	rjmp	.+2      	; 0x6da <__gesf2+0x58>
     6d8:	8f ef       	ldi	r24, 0xFF	; 255
     6da:	68 96       	adiw	r28, 0x18	; 24
     6dc:	e6 e0       	ldi	r30, 0x06	; 6
     6de:	0c 94 46 0d 	jmp	0x1a8c	; 0x1a8c <__epilogue_restores__+0x18>

000006e2 <__ltsf2>:
     6e2:	a8 e1       	ldi	r26, 0x18	; 24
     6e4:	b0 e0       	ldi	r27, 0x00	; 0
     6e6:	e7 e7       	ldi	r30, 0x77	; 119
     6e8:	f3 e0       	ldi	r31, 0x03	; 3
     6ea:	0c 94 2a 0d 	jmp	0x1a54	; 0x1a54 <__prologue_saves__+0x18>
     6ee:	69 83       	std	Y+1, r22	; 0x01
     6f0:	7a 83       	std	Y+2, r23	; 0x02
     6f2:	8b 83       	std	Y+3, r24	; 0x03
     6f4:	9c 83       	std	Y+4, r25	; 0x04
     6f6:	2d 83       	std	Y+5, r18	; 0x05
     6f8:	3e 83       	std	Y+6, r19	; 0x06
     6fa:	4f 83       	std	Y+7, r20	; 0x07
     6fc:	58 87       	std	Y+8, r21	; 0x08
     6fe:	89 e0       	ldi	r24, 0x09	; 9
     700:	e8 2e       	mov	r14, r24
     702:	f1 2c       	mov	r15, r1
     704:	ec 0e       	add	r14, r28
     706:	fd 1e       	adc	r15, r29
     708:	ce 01       	movw	r24, r28
     70a:	01 96       	adiw	r24, 0x01	; 1
     70c:	b7 01       	movw	r22, r14
     70e:	0e 94 ca 04 	call	0x994	; 0x994 <__unpack_f>
     712:	8e 01       	movw	r16, r28
     714:	0f 5e       	subi	r16, 0xEF	; 239
     716:	1f 4f       	sbci	r17, 0xFF	; 255
     718:	ce 01       	movw	r24, r28
     71a:	05 96       	adiw	r24, 0x05	; 5
     71c:	b8 01       	movw	r22, r16
     71e:	0e 94 ca 04 	call	0x994	; 0x994 <__unpack_f>
     722:	89 85       	ldd	r24, Y+9	; 0x09
     724:	82 30       	cpi	r24, 0x02	; 2
     726:	40 f0       	brcs	.+16     	; 0x738 <__ltsf2+0x56>
     728:	89 89       	ldd	r24, Y+17	; 0x11
     72a:	82 30       	cpi	r24, 0x02	; 2
     72c:	28 f0       	brcs	.+10     	; 0x738 <__ltsf2+0x56>
     72e:	c7 01       	movw	r24, r14
     730:	b8 01       	movw	r22, r16
     732:	0e 94 42 05 	call	0xa84	; 0xa84 <__fpcmp_parts_f>
     736:	01 c0       	rjmp	.+2      	; 0x73a <__ltsf2+0x58>
     738:	81 e0       	ldi	r24, 0x01	; 1
     73a:	68 96       	adiw	r28, 0x18	; 24
     73c:	e6 e0       	ldi	r30, 0x06	; 6
     73e:	0c 94 46 0d 	jmp	0x1a8c	; 0x1a8c <__epilogue_restores__+0x18>

00000742 <__fixsfsi>:
     742:	ac e0       	ldi	r26, 0x0C	; 12
     744:	b0 e0       	ldi	r27, 0x00	; 0
     746:	e7 ea       	ldi	r30, 0xA7	; 167
     748:	f3 e0       	ldi	r31, 0x03	; 3
     74a:	0c 94 2e 0d 	jmp	0x1a5c	; 0x1a5c <__prologue_saves__+0x20>
     74e:	69 83       	std	Y+1, r22	; 0x01
     750:	7a 83       	std	Y+2, r23	; 0x02
     752:	8b 83       	std	Y+3, r24	; 0x03
     754:	9c 83       	std	Y+4, r25	; 0x04
     756:	ce 01       	movw	r24, r28
     758:	01 96       	adiw	r24, 0x01	; 1
     75a:	be 01       	movw	r22, r28
     75c:	6b 5f       	subi	r22, 0xFB	; 251
     75e:	7f 4f       	sbci	r23, 0xFF	; 255
     760:	0e 94 ca 04 	call	0x994	; 0x994 <__unpack_f>
     764:	8d 81       	ldd	r24, Y+5	; 0x05
     766:	82 30       	cpi	r24, 0x02	; 2
     768:	61 f1       	breq	.+88     	; 0x7c2 <__fixsfsi+0x80>
     76a:	82 30       	cpi	r24, 0x02	; 2
     76c:	50 f1       	brcs	.+84     	; 0x7c2 <__fixsfsi+0x80>
     76e:	84 30       	cpi	r24, 0x04	; 4
     770:	21 f4       	brne	.+8      	; 0x77a <__fixsfsi+0x38>
     772:	8e 81       	ldd	r24, Y+6	; 0x06
     774:	88 23       	and	r24, r24
     776:	51 f1       	breq	.+84     	; 0x7cc <__fixsfsi+0x8a>
     778:	2e c0       	rjmp	.+92     	; 0x7d6 <__fixsfsi+0x94>
     77a:	2f 81       	ldd	r18, Y+7	; 0x07
     77c:	38 85       	ldd	r19, Y+8	; 0x08
     77e:	37 fd       	sbrc	r19, 7
     780:	20 c0       	rjmp	.+64     	; 0x7c2 <__fixsfsi+0x80>
     782:	6e 81       	ldd	r22, Y+6	; 0x06
     784:	2f 31       	cpi	r18, 0x1F	; 31
     786:	31 05       	cpc	r19, r1
     788:	1c f0       	brlt	.+6      	; 0x790 <__fixsfsi+0x4e>
     78a:	66 23       	and	r22, r22
     78c:	f9 f0       	breq	.+62     	; 0x7cc <__fixsfsi+0x8a>
     78e:	23 c0       	rjmp	.+70     	; 0x7d6 <__fixsfsi+0x94>
     790:	8e e1       	ldi	r24, 0x1E	; 30
     792:	90 e0       	ldi	r25, 0x00	; 0
     794:	82 1b       	sub	r24, r18
     796:	93 0b       	sbc	r25, r19
     798:	29 85       	ldd	r18, Y+9	; 0x09
     79a:	3a 85       	ldd	r19, Y+10	; 0x0a
     79c:	4b 85       	ldd	r20, Y+11	; 0x0b
     79e:	5c 85       	ldd	r21, Y+12	; 0x0c
     7a0:	04 c0       	rjmp	.+8      	; 0x7aa <__fixsfsi+0x68>
     7a2:	56 95       	lsr	r21
     7a4:	47 95       	ror	r20
     7a6:	37 95       	ror	r19
     7a8:	27 95       	ror	r18
     7aa:	8a 95       	dec	r24
     7ac:	d2 f7       	brpl	.-12     	; 0x7a2 <__fixsfsi+0x60>
     7ae:	66 23       	and	r22, r22
     7b0:	b1 f0       	breq	.+44     	; 0x7de <__fixsfsi+0x9c>
     7b2:	50 95       	com	r21
     7b4:	40 95       	com	r20
     7b6:	30 95       	com	r19
     7b8:	21 95       	neg	r18
     7ba:	3f 4f       	sbci	r19, 0xFF	; 255
     7bc:	4f 4f       	sbci	r20, 0xFF	; 255
     7be:	5f 4f       	sbci	r21, 0xFF	; 255
     7c0:	0e c0       	rjmp	.+28     	; 0x7de <__fixsfsi+0x9c>
     7c2:	20 e0       	ldi	r18, 0x00	; 0
     7c4:	30 e0       	ldi	r19, 0x00	; 0
     7c6:	40 e0       	ldi	r20, 0x00	; 0
     7c8:	50 e0       	ldi	r21, 0x00	; 0
     7ca:	09 c0       	rjmp	.+18     	; 0x7de <__fixsfsi+0x9c>
     7cc:	2f ef       	ldi	r18, 0xFF	; 255
     7ce:	3f ef       	ldi	r19, 0xFF	; 255
     7d0:	4f ef       	ldi	r20, 0xFF	; 255
     7d2:	5f e7       	ldi	r21, 0x7F	; 127
     7d4:	04 c0       	rjmp	.+8      	; 0x7de <__fixsfsi+0x9c>
     7d6:	20 e0       	ldi	r18, 0x00	; 0
     7d8:	30 e0       	ldi	r19, 0x00	; 0
     7da:	40 e0       	ldi	r20, 0x00	; 0
     7dc:	50 e8       	ldi	r21, 0x80	; 128
     7de:	b9 01       	movw	r22, r18
     7e0:	ca 01       	movw	r24, r20
     7e2:	2c 96       	adiw	r28, 0x0c	; 12
     7e4:	e2 e0       	ldi	r30, 0x02	; 2
     7e6:	0c 94 4a 0d 	jmp	0x1a94	; 0x1a94 <__epilogue_restores__+0x20>

000007ea <__pack_f>:
     7ea:	df 92       	push	r13
     7ec:	ef 92       	push	r14
     7ee:	ff 92       	push	r15
     7f0:	0f 93       	push	r16
     7f2:	1f 93       	push	r17
     7f4:	fc 01       	movw	r30, r24
     7f6:	e4 80       	ldd	r14, Z+4	; 0x04
     7f8:	f5 80       	ldd	r15, Z+5	; 0x05
     7fa:	06 81       	ldd	r16, Z+6	; 0x06
     7fc:	17 81       	ldd	r17, Z+7	; 0x07
     7fe:	d1 80       	ldd	r13, Z+1	; 0x01
     800:	80 81       	ld	r24, Z
     802:	82 30       	cpi	r24, 0x02	; 2
     804:	48 f4       	brcc	.+18     	; 0x818 <__pack_f+0x2e>
     806:	80 e0       	ldi	r24, 0x00	; 0
     808:	90 e0       	ldi	r25, 0x00	; 0
     80a:	a0 e1       	ldi	r26, 0x10	; 16
     80c:	b0 e0       	ldi	r27, 0x00	; 0
     80e:	e8 2a       	or	r14, r24
     810:	f9 2a       	or	r15, r25
     812:	0a 2b       	or	r16, r26
     814:	1b 2b       	or	r17, r27
     816:	a5 c0       	rjmp	.+330    	; 0x962 <__stack+0x103>
     818:	84 30       	cpi	r24, 0x04	; 4
     81a:	09 f4       	brne	.+2      	; 0x81e <__pack_f+0x34>
     81c:	9f c0       	rjmp	.+318    	; 0x95c <__stack+0xfd>
     81e:	82 30       	cpi	r24, 0x02	; 2
     820:	21 f4       	brne	.+8      	; 0x82a <__pack_f+0x40>
     822:	ee 24       	eor	r14, r14
     824:	ff 24       	eor	r15, r15
     826:	87 01       	movw	r16, r14
     828:	05 c0       	rjmp	.+10     	; 0x834 <__pack_f+0x4a>
     82a:	e1 14       	cp	r14, r1
     82c:	f1 04       	cpc	r15, r1
     82e:	01 05       	cpc	r16, r1
     830:	11 05       	cpc	r17, r1
     832:	19 f4       	brne	.+6      	; 0x83a <__pack_f+0x50>
     834:	e0 e0       	ldi	r30, 0x00	; 0
     836:	f0 e0       	ldi	r31, 0x00	; 0
     838:	96 c0       	rjmp	.+300    	; 0x966 <__stack+0x107>
     83a:	62 81       	ldd	r22, Z+2	; 0x02
     83c:	73 81       	ldd	r23, Z+3	; 0x03
     83e:	9f ef       	ldi	r25, 0xFF	; 255
     840:	62 38       	cpi	r22, 0x82	; 130
     842:	79 07       	cpc	r23, r25
     844:	0c f0       	brlt	.+2      	; 0x848 <__pack_f+0x5e>
     846:	5b c0       	rjmp	.+182    	; 0x8fe <__stack+0x9f>
     848:	22 e8       	ldi	r18, 0x82	; 130
     84a:	3f ef       	ldi	r19, 0xFF	; 255
     84c:	26 1b       	sub	r18, r22
     84e:	37 0b       	sbc	r19, r23
     850:	2a 31       	cpi	r18, 0x1A	; 26
     852:	31 05       	cpc	r19, r1
     854:	2c f0       	brlt	.+10     	; 0x860 <__stack+0x1>
     856:	20 e0       	ldi	r18, 0x00	; 0
     858:	30 e0       	ldi	r19, 0x00	; 0
     85a:	40 e0       	ldi	r20, 0x00	; 0
     85c:	50 e0       	ldi	r21, 0x00	; 0
     85e:	2a c0       	rjmp	.+84     	; 0x8b4 <__stack+0x55>
     860:	b8 01       	movw	r22, r16
     862:	a7 01       	movw	r20, r14
     864:	02 2e       	mov	r0, r18
     866:	04 c0       	rjmp	.+8      	; 0x870 <__stack+0x11>
     868:	76 95       	lsr	r23
     86a:	67 95       	ror	r22
     86c:	57 95       	ror	r21
     86e:	47 95       	ror	r20
     870:	0a 94       	dec	r0
     872:	d2 f7       	brpl	.-12     	; 0x868 <__stack+0x9>
     874:	81 e0       	ldi	r24, 0x01	; 1
     876:	90 e0       	ldi	r25, 0x00	; 0
     878:	a0 e0       	ldi	r26, 0x00	; 0
     87a:	b0 e0       	ldi	r27, 0x00	; 0
     87c:	04 c0       	rjmp	.+8      	; 0x886 <__stack+0x27>
     87e:	88 0f       	add	r24, r24
     880:	99 1f       	adc	r25, r25
     882:	aa 1f       	adc	r26, r26
     884:	bb 1f       	adc	r27, r27
     886:	2a 95       	dec	r18
     888:	d2 f7       	brpl	.-12     	; 0x87e <__stack+0x1f>
     88a:	01 97       	sbiw	r24, 0x01	; 1
     88c:	a1 09       	sbc	r26, r1
     88e:	b1 09       	sbc	r27, r1
     890:	8e 21       	and	r24, r14
     892:	9f 21       	and	r25, r15
     894:	a0 23       	and	r26, r16
     896:	b1 23       	and	r27, r17
     898:	00 97       	sbiw	r24, 0x00	; 0
     89a:	a1 05       	cpc	r26, r1
     89c:	b1 05       	cpc	r27, r1
     89e:	21 f0       	breq	.+8      	; 0x8a8 <__stack+0x49>
     8a0:	81 e0       	ldi	r24, 0x01	; 1
     8a2:	90 e0       	ldi	r25, 0x00	; 0
     8a4:	a0 e0       	ldi	r26, 0x00	; 0
     8a6:	b0 e0       	ldi	r27, 0x00	; 0
     8a8:	9a 01       	movw	r18, r20
     8aa:	ab 01       	movw	r20, r22
     8ac:	28 2b       	or	r18, r24
     8ae:	39 2b       	or	r19, r25
     8b0:	4a 2b       	or	r20, r26
     8b2:	5b 2b       	or	r21, r27
     8b4:	da 01       	movw	r26, r20
     8b6:	c9 01       	movw	r24, r18
     8b8:	8f 77       	andi	r24, 0x7F	; 127
     8ba:	90 70       	andi	r25, 0x00	; 0
     8bc:	a0 70       	andi	r26, 0x00	; 0
     8be:	b0 70       	andi	r27, 0x00	; 0
     8c0:	80 34       	cpi	r24, 0x40	; 64
     8c2:	91 05       	cpc	r25, r1
     8c4:	a1 05       	cpc	r26, r1
     8c6:	b1 05       	cpc	r27, r1
     8c8:	39 f4       	brne	.+14     	; 0x8d8 <__stack+0x79>
     8ca:	27 ff       	sbrs	r18, 7
     8cc:	09 c0       	rjmp	.+18     	; 0x8e0 <__stack+0x81>
     8ce:	20 5c       	subi	r18, 0xC0	; 192
     8d0:	3f 4f       	sbci	r19, 0xFF	; 255
     8d2:	4f 4f       	sbci	r20, 0xFF	; 255
     8d4:	5f 4f       	sbci	r21, 0xFF	; 255
     8d6:	04 c0       	rjmp	.+8      	; 0x8e0 <__stack+0x81>
     8d8:	21 5c       	subi	r18, 0xC1	; 193
     8da:	3f 4f       	sbci	r19, 0xFF	; 255
     8dc:	4f 4f       	sbci	r20, 0xFF	; 255
     8de:	5f 4f       	sbci	r21, 0xFF	; 255
     8e0:	e0 e0       	ldi	r30, 0x00	; 0
     8e2:	f0 e0       	ldi	r31, 0x00	; 0
     8e4:	20 30       	cpi	r18, 0x00	; 0
     8e6:	a0 e0       	ldi	r26, 0x00	; 0
     8e8:	3a 07       	cpc	r19, r26
     8ea:	a0 e0       	ldi	r26, 0x00	; 0
     8ec:	4a 07       	cpc	r20, r26
     8ee:	a0 e4       	ldi	r26, 0x40	; 64
     8f0:	5a 07       	cpc	r21, r26
     8f2:	10 f0       	brcs	.+4      	; 0x8f8 <__stack+0x99>
     8f4:	e1 e0       	ldi	r30, 0x01	; 1
     8f6:	f0 e0       	ldi	r31, 0x00	; 0
     8f8:	79 01       	movw	r14, r18
     8fa:	8a 01       	movw	r16, r20
     8fc:	27 c0       	rjmp	.+78     	; 0x94c <__stack+0xed>
     8fe:	60 38       	cpi	r22, 0x80	; 128
     900:	71 05       	cpc	r23, r1
     902:	64 f5       	brge	.+88     	; 0x95c <__stack+0xfd>
     904:	fb 01       	movw	r30, r22
     906:	e1 58       	subi	r30, 0x81	; 129
     908:	ff 4f       	sbci	r31, 0xFF	; 255
     90a:	d8 01       	movw	r26, r16
     90c:	c7 01       	movw	r24, r14
     90e:	8f 77       	andi	r24, 0x7F	; 127
     910:	90 70       	andi	r25, 0x00	; 0
     912:	a0 70       	andi	r26, 0x00	; 0
     914:	b0 70       	andi	r27, 0x00	; 0
     916:	80 34       	cpi	r24, 0x40	; 64
     918:	91 05       	cpc	r25, r1
     91a:	a1 05       	cpc	r26, r1
     91c:	b1 05       	cpc	r27, r1
     91e:	39 f4       	brne	.+14     	; 0x92e <__stack+0xcf>
     920:	e7 fe       	sbrs	r14, 7
     922:	0d c0       	rjmp	.+26     	; 0x93e <__stack+0xdf>
     924:	80 e4       	ldi	r24, 0x40	; 64
     926:	90 e0       	ldi	r25, 0x00	; 0
     928:	a0 e0       	ldi	r26, 0x00	; 0
     92a:	b0 e0       	ldi	r27, 0x00	; 0
     92c:	04 c0       	rjmp	.+8      	; 0x936 <__stack+0xd7>
     92e:	8f e3       	ldi	r24, 0x3F	; 63
     930:	90 e0       	ldi	r25, 0x00	; 0
     932:	a0 e0       	ldi	r26, 0x00	; 0
     934:	b0 e0       	ldi	r27, 0x00	; 0
     936:	e8 0e       	add	r14, r24
     938:	f9 1e       	adc	r15, r25
     93a:	0a 1f       	adc	r16, r26
     93c:	1b 1f       	adc	r17, r27
     93e:	17 ff       	sbrs	r17, 7
     940:	05 c0       	rjmp	.+10     	; 0x94c <__stack+0xed>
     942:	16 95       	lsr	r17
     944:	07 95       	ror	r16
     946:	f7 94       	ror	r15
     948:	e7 94       	ror	r14
     94a:	31 96       	adiw	r30, 0x01	; 1
     94c:	87 e0       	ldi	r24, 0x07	; 7
     94e:	16 95       	lsr	r17
     950:	07 95       	ror	r16
     952:	f7 94       	ror	r15
     954:	e7 94       	ror	r14
     956:	8a 95       	dec	r24
     958:	d1 f7       	brne	.-12     	; 0x94e <__stack+0xef>
     95a:	05 c0       	rjmp	.+10     	; 0x966 <__stack+0x107>
     95c:	ee 24       	eor	r14, r14
     95e:	ff 24       	eor	r15, r15
     960:	87 01       	movw	r16, r14
     962:	ef ef       	ldi	r30, 0xFF	; 255
     964:	f0 e0       	ldi	r31, 0x00	; 0
     966:	6e 2f       	mov	r22, r30
     968:	67 95       	ror	r22
     96a:	66 27       	eor	r22, r22
     96c:	67 95       	ror	r22
     96e:	90 2f       	mov	r25, r16
     970:	9f 77       	andi	r25, 0x7F	; 127
     972:	d7 94       	ror	r13
     974:	dd 24       	eor	r13, r13
     976:	d7 94       	ror	r13
     978:	8e 2f       	mov	r24, r30
     97a:	86 95       	lsr	r24
     97c:	49 2f       	mov	r20, r25
     97e:	46 2b       	or	r20, r22
     980:	58 2f       	mov	r21, r24
     982:	5d 29       	or	r21, r13
     984:	b7 01       	movw	r22, r14
     986:	ca 01       	movw	r24, r20
     988:	1f 91       	pop	r17
     98a:	0f 91       	pop	r16
     98c:	ff 90       	pop	r15
     98e:	ef 90       	pop	r14
     990:	df 90       	pop	r13
     992:	08 95       	ret

00000994 <__unpack_f>:
     994:	fc 01       	movw	r30, r24
     996:	db 01       	movw	r26, r22
     998:	40 81       	ld	r20, Z
     99a:	51 81       	ldd	r21, Z+1	; 0x01
     99c:	22 81       	ldd	r18, Z+2	; 0x02
     99e:	62 2f       	mov	r22, r18
     9a0:	6f 77       	andi	r22, 0x7F	; 127
     9a2:	70 e0       	ldi	r23, 0x00	; 0
     9a4:	22 1f       	adc	r18, r18
     9a6:	22 27       	eor	r18, r18
     9a8:	22 1f       	adc	r18, r18
     9aa:	93 81       	ldd	r25, Z+3	; 0x03
     9ac:	89 2f       	mov	r24, r25
     9ae:	88 0f       	add	r24, r24
     9b0:	82 2b       	or	r24, r18
     9b2:	28 2f       	mov	r18, r24
     9b4:	30 e0       	ldi	r19, 0x00	; 0
     9b6:	99 1f       	adc	r25, r25
     9b8:	99 27       	eor	r25, r25
     9ba:	99 1f       	adc	r25, r25
     9bc:	11 96       	adiw	r26, 0x01	; 1
     9be:	9c 93       	st	X, r25
     9c0:	11 97       	sbiw	r26, 0x01	; 1
     9c2:	21 15       	cp	r18, r1
     9c4:	31 05       	cpc	r19, r1
     9c6:	a9 f5       	brne	.+106    	; 0xa32 <__unpack_f+0x9e>
     9c8:	41 15       	cp	r20, r1
     9ca:	51 05       	cpc	r21, r1
     9cc:	61 05       	cpc	r22, r1
     9ce:	71 05       	cpc	r23, r1
     9d0:	11 f4       	brne	.+4      	; 0x9d6 <__unpack_f+0x42>
     9d2:	82 e0       	ldi	r24, 0x02	; 2
     9d4:	37 c0       	rjmp	.+110    	; 0xa44 <__unpack_f+0xb0>
     9d6:	82 e8       	ldi	r24, 0x82	; 130
     9d8:	9f ef       	ldi	r25, 0xFF	; 255
     9da:	13 96       	adiw	r26, 0x03	; 3
     9dc:	9c 93       	st	X, r25
     9de:	8e 93       	st	-X, r24
     9e0:	12 97       	sbiw	r26, 0x02	; 2
     9e2:	9a 01       	movw	r18, r20
     9e4:	ab 01       	movw	r20, r22
     9e6:	67 e0       	ldi	r22, 0x07	; 7
     9e8:	22 0f       	add	r18, r18
     9ea:	33 1f       	adc	r19, r19
     9ec:	44 1f       	adc	r20, r20
     9ee:	55 1f       	adc	r21, r21
     9f0:	6a 95       	dec	r22
     9f2:	d1 f7       	brne	.-12     	; 0x9e8 <__unpack_f+0x54>
     9f4:	83 e0       	ldi	r24, 0x03	; 3
     9f6:	8c 93       	st	X, r24
     9f8:	0d c0       	rjmp	.+26     	; 0xa14 <__unpack_f+0x80>
     9fa:	22 0f       	add	r18, r18
     9fc:	33 1f       	adc	r19, r19
     9fe:	44 1f       	adc	r20, r20
     a00:	55 1f       	adc	r21, r21
     a02:	12 96       	adiw	r26, 0x02	; 2
     a04:	8d 91       	ld	r24, X+
     a06:	9c 91       	ld	r25, X
     a08:	13 97       	sbiw	r26, 0x03	; 3
     a0a:	01 97       	sbiw	r24, 0x01	; 1
     a0c:	13 96       	adiw	r26, 0x03	; 3
     a0e:	9c 93       	st	X, r25
     a10:	8e 93       	st	-X, r24
     a12:	12 97       	sbiw	r26, 0x02	; 2
     a14:	20 30       	cpi	r18, 0x00	; 0
     a16:	80 e0       	ldi	r24, 0x00	; 0
     a18:	38 07       	cpc	r19, r24
     a1a:	80 e0       	ldi	r24, 0x00	; 0
     a1c:	48 07       	cpc	r20, r24
     a1e:	80 e4       	ldi	r24, 0x40	; 64
     a20:	58 07       	cpc	r21, r24
     a22:	58 f3       	brcs	.-42     	; 0x9fa <__unpack_f+0x66>
     a24:	14 96       	adiw	r26, 0x04	; 4
     a26:	2d 93       	st	X+, r18
     a28:	3d 93       	st	X+, r19
     a2a:	4d 93       	st	X+, r20
     a2c:	5c 93       	st	X, r21
     a2e:	17 97       	sbiw	r26, 0x07	; 7
     a30:	08 95       	ret
     a32:	2f 3f       	cpi	r18, 0xFF	; 255
     a34:	31 05       	cpc	r19, r1
     a36:	79 f4       	brne	.+30     	; 0xa56 <__unpack_f+0xc2>
     a38:	41 15       	cp	r20, r1
     a3a:	51 05       	cpc	r21, r1
     a3c:	61 05       	cpc	r22, r1
     a3e:	71 05       	cpc	r23, r1
     a40:	19 f4       	brne	.+6      	; 0xa48 <__unpack_f+0xb4>
     a42:	84 e0       	ldi	r24, 0x04	; 4
     a44:	8c 93       	st	X, r24
     a46:	08 95       	ret
     a48:	64 ff       	sbrs	r22, 4
     a4a:	03 c0       	rjmp	.+6      	; 0xa52 <__unpack_f+0xbe>
     a4c:	81 e0       	ldi	r24, 0x01	; 1
     a4e:	8c 93       	st	X, r24
     a50:	12 c0       	rjmp	.+36     	; 0xa76 <__unpack_f+0xe2>
     a52:	1c 92       	st	X, r1
     a54:	10 c0       	rjmp	.+32     	; 0xa76 <__unpack_f+0xe2>
     a56:	2f 57       	subi	r18, 0x7F	; 127
     a58:	30 40       	sbci	r19, 0x00	; 0
     a5a:	13 96       	adiw	r26, 0x03	; 3
     a5c:	3c 93       	st	X, r19
     a5e:	2e 93       	st	-X, r18
     a60:	12 97       	sbiw	r26, 0x02	; 2
     a62:	83 e0       	ldi	r24, 0x03	; 3
     a64:	8c 93       	st	X, r24
     a66:	87 e0       	ldi	r24, 0x07	; 7
     a68:	44 0f       	add	r20, r20
     a6a:	55 1f       	adc	r21, r21
     a6c:	66 1f       	adc	r22, r22
     a6e:	77 1f       	adc	r23, r23
     a70:	8a 95       	dec	r24
     a72:	d1 f7       	brne	.-12     	; 0xa68 <__unpack_f+0xd4>
     a74:	70 64       	ori	r23, 0x40	; 64
     a76:	14 96       	adiw	r26, 0x04	; 4
     a78:	4d 93       	st	X+, r20
     a7a:	5d 93       	st	X+, r21
     a7c:	6d 93       	st	X+, r22
     a7e:	7c 93       	st	X, r23
     a80:	17 97       	sbiw	r26, 0x07	; 7
     a82:	08 95       	ret

00000a84 <__fpcmp_parts_f>:
     a84:	1f 93       	push	r17
     a86:	dc 01       	movw	r26, r24
     a88:	fb 01       	movw	r30, r22
     a8a:	9c 91       	ld	r25, X
     a8c:	92 30       	cpi	r25, 0x02	; 2
     a8e:	08 f4       	brcc	.+2      	; 0xa92 <__fpcmp_parts_f+0xe>
     a90:	47 c0       	rjmp	.+142    	; 0xb20 <__fpcmp_parts_f+0x9c>
     a92:	80 81       	ld	r24, Z
     a94:	82 30       	cpi	r24, 0x02	; 2
     a96:	08 f4       	brcc	.+2      	; 0xa9a <__fpcmp_parts_f+0x16>
     a98:	43 c0       	rjmp	.+134    	; 0xb20 <__fpcmp_parts_f+0x9c>
     a9a:	94 30       	cpi	r25, 0x04	; 4
     a9c:	51 f4       	brne	.+20     	; 0xab2 <__fpcmp_parts_f+0x2e>
     a9e:	11 96       	adiw	r26, 0x01	; 1
     aa0:	1c 91       	ld	r17, X
     aa2:	84 30       	cpi	r24, 0x04	; 4
     aa4:	99 f5       	brne	.+102    	; 0xb0c <__fpcmp_parts_f+0x88>
     aa6:	81 81       	ldd	r24, Z+1	; 0x01
     aa8:	68 2f       	mov	r22, r24
     aaa:	70 e0       	ldi	r23, 0x00	; 0
     aac:	61 1b       	sub	r22, r17
     aae:	71 09       	sbc	r23, r1
     ab0:	3f c0       	rjmp	.+126    	; 0xb30 <__fpcmp_parts_f+0xac>
     ab2:	84 30       	cpi	r24, 0x04	; 4
     ab4:	21 f0       	breq	.+8      	; 0xabe <__fpcmp_parts_f+0x3a>
     ab6:	92 30       	cpi	r25, 0x02	; 2
     ab8:	31 f4       	brne	.+12     	; 0xac6 <__fpcmp_parts_f+0x42>
     aba:	82 30       	cpi	r24, 0x02	; 2
     abc:	b9 f1       	breq	.+110    	; 0xb2c <__fpcmp_parts_f+0xa8>
     abe:	81 81       	ldd	r24, Z+1	; 0x01
     ac0:	88 23       	and	r24, r24
     ac2:	89 f1       	breq	.+98     	; 0xb26 <__fpcmp_parts_f+0xa2>
     ac4:	2d c0       	rjmp	.+90     	; 0xb20 <__fpcmp_parts_f+0x9c>
     ac6:	11 96       	adiw	r26, 0x01	; 1
     ac8:	1c 91       	ld	r17, X
     aca:	11 97       	sbiw	r26, 0x01	; 1
     acc:	82 30       	cpi	r24, 0x02	; 2
     ace:	f1 f0       	breq	.+60     	; 0xb0c <__fpcmp_parts_f+0x88>
     ad0:	81 81       	ldd	r24, Z+1	; 0x01
     ad2:	18 17       	cp	r17, r24
     ad4:	d9 f4       	brne	.+54     	; 0xb0c <__fpcmp_parts_f+0x88>
     ad6:	12 96       	adiw	r26, 0x02	; 2
     ad8:	2d 91       	ld	r18, X+
     ada:	3c 91       	ld	r19, X
     adc:	13 97       	sbiw	r26, 0x03	; 3
     ade:	82 81       	ldd	r24, Z+2	; 0x02
     ae0:	93 81       	ldd	r25, Z+3	; 0x03
     ae2:	82 17       	cp	r24, r18
     ae4:	93 07       	cpc	r25, r19
     ae6:	94 f0       	brlt	.+36     	; 0xb0c <__fpcmp_parts_f+0x88>
     ae8:	28 17       	cp	r18, r24
     aea:	39 07       	cpc	r19, r25
     aec:	bc f0       	brlt	.+46     	; 0xb1c <__fpcmp_parts_f+0x98>
     aee:	14 96       	adiw	r26, 0x04	; 4
     af0:	8d 91       	ld	r24, X+
     af2:	9d 91       	ld	r25, X+
     af4:	0d 90       	ld	r0, X+
     af6:	bc 91       	ld	r27, X
     af8:	a0 2d       	mov	r26, r0
     afa:	24 81       	ldd	r18, Z+4	; 0x04
     afc:	35 81       	ldd	r19, Z+5	; 0x05
     afe:	46 81       	ldd	r20, Z+6	; 0x06
     b00:	57 81       	ldd	r21, Z+7	; 0x07
     b02:	28 17       	cp	r18, r24
     b04:	39 07       	cpc	r19, r25
     b06:	4a 07       	cpc	r20, r26
     b08:	5b 07       	cpc	r21, r27
     b0a:	18 f4       	brcc	.+6      	; 0xb12 <__fpcmp_parts_f+0x8e>
     b0c:	11 23       	and	r17, r17
     b0e:	41 f0       	breq	.+16     	; 0xb20 <__fpcmp_parts_f+0x9c>
     b10:	0a c0       	rjmp	.+20     	; 0xb26 <__fpcmp_parts_f+0xa2>
     b12:	82 17       	cp	r24, r18
     b14:	93 07       	cpc	r25, r19
     b16:	a4 07       	cpc	r26, r20
     b18:	b5 07       	cpc	r27, r21
     b1a:	40 f4       	brcc	.+16     	; 0xb2c <__fpcmp_parts_f+0xa8>
     b1c:	11 23       	and	r17, r17
     b1e:	19 f0       	breq	.+6      	; 0xb26 <__fpcmp_parts_f+0xa2>
     b20:	61 e0       	ldi	r22, 0x01	; 1
     b22:	70 e0       	ldi	r23, 0x00	; 0
     b24:	05 c0       	rjmp	.+10     	; 0xb30 <__fpcmp_parts_f+0xac>
     b26:	6f ef       	ldi	r22, 0xFF	; 255
     b28:	7f ef       	ldi	r23, 0xFF	; 255
     b2a:	02 c0       	rjmp	.+4      	; 0xb30 <__fpcmp_parts_f+0xac>
     b2c:	60 e0       	ldi	r22, 0x00	; 0
     b2e:	70 e0       	ldi	r23, 0x00	; 0
     b30:	cb 01       	movw	r24, r22
     b32:	1f 91       	pop	r17
     b34:	08 95       	ret

00000b36 <MDIO_stderrSetPortDirection>:
/* SWC Includes */
#include "MDIO_private.h"
#include "MDIO_interface.h"

STD_error_t MDIO_stderrSetPortDirection(u8 ARG_u8Port, u8 ARG_u8Direction)
{
     b36:	df 93       	push	r29
     b38:	cf 93       	push	r28
     b3a:	00 d0       	rcall	.+0      	; 0xb3c <MDIO_stderrSetPortDirection+0x6>
     b3c:	00 d0       	rcall	.+0      	; 0xb3e <MDIO_stderrSetPortDirection+0x8>
     b3e:	0f 92       	push	r0
     b40:	cd b7       	in	r28, 0x3d	; 61
     b42:	de b7       	in	r29, 0x3e	; 62
     b44:	8a 83       	std	Y+2, r24	; 0x02
     b46:	6b 83       	std	Y+3, r22	; 0x03
	STD_error_t L_stderrError = E_OK;
     b48:	19 82       	std	Y+1, r1	; 0x01
	switch(ARG_u8Port)
     b4a:	8a 81       	ldd	r24, Y+2	; 0x02
     b4c:	28 2f       	mov	r18, r24
     b4e:	30 e0       	ldi	r19, 0x00	; 0
     b50:	3d 83       	std	Y+5, r19	; 0x05
     b52:	2c 83       	std	Y+4, r18	; 0x04
     b54:	8c 81       	ldd	r24, Y+4	; 0x04
     b56:	9d 81       	ldd	r25, Y+5	; 0x05
     b58:	82 30       	cpi	r24, 0x02	; 2
     b5a:	91 05       	cpc	r25, r1
     b5c:	d9 f0       	breq	.+54     	; 0xb94 <MDIO_stderrSetPortDirection+0x5e>
     b5e:	2c 81       	ldd	r18, Y+4	; 0x04
     b60:	3d 81       	ldd	r19, Y+5	; 0x05
     b62:	23 30       	cpi	r18, 0x03	; 3
     b64:	31 05       	cpc	r19, r1
     b66:	34 f4       	brge	.+12     	; 0xb74 <MDIO_stderrSetPortDirection+0x3e>
     b68:	8c 81       	ldd	r24, Y+4	; 0x04
     b6a:	9d 81       	ldd	r25, Y+5	; 0x05
     b6c:	81 30       	cpi	r24, 0x01	; 1
     b6e:	91 05       	cpc	r25, r1
     b70:	61 f0       	breq	.+24     	; 0xb8a <MDIO_stderrSetPortDirection+0x54>
     b72:	1f c0       	rjmp	.+62     	; 0xbb2 <MDIO_stderrSetPortDirection+0x7c>
     b74:	2c 81       	ldd	r18, Y+4	; 0x04
     b76:	3d 81       	ldd	r19, Y+5	; 0x05
     b78:	23 30       	cpi	r18, 0x03	; 3
     b7a:	31 05       	cpc	r19, r1
     b7c:	81 f0       	breq	.+32     	; 0xb9e <MDIO_stderrSetPortDirection+0x68>
     b7e:	8c 81       	ldd	r24, Y+4	; 0x04
     b80:	9d 81       	ldd	r25, Y+5	; 0x05
     b82:	84 30       	cpi	r24, 0x04	; 4
     b84:	91 05       	cpc	r25, r1
     b86:	81 f0       	breq	.+32     	; 0xba8 <MDIO_stderrSetPortDirection+0x72>
     b88:	14 c0       	rjmp	.+40     	; 0xbb2 <MDIO_stderrSetPortDirection+0x7c>
	{
		case MDIO_PORTA: GPIOA -> DDR = ARG_u8Direction; break;
     b8a:	e9 e3       	ldi	r30, 0x39	; 57
     b8c:	f0 e0       	ldi	r31, 0x00	; 0
     b8e:	8b 81       	ldd	r24, Y+3	; 0x03
     b90:	81 83       	std	Z+1, r24	; 0x01
     b92:	11 c0       	rjmp	.+34     	; 0xbb6 <MDIO_stderrSetPortDirection+0x80>
		case MDIO_PORTB: GPIOB -> DDR = ARG_u8Direction; break;
     b94:	e6 e3       	ldi	r30, 0x36	; 54
     b96:	f0 e0       	ldi	r31, 0x00	; 0
     b98:	8b 81       	ldd	r24, Y+3	; 0x03
     b9a:	81 83       	std	Z+1, r24	; 0x01
     b9c:	0c c0       	rjmp	.+24     	; 0xbb6 <MDIO_stderrSetPortDirection+0x80>
		case MDIO_PORTC: GPIOC -> DDR = ARG_u8Direction; break;
     b9e:	e3 e3       	ldi	r30, 0x33	; 51
     ba0:	f0 e0       	ldi	r31, 0x00	; 0
     ba2:	8b 81       	ldd	r24, Y+3	; 0x03
     ba4:	81 83       	std	Z+1, r24	; 0x01
     ba6:	07 c0       	rjmp	.+14     	; 0xbb6 <MDIO_stderrSetPortDirection+0x80>
		case MDIO_PORTD: GPIOD -> DDR = ARG_u8Direction; break;
     ba8:	e0 e3       	ldi	r30, 0x30	; 48
     baa:	f0 e0       	ldi	r31, 0x00	; 0
     bac:	8b 81       	ldd	r24, Y+3	; 0x03
     bae:	81 83       	std	Z+1, r24	; 0x01
     bb0:	02 c0       	rjmp	.+4      	; 0xbb6 <MDIO_stderrSetPortDirection+0x80>
		default: L_stderrError = E_NOK; break; /* Report an Error */
     bb2:	81 e0       	ldi	r24, 0x01	; 1
     bb4:	89 83       	std	Y+1, r24	; 0x01
	}
	return L_stderrError;
     bb6:	89 81       	ldd	r24, Y+1	; 0x01
}
     bb8:	0f 90       	pop	r0
     bba:	0f 90       	pop	r0
     bbc:	0f 90       	pop	r0
     bbe:	0f 90       	pop	r0
     bc0:	0f 90       	pop	r0
     bc2:	cf 91       	pop	r28
     bc4:	df 91       	pop	r29
     bc6:	08 95       	ret

00000bc8 <MDIO_stderrSetPortValue>:

STD_error_t MDIO_stderrSetPortValue(u8 ARG_u8Port, u8 ARG_u8Value)
{
     bc8:	df 93       	push	r29
     bca:	cf 93       	push	r28
     bcc:	00 d0       	rcall	.+0      	; 0xbce <MDIO_stderrSetPortValue+0x6>
     bce:	00 d0       	rcall	.+0      	; 0xbd0 <MDIO_stderrSetPortValue+0x8>
     bd0:	0f 92       	push	r0
     bd2:	cd b7       	in	r28, 0x3d	; 61
     bd4:	de b7       	in	r29, 0x3e	; 62
     bd6:	8a 83       	std	Y+2, r24	; 0x02
     bd8:	6b 83       	std	Y+3, r22	; 0x03
	STD_error_t L_stderrError = E_OK;
     bda:	19 82       	std	Y+1, r1	; 0x01
	switch(ARG_u8Port)
     bdc:	8a 81       	ldd	r24, Y+2	; 0x02
     bde:	28 2f       	mov	r18, r24
     be0:	30 e0       	ldi	r19, 0x00	; 0
     be2:	3d 83       	std	Y+5, r19	; 0x05
     be4:	2c 83       	std	Y+4, r18	; 0x04
     be6:	8c 81       	ldd	r24, Y+4	; 0x04
     be8:	9d 81       	ldd	r25, Y+5	; 0x05
     bea:	82 30       	cpi	r24, 0x02	; 2
     bec:	91 05       	cpc	r25, r1
     bee:	d9 f0       	breq	.+54     	; 0xc26 <MDIO_stderrSetPortValue+0x5e>
     bf0:	2c 81       	ldd	r18, Y+4	; 0x04
     bf2:	3d 81       	ldd	r19, Y+5	; 0x05
     bf4:	23 30       	cpi	r18, 0x03	; 3
     bf6:	31 05       	cpc	r19, r1
     bf8:	34 f4       	brge	.+12     	; 0xc06 <MDIO_stderrSetPortValue+0x3e>
     bfa:	8c 81       	ldd	r24, Y+4	; 0x04
     bfc:	9d 81       	ldd	r25, Y+5	; 0x05
     bfe:	81 30       	cpi	r24, 0x01	; 1
     c00:	91 05       	cpc	r25, r1
     c02:	61 f0       	breq	.+24     	; 0xc1c <MDIO_stderrSetPortValue+0x54>
     c04:	1f c0       	rjmp	.+62     	; 0xc44 <MDIO_stderrSetPortValue+0x7c>
     c06:	2c 81       	ldd	r18, Y+4	; 0x04
     c08:	3d 81       	ldd	r19, Y+5	; 0x05
     c0a:	23 30       	cpi	r18, 0x03	; 3
     c0c:	31 05       	cpc	r19, r1
     c0e:	81 f0       	breq	.+32     	; 0xc30 <MDIO_stderrSetPortValue+0x68>
     c10:	8c 81       	ldd	r24, Y+4	; 0x04
     c12:	9d 81       	ldd	r25, Y+5	; 0x05
     c14:	84 30       	cpi	r24, 0x04	; 4
     c16:	91 05       	cpc	r25, r1
     c18:	81 f0       	breq	.+32     	; 0xc3a <MDIO_stderrSetPortValue+0x72>
     c1a:	14 c0       	rjmp	.+40     	; 0xc44 <MDIO_stderrSetPortValue+0x7c>
	{
		case MDIO_PORTA: GPIOA -> PORT = ARG_u8Value; break;
     c1c:	e9 e3       	ldi	r30, 0x39	; 57
     c1e:	f0 e0       	ldi	r31, 0x00	; 0
     c20:	8b 81       	ldd	r24, Y+3	; 0x03
     c22:	82 83       	std	Z+2, r24	; 0x02
     c24:	11 c0       	rjmp	.+34     	; 0xc48 <MDIO_stderrSetPortValue+0x80>
		case MDIO_PORTB: GPIOB -> PORT = ARG_u8Value; break;
     c26:	e6 e3       	ldi	r30, 0x36	; 54
     c28:	f0 e0       	ldi	r31, 0x00	; 0
     c2a:	8b 81       	ldd	r24, Y+3	; 0x03
     c2c:	82 83       	std	Z+2, r24	; 0x02
     c2e:	0c c0       	rjmp	.+24     	; 0xc48 <MDIO_stderrSetPortValue+0x80>
		case MDIO_PORTC: GPIOC -> PORT = ARG_u8Value; break;
     c30:	e3 e3       	ldi	r30, 0x33	; 51
     c32:	f0 e0       	ldi	r31, 0x00	; 0
     c34:	8b 81       	ldd	r24, Y+3	; 0x03
     c36:	82 83       	std	Z+2, r24	; 0x02
     c38:	07 c0       	rjmp	.+14     	; 0xc48 <MDIO_stderrSetPortValue+0x80>
		case MDIO_PORTD: GPIOD -> PORT = ARG_u8Value; break;
     c3a:	e0 e3       	ldi	r30, 0x30	; 48
     c3c:	f0 e0       	ldi	r31, 0x00	; 0
     c3e:	8b 81       	ldd	r24, Y+3	; 0x03
     c40:	82 83       	std	Z+2, r24	; 0x02
     c42:	02 c0       	rjmp	.+4      	; 0xc48 <MDIO_stderrSetPortValue+0x80>
		default: L_stderrError = E_NOK; break; /* Report an Error */
     c44:	81 e0       	ldi	r24, 0x01	; 1
     c46:	89 83       	std	Y+1, r24	; 0x01
	}
	return L_stderrError;
     c48:	89 81       	ldd	r24, Y+1	; 0x01
}
     c4a:	0f 90       	pop	r0
     c4c:	0f 90       	pop	r0
     c4e:	0f 90       	pop	r0
     c50:	0f 90       	pop	r0
     c52:	0f 90       	pop	r0
     c54:	cf 91       	pop	r28
     c56:	df 91       	pop	r29
     c58:	08 95       	ret

00000c5a <MDIO_stderrGetPortValue>:

STD_error_t	MDIO_stderrGetPortValue(u8* ARG_u8pValue, u8 ARG_u8Port)
{
     c5a:	df 93       	push	r29
     c5c:	cf 93       	push	r28
     c5e:	00 d0       	rcall	.+0      	; 0xc60 <MDIO_stderrGetPortValue+0x6>
     c60:	00 d0       	rcall	.+0      	; 0xc62 <MDIO_stderrGetPortValue+0x8>
     c62:	00 d0       	rcall	.+0      	; 0xc64 <MDIO_stderrGetPortValue+0xa>
     c64:	cd b7       	in	r28, 0x3d	; 61
     c66:	de b7       	in	r29, 0x3e	; 62
     c68:	9b 83       	std	Y+3, r25	; 0x03
     c6a:	8a 83       	std	Y+2, r24	; 0x02
     c6c:	6c 83       	std	Y+4, r22	; 0x04
	STD_error_t L_stderrError = E_OK;
     c6e:	19 82       	std	Y+1, r1	; 0x01
	switch(ARG_u8Port)
     c70:	8c 81       	ldd	r24, Y+4	; 0x04
     c72:	28 2f       	mov	r18, r24
     c74:	30 e0       	ldi	r19, 0x00	; 0
     c76:	3e 83       	std	Y+6, r19	; 0x06
     c78:	2d 83       	std	Y+5, r18	; 0x05
     c7a:	8d 81       	ldd	r24, Y+5	; 0x05
     c7c:	9e 81       	ldd	r25, Y+6	; 0x06
     c7e:	82 30       	cpi	r24, 0x02	; 2
     c80:	91 05       	cpc	r25, r1
     c82:	e9 f0       	breq	.+58     	; 0xcbe <MDIO_stderrGetPortValue+0x64>
     c84:	2d 81       	ldd	r18, Y+5	; 0x05
     c86:	3e 81       	ldd	r19, Y+6	; 0x06
     c88:	23 30       	cpi	r18, 0x03	; 3
     c8a:	31 05       	cpc	r19, r1
     c8c:	34 f4       	brge	.+12     	; 0xc9a <MDIO_stderrGetPortValue+0x40>
     c8e:	8d 81       	ldd	r24, Y+5	; 0x05
     c90:	9e 81       	ldd	r25, Y+6	; 0x06
     c92:	81 30       	cpi	r24, 0x01	; 1
     c94:	91 05       	cpc	r25, r1
     c96:	61 f0       	breq	.+24     	; 0xcb0 <MDIO_stderrGetPortValue+0x56>
     c98:	27 c0       	rjmp	.+78     	; 0xce8 <MDIO_stderrGetPortValue+0x8e>
     c9a:	2d 81       	ldd	r18, Y+5	; 0x05
     c9c:	3e 81       	ldd	r19, Y+6	; 0x06
     c9e:	23 30       	cpi	r18, 0x03	; 3
     ca0:	31 05       	cpc	r19, r1
     ca2:	a1 f0       	breq	.+40     	; 0xccc <MDIO_stderrGetPortValue+0x72>
     ca4:	8d 81       	ldd	r24, Y+5	; 0x05
     ca6:	9e 81       	ldd	r25, Y+6	; 0x06
     ca8:	84 30       	cpi	r24, 0x04	; 4
     caa:	91 05       	cpc	r25, r1
     cac:	b1 f0       	breq	.+44     	; 0xcda <MDIO_stderrGetPortValue+0x80>
     cae:	1c c0       	rjmp	.+56     	; 0xce8 <MDIO_stderrGetPortValue+0x8e>
	{
		case MDIO_PORTA: *ARG_u8pValue = GPIOA -> PIN; break;
     cb0:	e9 e3       	ldi	r30, 0x39	; 57
     cb2:	f0 e0       	ldi	r31, 0x00	; 0
     cb4:	80 81       	ld	r24, Z
     cb6:	ea 81       	ldd	r30, Y+2	; 0x02
     cb8:	fb 81       	ldd	r31, Y+3	; 0x03
     cba:	80 83       	st	Z, r24
     cbc:	17 c0       	rjmp	.+46     	; 0xcec <MDIO_stderrGetPortValue+0x92>
        case MDIO_PORTB: *ARG_u8pValue = GPIOB -> PIN; break;
     cbe:	e6 e3       	ldi	r30, 0x36	; 54
     cc0:	f0 e0       	ldi	r31, 0x00	; 0
     cc2:	80 81       	ld	r24, Z
     cc4:	ea 81       	ldd	r30, Y+2	; 0x02
     cc6:	fb 81       	ldd	r31, Y+3	; 0x03
     cc8:	80 83       	st	Z, r24
     cca:	10 c0       	rjmp	.+32     	; 0xcec <MDIO_stderrGetPortValue+0x92>
        case MDIO_PORTC: *ARG_u8pValue = GPIOC -> PIN; break;
     ccc:	e3 e3       	ldi	r30, 0x33	; 51
     cce:	f0 e0       	ldi	r31, 0x00	; 0
     cd0:	80 81       	ld	r24, Z
     cd2:	ea 81       	ldd	r30, Y+2	; 0x02
     cd4:	fb 81       	ldd	r31, Y+3	; 0x03
     cd6:	80 83       	st	Z, r24
     cd8:	09 c0       	rjmp	.+18     	; 0xcec <MDIO_stderrGetPortValue+0x92>
        case MDIO_PORTD: *ARG_u8pValue = GPIOD -> PIN; break;
     cda:	e0 e3       	ldi	r30, 0x30	; 48
     cdc:	f0 e0       	ldi	r31, 0x00	; 0
     cde:	80 81       	ld	r24, Z
     ce0:	ea 81       	ldd	r30, Y+2	; 0x02
     ce2:	fb 81       	ldd	r31, Y+3	; 0x03
     ce4:	80 83       	st	Z, r24
     ce6:	02 c0       	rjmp	.+4      	; 0xcec <MDIO_stderrGetPortValue+0x92>
        default: L_stderrError = E_NOK; break; /* Report an Error */
     ce8:	81 e0       	ldi	r24, 0x01	; 1
     cea:	89 83       	std	Y+1, r24	; 0x01
	}
	return L_stderrError;
     cec:	89 81       	ldd	r24, Y+1	; 0x01
}
     cee:	26 96       	adiw	r28, 0x06	; 6
     cf0:	0f b6       	in	r0, 0x3f	; 63
     cf2:	f8 94       	cli
     cf4:	de bf       	out	0x3e, r29	; 62
     cf6:	0f be       	out	0x3f, r0	; 63
     cf8:	cd bf       	out	0x3d, r28	; 61
     cfa:	cf 91       	pop	r28
     cfc:	df 91       	pop	r29
     cfe:	08 95       	ret

00000d00 <MDIO_stderrSetPinDirection>:

STD_error_t MDIO_stderrSetPinDirection(u8 ARG_u8Port, u8 ARG_u8Pin, u8 ARG_u8Direction)
{
     d00:	df 93       	push	r29
     d02:	cf 93       	push	r28
     d04:	cd b7       	in	r28, 0x3d	; 61
     d06:	de b7       	in	r29, 0x3e	; 62
     d08:	2a 97       	sbiw	r28, 0x0a	; 10
     d0a:	0f b6       	in	r0, 0x3f	; 63
     d0c:	f8 94       	cli
     d0e:	de bf       	out	0x3e, r29	; 62
     d10:	0f be       	out	0x3f, r0	; 63
     d12:	cd bf       	out	0x3d, r28	; 61
     d14:	8a 83       	std	Y+2, r24	; 0x02
     d16:	6b 83       	std	Y+3, r22	; 0x03
     d18:	4c 83       	std	Y+4, r20	; 0x04
	STD_error_t L_stderrError = E_OK;
     d1a:	19 82       	std	Y+1, r1	; 0x01
	if((ARG_u8Pin>=MDIO_PIN0) && (ARG_u8Pin<=MDIO_PIN7))
     d1c:	8b 81       	ldd	r24, Y+3	; 0x03
     d1e:	88 30       	cpi	r24, 0x08	; 8
     d20:	08 f0       	brcs	.+2      	; 0xd24 <MDIO_stderrSetPinDirection+0x24>
     d22:	d9 c1       	rjmp	.+946    	; 0x10d6 <MDIO_stderrSetPinDirection+0x3d6>
	{
		if(MDIO_OUTPUT == ARG_u8Direction)
     d24:	8c 81       	ldd	r24, Y+4	; 0x04
     d26:	81 30       	cpi	r24, 0x01	; 1
     d28:	09 f0       	breq	.+2      	; 0xd2c <MDIO_stderrSetPinDirection+0x2c>
     d2a:	7c c0       	rjmp	.+248    	; 0xe24 <MDIO_stderrSetPinDirection+0x124>
		{
			switch(ARG_u8Port)
     d2c:	8a 81       	ldd	r24, Y+2	; 0x02
     d2e:	28 2f       	mov	r18, r24
     d30:	30 e0       	ldi	r19, 0x00	; 0
     d32:	3a 87       	std	Y+10, r19	; 0x0a
     d34:	29 87       	std	Y+9, r18	; 0x09
     d36:	89 85       	ldd	r24, Y+9	; 0x09
     d38:	9a 85       	ldd	r25, Y+10	; 0x0a
     d3a:	82 30       	cpi	r24, 0x02	; 2
     d3c:	91 05       	cpc	r25, r1
     d3e:	69 f1       	breq	.+90     	; 0xd9a <MDIO_stderrSetPinDirection+0x9a>
     d40:	29 85       	ldd	r18, Y+9	; 0x09
     d42:	3a 85       	ldd	r19, Y+10	; 0x0a
     d44:	23 30       	cpi	r18, 0x03	; 3
     d46:	31 05       	cpc	r19, r1
     d48:	34 f4       	brge	.+12     	; 0xd56 <MDIO_stderrSetPinDirection+0x56>
     d4a:	89 85       	ldd	r24, Y+9	; 0x09
     d4c:	9a 85       	ldd	r25, Y+10	; 0x0a
     d4e:	81 30       	cpi	r24, 0x01	; 1
     d50:	91 05       	cpc	r25, r1
     d52:	69 f0       	breq	.+26     	; 0xd6e <MDIO_stderrSetPinDirection+0x6e>
     d54:	64 c0       	rjmp	.+200    	; 0xe1e <MDIO_stderrSetPinDirection+0x11e>
     d56:	29 85       	ldd	r18, Y+9	; 0x09
     d58:	3a 85       	ldd	r19, Y+10	; 0x0a
     d5a:	23 30       	cpi	r18, 0x03	; 3
     d5c:	31 05       	cpc	r19, r1
     d5e:	99 f1       	breq	.+102    	; 0xdc6 <MDIO_stderrSetPinDirection+0xc6>
     d60:	89 85       	ldd	r24, Y+9	; 0x09
     d62:	9a 85       	ldd	r25, Y+10	; 0x0a
     d64:	84 30       	cpi	r24, 0x04	; 4
     d66:	91 05       	cpc	r25, r1
     d68:	09 f4       	brne	.+2      	; 0xd6c <MDIO_stderrSetPinDirection+0x6c>
     d6a:	43 c0       	rjmp	.+134    	; 0xdf2 <MDIO_stderrSetPinDirection+0xf2>
     d6c:	58 c0       	rjmp	.+176    	; 0xe1e <MDIO_stderrSetPinDirection+0x11e>
			{
				case MDIO_PORTA: SET_BIT(GPIOA -> DDR, ARG_u8Pin); break;
     d6e:	a9 e3       	ldi	r26, 0x39	; 57
     d70:	b0 e0       	ldi	r27, 0x00	; 0
     d72:	e9 e3       	ldi	r30, 0x39	; 57
     d74:	f0 e0       	ldi	r31, 0x00	; 0
     d76:	81 81       	ldd	r24, Z+1	; 0x01
     d78:	48 2f       	mov	r20, r24
     d7a:	8b 81       	ldd	r24, Y+3	; 0x03
     d7c:	28 2f       	mov	r18, r24
     d7e:	30 e0       	ldi	r19, 0x00	; 0
     d80:	81 e0       	ldi	r24, 0x01	; 1
     d82:	90 e0       	ldi	r25, 0x00	; 0
     d84:	02 2e       	mov	r0, r18
     d86:	02 c0       	rjmp	.+4      	; 0xd8c <MDIO_stderrSetPinDirection+0x8c>
     d88:	88 0f       	add	r24, r24
     d8a:	99 1f       	adc	r25, r25
     d8c:	0a 94       	dec	r0
     d8e:	e2 f7       	brpl	.-8      	; 0xd88 <MDIO_stderrSetPinDirection+0x88>
     d90:	84 2b       	or	r24, r20
     d92:	11 96       	adiw	r26, 0x01	; 1
     d94:	8c 93       	st	X, r24
     d96:	11 97       	sbiw	r26, 0x01	; 1
     d98:	a0 c1       	rjmp	.+832    	; 0x10da <MDIO_stderrSetPinDirection+0x3da>
				case MDIO_PORTB: SET_BIT(GPIOB -> DDR, ARG_u8Pin); break;
     d9a:	a6 e3       	ldi	r26, 0x36	; 54
     d9c:	b0 e0       	ldi	r27, 0x00	; 0
     d9e:	e6 e3       	ldi	r30, 0x36	; 54
     da0:	f0 e0       	ldi	r31, 0x00	; 0
     da2:	81 81       	ldd	r24, Z+1	; 0x01
     da4:	48 2f       	mov	r20, r24
     da6:	8b 81       	ldd	r24, Y+3	; 0x03
     da8:	28 2f       	mov	r18, r24
     daa:	30 e0       	ldi	r19, 0x00	; 0
     dac:	81 e0       	ldi	r24, 0x01	; 1
     dae:	90 e0       	ldi	r25, 0x00	; 0
     db0:	02 2e       	mov	r0, r18
     db2:	02 c0       	rjmp	.+4      	; 0xdb8 <MDIO_stderrSetPinDirection+0xb8>
     db4:	88 0f       	add	r24, r24
     db6:	99 1f       	adc	r25, r25
     db8:	0a 94       	dec	r0
     dba:	e2 f7       	brpl	.-8      	; 0xdb4 <MDIO_stderrSetPinDirection+0xb4>
     dbc:	84 2b       	or	r24, r20
     dbe:	11 96       	adiw	r26, 0x01	; 1
     dc0:	8c 93       	st	X, r24
     dc2:	11 97       	sbiw	r26, 0x01	; 1
     dc4:	8a c1       	rjmp	.+788    	; 0x10da <MDIO_stderrSetPinDirection+0x3da>
				case MDIO_PORTC: SET_BIT(GPIOC -> DDR, ARG_u8Pin); break;
     dc6:	a3 e3       	ldi	r26, 0x33	; 51
     dc8:	b0 e0       	ldi	r27, 0x00	; 0
     dca:	e3 e3       	ldi	r30, 0x33	; 51
     dcc:	f0 e0       	ldi	r31, 0x00	; 0
     dce:	81 81       	ldd	r24, Z+1	; 0x01
     dd0:	48 2f       	mov	r20, r24
     dd2:	8b 81       	ldd	r24, Y+3	; 0x03
     dd4:	28 2f       	mov	r18, r24
     dd6:	30 e0       	ldi	r19, 0x00	; 0
     dd8:	81 e0       	ldi	r24, 0x01	; 1
     dda:	90 e0       	ldi	r25, 0x00	; 0
     ddc:	02 2e       	mov	r0, r18
     dde:	02 c0       	rjmp	.+4      	; 0xde4 <MDIO_stderrSetPinDirection+0xe4>
     de0:	88 0f       	add	r24, r24
     de2:	99 1f       	adc	r25, r25
     de4:	0a 94       	dec	r0
     de6:	e2 f7       	brpl	.-8      	; 0xde0 <MDIO_stderrSetPinDirection+0xe0>
     de8:	84 2b       	or	r24, r20
     dea:	11 96       	adiw	r26, 0x01	; 1
     dec:	8c 93       	st	X, r24
     dee:	11 97       	sbiw	r26, 0x01	; 1
     df0:	74 c1       	rjmp	.+744    	; 0x10da <MDIO_stderrSetPinDirection+0x3da>
				case MDIO_PORTD: SET_BIT(GPIOD -> DDR, ARG_u8Pin); break;
     df2:	a0 e3       	ldi	r26, 0x30	; 48
     df4:	b0 e0       	ldi	r27, 0x00	; 0
     df6:	e0 e3       	ldi	r30, 0x30	; 48
     df8:	f0 e0       	ldi	r31, 0x00	; 0
     dfa:	81 81       	ldd	r24, Z+1	; 0x01
     dfc:	48 2f       	mov	r20, r24
     dfe:	8b 81       	ldd	r24, Y+3	; 0x03
     e00:	28 2f       	mov	r18, r24
     e02:	30 e0       	ldi	r19, 0x00	; 0
     e04:	81 e0       	ldi	r24, 0x01	; 1
     e06:	90 e0       	ldi	r25, 0x00	; 0
     e08:	02 2e       	mov	r0, r18
     e0a:	02 c0       	rjmp	.+4      	; 0xe10 <MDIO_stderrSetPinDirection+0x110>
     e0c:	88 0f       	add	r24, r24
     e0e:	99 1f       	adc	r25, r25
     e10:	0a 94       	dec	r0
     e12:	e2 f7       	brpl	.-8      	; 0xe0c <MDIO_stderrSetPinDirection+0x10c>
     e14:	84 2b       	or	r24, r20
     e16:	11 96       	adiw	r26, 0x01	; 1
     e18:	8c 93       	st	X, r24
     e1a:	11 97       	sbiw	r26, 0x01	; 1
     e1c:	5e c1       	rjmp	.+700    	; 0x10da <MDIO_stderrSetPinDirection+0x3da>
				default: L_stderrError = E_NOK; break; /* Report an Error */
     e1e:	81 e0       	ldi	r24, 0x01	; 1
     e20:	89 83       	std	Y+1, r24	; 0x01
     e22:	5b c1       	rjmp	.+694    	; 0x10da <MDIO_stderrSetPinDirection+0x3da>
			}
		}
		else if(MDIO_INPUT == ARG_u8Direction)
     e24:	8c 81       	ldd	r24, Y+4	; 0x04
     e26:	82 30       	cpi	r24, 0x02	; 2
     e28:	09 f0       	breq	.+2      	; 0xe2c <MDIO_stderrSetPinDirection+0x12c>
     e2a:	80 c0       	rjmp	.+256    	; 0xf2c <MDIO_stderrSetPinDirection+0x22c>
		{
			switch(ARG_u8Port)
     e2c:	8a 81       	ldd	r24, Y+2	; 0x02
     e2e:	28 2f       	mov	r18, r24
     e30:	30 e0       	ldi	r19, 0x00	; 0
     e32:	38 87       	std	Y+8, r19	; 0x08
     e34:	2f 83       	std	Y+7, r18	; 0x07
     e36:	8f 81       	ldd	r24, Y+7	; 0x07
     e38:	98 85       	ldd	r25, Y+8	; 0x08
     e3a:	82 30       	cpi	r24, 0x02	; 2
     e3c:	91 05       	cpc	r25, r1
     e3e:	71 f1       	breq	.+92     	; 0xe9c <MDIO_stderrSetPinDirection+0x19c>
     e40:	2f 81       	ldd	r18, Y+7	; 0x07
     e42:	38 85       	ldd	r19, Y+8	; 0x08
     e44:	23 30       	cpi	r18, 0x03	; 3
     e46:	31 05       	cpc	r19, r1
     e48:	34 f4       	brge	.+12     	; 0xe56 <MDIO_stderrSetPinDirection+0x156>
     e4a:	8f 81       	ldd	r24, Y+7	; 0x07
     e4c:	98 85       	ldd	r25, Y+8	; 0x08
     e4e:	81 30       	cpi	r24, 0x01	; 1
     e50:	91 05       	cpc	r25, r1
     e52:	69 f0       	breq	.+26     	; 0xe6e <MDIO_stderrSetPinDirection+0x16e>
     e54:	68 c0       	rjmp	.+208    	; 0xf26 <MDIO_stderrSetPinDirection+0x226>
     e56:	2f 81       	ldd	r18, Y+7	; 0x07
     e58:	38 85       	ldd	r19, Y+8	; 0x08
     e5a:	23 30       	cpi	r18, 0x03	; 3
     e5c:	31 05       	cpc	r19, r1
     e5e:	a9 f1       	breq	.+106    	; 0xeca <MDIO_stderrSetPinDirection+0x1ca>
     e60:	8f 81       	ldd	r24, Y+7	; 0x07
     e62:	98 85       	ldd	r25, Y+8	; 0x08
     e64:	84 30       	cpi	r24, 0x04	; 4
     e66:	91 05       	cpc	r25, r1
     e68:	09 f4       	brne	.+2      	; 0xe6c <MDIO_stderrSetPinDirection+0x16c>
     e6a:	46 c0       	rjmp	.+140    	; 0xef8 <MDIO_stderrSetPinDirection+0x1f8>
     e6c:	5c c0       	rjmp	.+184    	; 0xf26 <MDIO_stderrSetPinDirection+0x226>
			{
				case MDIO_PORTA: CLEAR_BIT(GPIOA -> DDR, ARG_u8Pin); break;
     e6e:	a9 e3       	ldi	r26, 0x39	; 57
     e70:	b0 e0       	ldi	r27, 0x00	; 0
     e72:	e9 e3       	ldi	r30, 0x39	; 57
     e74:	f0 e0       	ldi	r31, 0x00	; 0
     e76:	81 81       	ldd	r24, Z+1	; 0x01
     e78:	48 2f       	mov	r20, r24
     e7a:	8b 81       	ldd	r24, Y+3	; 0x03
     e7c:	28 2f       	mov	r18, r24
     e7e:	30 e0       	ldi	r19, 0x00	; 0
     e80:	81 e0       	ldi	r24, 0x01	; 1
     e82:	90 e0       	ldi	r25, 0x00	; 0
     e84:	02 2e       	mov	r0, r18
     e86:	02 c0       	rjmp	.+4      	; 0xe8c <MDIO_stderrSetPinDirection+0x18c>
     e88:	88 0f       	add	r24, r24
     e8a:	99 1f       	adc	r25, r25
     e8c:	0a 94       	dec	r0
     e8e:	e2 f7       	brpl	.-8      	; 0xe88 <MDIO_stderrSetPinDirection+0x188>
     e90:	80 95       	com	r24
     e92:	84 23       	and	r24, r20
     e94:	11 96       	adiw	r26, 0x01	; 1
     e96:	8c 93       	st	X, r24
     e98:	11 97       	sbiw	r26, 0x01	; 1
     e9a:	1f c1       	rjmp	.+574    	; 0x10da <MDIO_stderrSetPinDirection+0x3da>
				case MDIO_PORTB: CLEAR_BIT(GPIOB -> DDR, ARG_u8Pin); break;
     e9c:	a6 e3       	ldi	r26, 0x36	; 54
     e9e:	b0 e0       	ldi	r27, 0x00	; 0
     ea0:	e6 e3       	ldi	r30, 0x36	; 54
     ea2:	f0 e0       	ldi	r31, 0x00	; 0
     ea4:	81 81       	ldd	r24, Z+1	; 0x01
     ea6:	48 2f       	mov	r20, r24
     ea8:	8b 81       	ldd	r24, Y+3	; 0x03
     eaa:	28 2f       	mov	r18, r24
     eac:	30 e0       	ldi	r19, 0x00	; 0
     eae:	81 e0       	ldi	r24, 0x01	; 1
     eb0:	90 e0       	ldi	r25, 0x00	; 0
     eb2:	02 2e       	mov	r0, r18
     eb4:	02 c0       	rjmp	.+4      	; 0xeba <MDIO_stderrSetPinDirection+0x1ba>
     eb6:	88 0f       	add	r24, r24
     eb8:	99 1f       	adc	r25, r25
     eba:	0a 94       	dec	r0
     ebc:	e2 f7       	brpl	.-8      	; 0xeb6 <MDIO_stderrSetPinDirection+0x1b6>
     ebe:	80 95       	com	r24
     ec0:	84 23       	and	r24, r20
     ec2:	11 96       	adiw	r26, 0x01	; 1
     ec4:	8c 93       	st	X, r24
     ec6:	11 97       	sbiw	r26, 0x01	; 1
     ec8:	08 c1       	rjmp	.+528    	; 0x10da <MDIO_stderrSetPinDirection+0x3da>
				case MDIO_PORTC: CLEAR_BIT(GPIOC -> DDR, ARG_u8Pin); break;
     eca:	a3 e3       	ldi	r26, 0x33	; 51
     ecc:	b0 e0       	ldi	r27, 0x00	; 0
     ece:	e3 e3       	ldi	r30, 0x33	; 51
     ed0:	f0 e0       	ldi	r31, 0x00	; 0
     ed2:	81 81       	ldd	r24, Z+1	; 0x01
     ed4:	48 2f       	mov	r20, r24
     ed6:	8b 81       	ldd	r24, Y+3	; 0x03
     ed8:	28 2f       	mov	r18, r24
     eda:	30 e0       	ldi	r19, 0x00	; 0
     edc:	81 e0       	ldi	r24, 0x01	; 1
     ede:	90 e0       	ldi	r25, 0x00	; 0
     ee0:	02 2e       	mov	r0, r18
     ee2:	02 c0       	rjmp	.+4      	; 0xee8 <MDIO_stderrSetPinDirection+0x1e8>
     ee4:	88 0f       	add	r24, r24
     ee6:	99 1f       	adc	r25, r25
     ee8:	0a 94       	dec	r0
     eea:	e2 f7       	brpl	.-8      	; 0xee4 <MDIO_stderrSetPinDirection+0x1e4>
     eec:	80 95       	com	r24
     eee:	84 23       	and	r24, r20
     ef0:	11 96       	adiw	r26, 0x01	; 1
     ef2:	8c 93       	st	X, r24
     ef4:	11 97       	sbiw	r26, 0x01	; 1
     ef6:	f1 c0       	rjmp	.+482    	; 0x10da <MDIO_stderrSetPinDirection+0x3da>
				case MDIO_PORTD: CLEAR_BIT(GPIOD -> DDR, ARG_u8Pin); break;
     ef8:	a0 e3       	ldi	r26, 0x30	; 48
     efa:	b0 e0       	ldi	r27, 0x00	; 0
     efc:	e0 e3       	ldi	r30, 0x30	; 48
     efe:	f0 e0       	ldi	r31, 0x00	; 0
     f00:	81 81       	ldd	r24, Z+1	; 0x01
     f02:	48 2f       	mov	r20, r24
     f04:	8b 81       	ldd	r24, Y+3	; 0x03
     f06:	28 2f       	mov	r18, r24
     f08:	30 e0       	ldi	r19, 0x00	; 0
     f0a:	81 e0       	ldi	r24, 0x01	; 1
     f0c:	90 e0       	ldi	r25, 0x00	; 0
     f0e:	02 2e       	mov	r0, r18
     f10:	02 c0       	rjmp	.+4      	; 0xf16 <MDIO_stderrSetPinDirection+0x216>
     f12:	88 0f       	add	r24, r24
     f14:	99 1f       	adc	r25, r25
     f16:	0a 94       	dec	r0
     f18:	e2 f7       	brpl	.-8      	; 0xf12 <MDIO_stderrSetPinDirection+0x212>
     f1a:	80 95       	com	r24
     f1c:	84 23       	and	r24, r20
     f1e:	11 96       	adiw	r26, 0x01	; 1
     f20:	8c 93       	st	X, r24
     f22:	11 97       	sbiw	r26, 0x01	; 1
     f24:	da c0       	rjmp	.+436    	; 0x10da <MDIO_stderrSetPinDirection+0x3da>
				default: L_stderrError = E_NOK; break; /* Report an Error */
     f26:	81 e0       	ldi	r24, 0x01	; 1
     f28:	89 83       	std	Y+1, r24	; 0x01
     f2a:	d7 c0       	rjmp	.+430    	; 0x10da <MDIO_stderrSetPinDirection+0x3da>
			}
		}
		else if(MDIO_INPUT_PULLUP == ARG_u8Direction)
     f2c:	8c 81       	ldd	r24, Y+4	; 0x04
     f2e:	83 30       	cpi	r24, 0x03	; 3
     f30:	09 f0       	breq	.+2      	; 0xf34 <MDIO_stderrSetPinDirection+0x234>
     f32:	ce c0       	rjmp	.+412    	; 0x10d0 <MDIO_stderrSetPinDirection+0x3d0>
		{
			switch(ARG_u8Port)
     f34:	8a 81       	ldd	r24, Y+2	; 0x02
     f36:	28 2f       	mov	r18, r24
     f38:	30 e0       	ldi	r19, 0x00	; 0
     f3a:	3e 83       	std	Y+6, r19	; 0x06
     f3c:	2d 83       	std	Y+5, r18	; 0x05
     f3e:	8d 81       	ldd	r24, Y+5	; 0x05
     f40:	9e 81       	ldd	r25, Y+6	; 0x06
     f42:	82 30       	cpi	r24, 0x02	; 2
     f44:	91 05       	cpc	r25, r1
     f46:	09 f4       	brne	.+2      	; 0xf4a <MDIO_stderrSetPinDirection+0x24a>
     f48:	42 c0       	rjmp	.+132    	; 0xfce <MDIO_stderrSetPinDirection+0x2ce>
     f4a:	2d 81       	ldd	r18, Y+5	; 0x05
     f4c:	3e 81       	ldd	r19, Y+6	; 0x06
     f4e:	23 30       	cpi	r18, 0x03	; 3
     f50:	31 05       	cpc	r19, r1
     f52:	34 f4       	brge	.+12     	; 0xf60 <MDIO_stderrSetPinDirection+0x260>
     f54:	8d 81       	ldd	r24, Y+5	; 0x05
     f56:	9e 81       	ldd	r25, Y+6	; 0x06
     f58:	81 30       	cpi	r24, 0x01	; 1
     f5a:	91 05       	cpc	r25, r1
     f5c:	71 f0       	breq	.+28     	; 0xf7a <MDIO_stderrSetPinDirection+0x27a>
     f5e:	b5 c0       	rjmp	.+362    	; 0x10ca <MDIO_stderrSetPinDirection+0x3ca>
     f60:	2d 81       	ldd	r18, Y+5	; 0x05
     f62:	3e 81       	ldd	r19, Y+6	; 0x06
     f64:	23 30       	cpi	r18, 0x03	; 3
     f66:	31 05       	cpc	r19, r1
     f68:	09 f4       	brne	.+2      	; 0xf6c <MDIO_stderrSetPinDirection+0x26c>
     f6a:	5b c0       	rjmp	.+182    	; 0x1022 <MDIO_stderrSetPinDirection+0x322>
     f6c:	8d 81       	ldd	r24, Y+5	; 0x05
     f6e:	9e 81       	ldd	r25, Y+6	; 0x06
     f70:	84 30       	cpi	r24, 0x04	; 4
     f72:	91 05       	cpc	r25, r1
     f74:	09 f4       	brne	.+2      	; 0xf78 <MDIO_stderrSetPinDirection+0x278>
     f76:	7f c0       	rjmp	.+254    	; 0x1076 <MDIO_stderrSetPinDirection+0x376>
     f78:	a8 c0       	rjmp	.+336    	; 0x10ca <MDIO_stderrSetPinDirection+0x3ca>
			{
				case MDIO_PORTA: CLEAR_BIT(GPIOA -> DDR, ARG_u8Pin); SET_BIT(GPIOA -> PORT, ARG_u8Pin); break;
     f7a:	a9 e3       	ldi	r26, 0x39	; 57
     f7c:	b0 e0       	ldi	r27, 0x00	; 0
     f7e:	e9 e3       	ldi	r30, 0x39	; 57
     f80:	f0 e0       	ldi	r31, 0x00	; 0
     f82:	81 81       	ldd	r24, Z+1	; 0x01
     f84:	48 2f       	mov	r20, r24
     f86:	8b 81       	ldd	r24, Y+3	; 0x03
     f88:	28 2f       	mov	r18, r24
     f8a:	30 e0       	ldi	r19, 0x00	; 0
     f8c:	81 e0       	ldi	r24, 0x01	; 1
     f8e:	90 e0       	ldi	r25, 0x00	; 0
     f90:	02 c0       	rjmp	.+4      	; 0xf96 <MDIO_stderrSetPinDirection+0x296>
     f92:	88 0f       	add	r24, r24
     f94:	99 1f       	adc	r25, r25
     f96:	2a 95       	dec	r18
     f98:	e2 f7       	brpl	.-8      	; 0xf92 <MDIO_stderrSetPinDirection+0x292>
     f9a:	80 95       	com	r24
     f9c:	84 23       	and	r24, r20
     f9e:	11 96       	adiw	r26, 0x01	; 1
     fa0:	8c 93       	st	X, r24
     fa2:	a9 e3       	ldi	r26, 0x39	; 57
     fa4:	b0 e0       	ldi	r27, 0x00	; 0
     fa6:	e9 e3       	ldi	r30, 0x39	; 57
     fa8:	f0 e0       	ldi	r31, 0x00	; 0
     faa:	82 81       	ldd	r24, Z+2	; 0x02
     fac:	48 2f       	mov	r20, r24
     fae:	8b 81       	ldd	r24, Y+3	; 0x03
     fb0:	28 2f       	mov	r18, r24
     fb2:	30 e0       	ldi	r19, 0x00	; 0
     fb4:	81 e0       	ldi	r24, 0x01	; 1
     fb6:	90 e0       	ldi	r25, 0x00	; 0
     fb8:	02 2e       	mov	r0, r18
     fba:	02 c0       	rjmp	.+4      	; 0xfc0 <MDIO_stderrSetPinDirection+0x2c0>
     fbc:	88 0f       	add	r24, r24
     fbe:	99 1f       	adc	r25, r25
     fc0:	0a 94       	dec	r0
     fc2:	e2 f7       	brpl	.-8      	; 0xfbc <MDIO_stderrSetPinDirection+0x2bc>
     fc4:	84 2b       	or	r24, r20
     fc6:	12 96       	adiw	r26, 0x02	; 2
     fc8:	8c 93       	st	X, r24
     fca:	12 97       	sbiw	r26, 0x02	; 2
     fcc:	86 c0       	rjmp	.+268    	; 0x10da <MDIO_stderrSetPinDirection+0x3da>
				case MDIO_PORTB: CLEAR_BIT(GPIOB -> DDR, ARG_u8Pin); SET_BIT(GPIOB -> PORT, ARG_u8Pin); break;
     fce:	a6 e3       	ldi	r26, 0x36	; 54
     fd0:	b0 e0       	ldi	r27, 0x00	; 0
     fd2:	e6 e3       	ldi	r30, 0x36	; 54
     fd4:	f0 e0       	ldi	r31, 0x00	; 0
     fd6:	81 81       	ldd	r24, Z+1	; 0x01
     fd8:	48 2f       	mov	r20, r24
     fda:	8b 81       	ldd	r24, Y+3	; 0x03
     fdc:	28 2f       	mov	r18, r24
     fde:	30 e0       	ldi	r19, 0x00	; 0
     fe0:	81 e0       	ldi	r24, 0x01	; 1
     fe2:	90 e0       	ldi	r25, 0x00	; 0
     fe4:	02 c0       	rjmp	.+4      	; 0xfea <MDIO_stderrSetPinDirection+0x2ea>
     fe6:	88 0f       	add	r24, r24
     fe8:	99 1f       	adc	r25, r25
     fea:	2a 95       	dec	r18
     fec:	e2 f7       	brpl	.-8      	; 0xfe6 <MDIO_stderrSetPinDirection+0x2e6>
     fee:	80 95       	com	r24
     ff0:	84 23       	and	r24, r20
     ff2:	11 96       	adiw	r26, 0x01	; 1
     ff4:	8c 93       	st	X, r24
     ff6:	a6 e3       	ldi	r26, 0x36	; 54
     ff8:	b0 e0       	ldi	r27, 0x00	; 0
     ffa:	e6 e3       	ldi	r30, 0x36	; 54
     ffc:	f0 e0       	ldi	r31, 0x00	; 0
     ffe:	82 81       	ldd	r24, Z+2	; 0x02
    1000:	48 2f       	mov	r20, r24
    1002:	8b 81       	ldd	r24, Y+3	; 0x03
    1004:	28 2f       	mov	r18, r24
    1006:	30 e0       	ldi	r19, 0x00	; 0
    1008:	81 e0       	ldi	r24, 0x01	; 1
    100a:	90 e0       	ldi	r25, 0x00	; 0
    100c:	02 2e       	mov	r0, r18
    100e:	02 c0       	rjmp	.+4      	; 0x1014 <MDIO_stderrSetPinDirection+0x314>
    1010:	88 0f       	add	r24, r24
    1012:	99 1f       	adc	r25, r25
    1014:	0a 94       	dec	r0
    1016:	e2 f7       	brpl	.-8      	; 0x1010 <MDIO_stderrSetPinDirection+0x310>
    1018:	84 2b       	or	r24, r20
    101a:	12 96       	adiw	r26, 0x02	; 2
    101c:	8c 93       	st	X, r24
    101e:	12 97       	sbiw	r26, 0x02	; 2
    1020:	5c c0       	rjmp	.+184    	; 0x10da <MDIO_stderrSetPinDirection+0x3da>
				case MDIO_PORTC: CLEAR_BIT(GPIOC -> DDR, ARG_u8Pin); SET_BIT(GPIOC -> PORT, ARG_u8Pin); break;
    1022:	a3 e3       	ldi	r26, 0x33	; 51
    1024:	b0 e0       	ldi	r27, 0x00	; 0
    1026:	e3 e3       	ldi	r30, 0x33	; 51
    1028:	f0 e0       	ldi	r31, 0x00	; 0
    102a:	81 81       	ldd	r24, Z+1	; 0x01
    102c:	48 2f       	mov	r20, r24
    102e:	8b 81       	ldd	r24, Y+3	; 0x03
    1030:	28 2f       	mov	r18, r24
    1032:	30 e0       	ldi	r19, 0x00	; 0
    1034:	81 e0       	ldi	r24, 0x01	; 1
    1036:	90 e0       	ldi	r25, 0x00	; 0
    1038:	02 c0       	rjmp	.+4      	; 0x103e <MDIO_stderrSetPinDirection+0x33e>
    103a:	88 0f       	add	r24, r24
    103c:	99 1f       	adc	r25, r25
    103e:	2a 95       	dec	r18
    1040:	e2 f7       	brpl	.-8      	; 0x103a <MDIO_stderrSetPinDirection+0x33a>
    1042:	80 95       	com	r24
    1044:	84 23       	and	r24, r20
    1046:	11 96       	adiw	r26, 0x01	; 1
    1048:	8c 93       	st	X, r24
    104a:	a3 e3       	ldi	r26, 0x33	; 51
    104c:	b0 e0       	ldi	r27, 0x00	; 0
    104e:	e3 e3       	ldi	r30, 0x33	; 51
    1050:	f0 e0       	ldi	r31, 0x00	; 0
    1052:	82 81       	ldd	r24, Z+2	; 0x02
    1054:	48 2f       	mov	r20, r24
    1056:	8b 81       	ldd	r24, Y+3	; 0x03
    1058:	28 2f       	mov	r18, r24
    105a:	30 e0       	ldi	r19, 0x00	; 0
    105c:	81 e0       	ldi	r24, 0x01	; 1
    105e:	90 e0       	ldi	r25, 0x00	; 0
    1060:	02 2e       	mov	r0, r18
    1062:	02 c0       	rjmp	.+4      	; 0x1068 <MDIO_stderrSetPinDirection+0x368>
    1064:	88 0f       	add	r24, r24
    1066:	99 1f       	adc	r25, r25
    1068:	0a 94       	dec	r0
    106a:	e2 f7       	brpl	.-8      	; 0x1064 <MDIO_stderrSetPinDirection+0x364>
    106c:	84 2b       	or	r24, r20
    106e:	12 96       	adiw	r26, 0x02	; 2
    1070:	8c 93       	st	X, r24
    1072:	12 97       	sbiw	r26, 0x02	; 2
    1074:	32 c0       	rjmp	.+100    	; 0x10da <MDIO_stderrSetPinDirection+0x3da>
				case MDIO_PORTD: CLEAR_BIT(GPIOD -> DDR, ARG_u8Pin); SET_BIT(GPIOD -> PORT, ARG_u8Pin); break;
    1076:	a0 e3       	ldi	r26, 0x30	; 48
    1078:	b0 e0       	ldi	r27, 0x00	; 0
    107a:	e0 e3       	ldi	r30, 0x30	; 48
    107c:	f0 e0       	ldi	r31, 0x00	; 0
    107e:	81 81       	ldd	r24, Z+1	; 0x01
    1080:	48 2f       	mov	r20, r24
    1082:	8b 81       	ldd	r24, Y+3	; 0x03
    1084:	28 2f       	mov	r18, r24
    1086:	30 e0       	ldi	r19, 0x00	; 0
    1088:	81 e0       	ldi	r24, 0x01	; 1
    108a:	90 e0       	ldi	r25, 0x00	; 0
    108c:	02 c0       	rjmp	.+4      	; 0x1092 <MDIO_stderrSetPinDirection+0x392>
    108e:	88 0f       	add	r24, r24
    1090:	99 1f       	adc	r25, r25
    1092:	2a 95       	dec	r18
    1094:	e2 f7       	brpl	.-8      	; 0x108e <MDIO_stderrSetPinDirection+0x38e>
    1096:	80 95       	com	r24
    1098:	84 23       	and	r24, r20
    109a:	11 96       	adiw	r26, 0x01	; 1
    109c:	8c 93       	st	X, r24
    109e:	a0 e3       	ldi	r26, 0x30	; 48
    10a0:	b0 e0       	ldi	r27, 0x00	; 0
    10a2:	e0 e3       	ldi	r30, 0x30	; 48
    10a4:	f0 e0       	ldi	r31, 0x00	; 0
    10a6:	82 81       	ldd	r24, Z+2	; 0x02
    10a8:	48 2f       	mov	r20, r24
    10aa:	8b 81       	ldd	r24, Y+3	; 0x03
    10ac:	28 2f       	mov	r18, r24
    10ae:	30 e0       	ldi	r19, 0x00	; 0
    10b0:	81 e0       	ldi	r24, 0x01	; 1
    10b2:	90 e0       	ldi	r25, 0x00	; 0
    10b4:	02 2e       	mov	r0, r18
    10b6:	02 c0       	rjmp	.+4      	; 0x10bc <MDIO_stderrSetPinDirection+0x3bc>
    10b8:	88 0f       	add	r24, r24
    10ba:	99 1f       	adc	r25, r25
    10bc:	0a 94       	dec	r0
    10be:	e2 f7       	brpl	.-8      	; 0x10b8 <MDIO_stderrSetPinDirection+0x3b8>
    10c0:	84 2b       	or	r24, r20
    10c2:	12 96       	adiw	r26, 0x02	; 2
    10c4:	8c 93       	st	X, r24
    10c6:	12 97       	sbiw	r26, 0x02	; 2
    10c8:	08 c0       	rjmp	.+16     	; 0x10da <MDIO_stderrSetPinDirection+0x3da>
				default: L_stderrError = E_NOK; break; /* Report an Error */
    10ca:	81 e0       	ldi	r24, 0x01	; 1
    10cc:	89 83       	std	Y+1, r24	; 0x01
    10ce:	05 c0       	rjmp	.+10     	; 0x10da <MDIO_stderrSetPinDirection+0x3da>
			}
		}
		else
		{
			/* Report an Error */
			L_stderrError = E_NOK;
    10d0:	81 e0       	ldi	r24, 0x01	; 1
    10d2:	89 83       	std	Y+1, r24	; 0x01
    10d4:	02 c0       	rjmp	.+4      	; 0x10da <MDIO_stderrSetPinDirection+0x3da>
		}
	}
	else
	{
		/* Report an Error */
		L_stderrError = E_NOK;
    10d6:	81 e0       	ldi	r24, 0x01	; 1
    10d8:	89 83       	std	Y+1, r24	; 0x01
	}
	return L_stderrError;
    10da:	89 81       	ldd	r24, Y+1	; 0x01
}
    10dc:	2a 96       	adiw	r28, 0x0a	; 10
    10de:	0f b6       	in	r0, 0x3f	; 63
    10e0:	f8 94       	cli
    10e2:	de bf       	out	0x3e, r29	; 62
    10e4:	0f be       	out	0x3f, r0	; 63
    10e6:	cd bf       	out	0x3d, r28	; 61
    10e8:	cf 91       	pop	r28
    10ea:	df 91       	pop	r29
    10ec:	08 95       	ret

000010ee <MDIO_stderrSetPinValue>:

STD_error_t MDIO_stderrSetPinValue(u8 ARG_u8Port, u8 ARG_u8Pin, u8 ARG_u8Value)
{
    10ee:	df 93       	push	r29
    10f0:	cf 93       	push	r28
    10f2:	cd b7       	in	r28, 0x3d	; 61
    10f4:	de b7       	in	r29, 0x3e	; 62
    10f6:	28 97       	sbiw	r28, 0x08	; 8
    10f8:	0f b6       	in	r0, 0x3f	; 63
    10fa:	f8 94       	cli
    10fc:	de bf       	out	0x3e, r29	; 62
    10fe:	0f be       	out	0x3f, r0	; 63
    1100:	cd bf       	out	0x3d, r28	; 61
    1102:	8a 83       	std	Y+2, r24	; 0x02
    1104:	6b 83       	std	Y+3, r22	; 0x03
    1106:	4c 83       	std	Y+4, r20	; 0x04
	STD_error_t L_stderrError = E_OK;
    1108:	19 82       	std	Y+1, r1	; 0x01
	if((ARG_u8Pin>=MDIO_PIN0) && (ARG_u8Pin<=MDIO_PIN7))
    110a:	8b 81       	ldd	r24, Y+3	; 0x03
    110c:	88 30       	cpi	r24, 0x08	; 8
    110e:	08 f0       	brcs	.+2      	; 0x1112 <MDIO_stderrSetPinValue+0x24>
    1110:	07 c1       	rjmp	.+526    	; 0x1320 <MDIO_stderrSetPinValue+0x232>
	{
		if(MDIO_HIGH == ARG_u8Value)
    1112:	8c 81       	ldd	r24, Y+4	; 0x04
    1114:	82 30       	cpi	r24, 0x02	; 2
    1116:	09 f0       	breq	.+2      	; 0x111a <MDIO_stderrSetPinValue+0x2c>
    1118:	7c c0       	rjmp	.+248    	; 0x1212 <MDIO_stderrSetPinValue+0x124>
		{
			switch(ARG_u8Port)
    111a:	8a 81       	ldd	r24, Y+2	; 0x02
    111c:	28 2f       	mov	r18, r24
    111e:	30 e0       	ldi	r19, 0x00	; 0
    1120:	38 87       	std	Y+8, r19	; 0x08
    1122:	2f 83       	std	Y+7, r18	; 0x07
    1124:	8f 81       	ldd	r24, Y+7	; 0x07
    1126:	98 85       	ldd	r25, Y+8	; 0x08
    1128:	82 30       	cpi	r24, 0x02	; 2
    112a:	91 05       	cpc	r25, r1
    112c:	69 f1       	breq	.+90     	; 0x1188 <MDIO_stderrSetPinValue+0x9a>
    112e:	2f 81       	ldd	r18, Y+7	; 0x07
    1130:	38 85       	ldd	r19, Y+8	; 0x08
    1132:	23 30       	cpi	r18, 0x03	; 3
    1134:	31 05       	cpc	r19, r1
    1136:	34 f4       	brge	.+12     	; 0x1144 <MDIO_stderrSetPinValue+0x56>
    1138:	8f 81       	ldd	r24, Y+7	; 0x07
    113a:	98 85       	ldd	r25, Y+8	; 0x08
    113c:	81 30       	cpi	r24, 0x01	; 1
    113e:	91 05       	cpc	r25, r1
    1140:	69 f0       	breq	.+26     	; 0x115c <MDIO_stderrSetPinValue+0x6e>
    1142:	64 c0       	rjmp	.+200    	; 0x120c <MDIO_stderrSetPinValue+0x11e>
    1144:	2f 81       	ldd	r18, Y+7	; 0x07
    1146:	38 85       	ldd	r19, Y+8	; 0x08
    1148:	23 30       	cpi	r18, 0x03	; 3
    114a:	31 05       	cpc	r19, r1
    114c:	99 f1       	breq	.+102    	; 0x11b4 <MDIO_stderrSetPinValue+0xc6>
    114e:	8f 81       	ldd	r24, Y+7	; 0x07
    1150:	98 85       	ldd	r25, Y+8	; 0x08
    1152:	84 30       	cpi	r24, 0x04	; 4
    1154:	91 05       	cpc	r25, r1
    1156:	09 f4       	brne	.+2      	; 0x115a <MDIO_stderrSetPinValue+0x6c>
    1158:	43 c0       	rjmp	.+134    	; 0x11e0 <MDIO_stderrSetPinValue+0xf2>
    115a:	58 c0       	rjmp	.+176    	; 0x120c <MDIO_stderrSetPinValue+0x11e>
			{
				case MDIO_PORTA: SET_BIT(GPIOA -> PORT, ARG_u8Pin); break;
    115c:	a9 e3       	ldi	r26, 0x39	; 57
    115e:	b0 e0       	ldi	r27, 0x00	; 0
    1160:	e9 e3       	ldi	r30, 0x39	; 57
    1162:	f0 e0       	ldi	r31, 0x00	; 0
    1164:	82 81       	ldd	r24, Z+2	; 0x02
    1166:	48 2f       	mov	r20, r24
    1168:	8b 81       	ldd	r24, Y+3	; 0x03
    116a:	28 2f       	mov	r18, r24
    116c:	30 e0       	ldi	r19, 0x00	; 0
    116e:	81 e0       	ldi	r24, 0x01	; 1
    1170:	90 e0       	ldi	r25, 0x00	; 0
    1172:	02 2e       	mov	r0, r18
    1174:	02 c0       	rjmp	.+4      	; 0x117a <MDIO_stderrSetPinValue+0x8c>
    1176:	88 0f       	add	r24, r24
    1178:	99 1f       	adc	r25, r25
    117a:	0a 94       	dec	r0
    117c:	e2 f7       	brpl	.-8      	; 0x1176 <MDIO_stderrSetPinValue+0x88>
    117e:	84 2b       	or	r24, r20
    1180:	12 96       	adiw	r26, 0x02	; 2
    1182:	8c 93       	st	X, r24
    1184:	12 97       	sbiw	r26, 0x02	; 2
    1186:	ce c0       	rjmp	.+412    	; 0x1324 <MDIO_stderrSetPinValue+0x236>
				case MDIO_PORTB: SET_BIT(GPIOB -> PORT, ARG_u8Pin); break;
    1188:	a6 e3       	ldi	r26, 0x36	; 54
    118a:	b0 e0       	ldi	r27, 0x00	; 0
    118c:	e6 e3       	ldi	r30, 0x36	; 54
    118e:	f0 e0       	ldi	r31, 0x00	; 0
    1190:	82 81       	ldd	r24, Z+2	; 0x02
    1192:	48 2f       	mov	r20, r24
    1194:	8b 81       	ldd	r24, Y+3	; 0x03
    1196:	28 2f       	mov	r18, r24
    1198:	30 e0       	ldi	r19, 0x00	; 0
    119a:	81 e0       	ldi	r24, 0x01	; 1
    119c:	90 e0       	ldi	r25, 0x00	; 0
    119e:	02 2e       	mov	r0, r18
    11a0:	02 c0       	rjmp	.+4      	; 0x11a6 <MDIO_stderrSetPinValue+0xb8>
    11a2:	88 0f       	add	r24, r24
    11a4:	99 1f       	adc	r25, r25
    11a6:	0a 94       	dec	r0
    11a8:	e2 f7       	brpl	.-8      	; 0x11a2 <MDIO_stderrSetPinValue+0xb4>
    11aa:	84 2b       	or	r24, r20
    11ac:	12 96       	adiw	r26, 0x02	; 2
    11ae:	8c 93       	st	X, r24
    11b0:	12 97       	sbiw	r26, 0x02	; 2
    11b2:	b8 c0       	rjmp	.+368    	; 0x1324 <MDIO_stderrSetPinValue+0x236>
				case MDIO_PORTC: SET_BIT(GPIOC -> PORT, ARG_u8Pin); break;
    11b4:	a3 e3       	ldi	r26, 0x33	; 51
    11b6:	b0 e0       	ldi	r27, 0x00	; 0
    11b8:	e3 e3       	ldi	r30, 0x33	; 51
    11ba:	f0 e0       	ldi	r31, 0x00	; 0
    11bc:	82 81       	ldd	r24, Z+2	; 0x02
    11be:	48 2f       	mov	r20, r24
    11c0:	8b 81       	ldd	r24, Y+3	; 0x03
    11c2:	28 2f       	mov	r18, r24
    11c4:	30 e0       	ldi	r19, 0x00	; 0
    11c6:	81 e0       	ldi	r24, 0x01	; 1
    11c8:	90 e0       	ldi	r25, 0x00	; 0
    11ca:	02 2e       	mov	r0, r18
    11cc:	02 c0       	rjmp	.+4      	; 0x11d2 <MDIO_stderrSetPinValue+0xe4>
    11ce:	88 0f       	add	r24, r24
    11d0:	99 1f       	adc	r25, r25
    11d2:	0a 94       	dec	r0
    11d4:	e2 f7       	brpl	.-8      	; 0x11ce <MDIO_stderrSetPinValue+0xe0>
    11d6:	84 2b       	or	r24, r20
    11d8:	12 96       	adiw	r26, 0x02	; 2
    11da:	8c 93       	st	X, r24
    11dc:	12 97       	sbiw	r26, 0x02	; 2
    11de:	a2 c0       	rjmp	.+324    	; 0x1324 <MDIO_stderrSetPinValue+0x236>
				case MDIO_PORTD: SET_BIT(GPIOD -> PORT, ARG_u8Pin); break;
    11e0:	a0 e3       	ldi	r26, 0x30	; 48
    11e2:	b0 e0       	ldi	r27, 0x00	; 0
    11e4:	e0 e3       	ldi	r30, 0x30	; 48
    11e6:	f0 e0       	ldi	r31, 0x00	; 0
    11e8:	82 81       	ldd	r24, Z+2	; 0x02
    11ea:	48 2f       	mov	r20, r24
    11ec:	8b 81       	ldd	r24, Y+3	; 0x03
    11ee:	28 2f       	mov	r18, r24
    11f0:	30 e0       	ldi	r19, 0x00	; 0
    11f2:	81 e0       	ldi	r24, 0x01	; 1
    11f4:	90 e0       	ldi	r25, 0x00	; 0
    11f6:	02 2e       	mov	r0, r18
    11f8:	02 c0       	rjmp	.+4      	; 0x11fe <MDIO_stderrSetPinValue+0x110>
    11fa:	88 0f       	add	r24, r24
    11fc:	99 1f       	adc	r25, r25
    11fe:	0a 94       	dec	r0
    1200:	e2 f7       	brpl	.-8      	; 0x11fa <MDIO_stderrSetPinValue+0x10c>
    1202:	84 2b       	or	r24, r20
    1204:	12 96       	adiw	r26, 0x02	; 2
    1206:	8c 93       	st	X, r24
    1208:	12 97       	sbiw	r26, 0x02	; 2
    120a:	8c c0       	rjmp	.+280    	; 0x1324 <MDIO_stderrSetPinValue+0x236>
				default: L_stderrError = E_NOK; break; /* Report an Error */
    120c:	81 e0       	ldi	r24, 0x01	; 1
    120e:	89 83       	std	Y+1, r24	; 0x01
    1210:	89 c0       	rjmp	.+274    	; 0x1324 <MDIO_stderrSetPinValue+0x236>
			}
		}
		else if(MDIO_LOW == ARG_u8Value)
    1212:	8c 81       	ldd	r24, Y+4	; 0x04
    1214:	81 30       	cpi	r24, 0x01	; 1
    1216:	09 f0       	breq	.+2      	; 0x121a <MDIO_stderrSetPinValue+0x12c>
    1218:	80 c0       	rjmp	.+256    	; 0x131a <MDIO_stderrSetPinValue+0x22c>
		{
			switch(ARG_u8Port)
    121a:	8a 81       	ldd	r24, Y+2	; 0x02
    121c:	28 2f       	mov	r18, r24
    121e:	30 e0       	ldi	r19, 0x00	; 0
    1220:	3e 83       	std	Y+6, r19	; 0x06
    1222:	2d 83       	std	Y+5, r18	; 0x05
    1224:	8d 81       	ldd	r24, Y+5	; 0x05
    1226:	9e 81       	ldd	r25, Y+6	; 0x06
    1228:	82 30       	cpi	r24, 0x02	; 2
    122a:	91 05       	cpc	r25, r1
    122c:	71 f1       	breq	.+92     	; 0x128a <MDIO_stderrSetPinValue+0x19c>
    122e:	2d 81       	ldd	r18, Y+5	; 0x05
    1230:	3e 81       	ldd	r19, Y+6	; 0x06
    1232:	23 30       	cpi	r18, 0x03	; 3
    1234:	31 05       	cpc	r19, r1
    1236:	34 f4       	brge	.+12     	; 0x1244 <MDIO_stderrSetPinValue+0x156>
    1238:	8d 81       	ldd	r24, Y+5	; 0x05
    123a:	9e 81       	ldd	r25, Y+6	; 0x06
    123c:	81 30       	cpi	r24, 0x01	; 1
    123e:	91 05       	cpc	r25, r1
    1240:	69 f0       	breq	.+26     	; 0x125c <MDIO_stderrSetPinValue+0x16e>
    1242:	68 c0       	rjmp	.+208    	; 0x1314 <MDIO_stderrSetPinValue+0x226>
    1244:	2d 81       	ldd	r18, Y+5	; 0x05
    1246:	3e 81       	ldd	r19, Y+6	; 0x06
    1248:	23 30       	cpi	r18, 0x03	; 3
    124a:	31 05       	cpc	r19, r1
    124c:	a9 f1       	breq	.+106    	; 0x12b8 <MDIO_stderrSetPinValue+0x1ca>
    124e:	8d 81       	ldd	r24, Y+5	; 0x05
    1250:	9e 81       	ldd	r25, Y+6	; 0x06
    1252:	84 30       	cpi	r24, 0x04	; 4
    1254:	91 05       	cpc	r25, r1
    1256:	09 f4       	brne	.+2      	; 0x125a <MDIO_stderrSetPinValue+0x16c>
    1258:	46 c0       	rjmp	.+140    	; 0x12e6 <MDIO_stderrSetPinValue+0x1f8>
    125a:	5c c0       	rjmp	.+184    	; 0x1314 <MDIO_stderrSetPinValue+0x226>
			{
				case MDIO_PORTA: CLEAR_BIT(GPIOA -> PORT, ARG_u8Pin); break;
    125c:	a9 e3       	ldi	r26, 0x39	; 57
    125e:	b0 e0       	ldi	r27, 0x00	; 0
    1260:	e9 e3       	ldi	r30, 0x39	; 57
    1262:	f0 e0       	ldi	r31, 0x00	; 0
    1264:	82 81       	ldd	r24, Z+2	; 0x02
    1266:	48 2f       	mov	r20, r24
    1268:	8b 81       	ldd	r24, Y+3	; 0x03
    126a:	28 2f       	mov	r18, r24
    126c:	30 e0       	ldi	r19, 0x00	; 0
    126e:	81 e0       	ldi	r24, 0x01	; 1
    1270:	90 e0       	ldi	r25, 0x00	; 0
    1272:	02 2e       	mov	r0, r18
    1274:	02 c0       	rjmp	.+4      	; 0x127a <MDIO_stderrSetPinValue+0x18c>
    1276:	88 0f       	add	r24, r24
    1278:	99 1f       	adc	r25, r25
    127a:	0a 94       	dec	r0
    127c:	e2 f7       	brpl	.-8      	; 0x1276 <MDIO_stderrSetPinValue+0x188>
    127e:	80 95       	com	r24
    1280:	84 23       	and	r24, r20
    1282:	12 96       	adiw	r26, 0x02	; 2
    1284:	8c 93       	st	X, r24
    1286:	12 97       	sbiw	r26, 0x02	; 2
    1288:	4d c0       	rjmp	.+154    	; 0x1324 <MDIO_stderrSetPinValue+0x236>
				case MDIO_PORTB: CLEAR_BIT(GPIOB -> PORT, ARG_u8Pin); break;
    128a:	a6 e3       	ldi	r26, 0x36	; 54
    128c:	b0 e0       	ldi	r27, 0x00	; 0
    128e:	e6 e3       	ldi	r30, 0x36	; 54
    1290:	f0 e0       	ldi	r31, 0x00	; 0
    1292:	82 81       	ldd	r24, Z+2	; 0x02
    1294:	48 2f       	mov	r20, r24
    1296:	8b 81       	ldd	r24, Y+3	; 0x03
    1298:	28 2f       	mov	r18, r24
    129a:	30 e0       	ldi	r19, 0x00	; 0
    129c:	81 e0       	ldi	r24, 0x01	; 1
    129e:	90 e0       	ldi	r25, 0x00	; 0
    12a0:	02 2e       	mov	r0, r18
    12a2:	02 c0       	rjmp	.+4      	; 0x12a8 <MDIO_stderrSetPinValue+0x1ba>
    12a4:	88 0f       	add	r24, r24
    12a6:	99 1f       	adc	r25, r25
    12a8:	0a 94       	dec	r0
    12aa:	e2 f7       	brpl	.-8      	; 0x12a4 <MDIO_stderrSetPinValue+0x1b6>
    12ac:	80 95       	com	r24
    12ae:	84 23       	and	r24, r20
    12b0:	12 96       	adiw	r26, 0x02	; 2
    12b2:	8c 93       	st	X, r24
    12b4:	12 97       	sbiw	r26, 0x02	; 2
    12b6:	36 c0       	rjmp	.+108    	; 0x1324 <MDIO_stderrSetPinValue+0x236>
				case MDIO_PORTC: CLEAR_BIT(GPIOC -> PORT, ARG_u8Pin); break;
    12b8:	a3 e3       	ldi	r26, 0x33	; 51
    12ba:	b0 e0       	ldi	r27, 0x00	; 0
    12bc:	e3 e3       	ldi	r30, 0x33	; 51
    12be:	f0 e0       	ldi	r31, 0x00	; 0
    12c0:	82 81       	ldd	r24, Z+2	; 0x02
    12c2:	48 2f       	mov	r20, r24
    12c4:	8b 81       	ldd	r24, Y+3	; 0x03
    12c6:	28 2f       	mov	r18, r24
    12c8:	30 e0       	ldi	r19, 0x00	; 0
    12ca:	81 e0       	ldi	r24, 0x01	; 1
    12cc:	90 e0       	ldi	r25, 0x00	; 0
    12ce:	02 2e       	mov	r0, r18
    12d0:	02 c0       	rjmp	.+4      	; 0x12d6 <MDIO_stderrSetPinValue+0x1e8>
    12d2:	88 0f       	add	r24, r24
    12d4:	99 1f       	adc	r25, r25
    12d6:	0a 94       	dec	r0
    12d8:	e2 f7       	brpl	.-8      	; 0x12d2 <MDIO_stderrSetPinValue+0x1e4>
    12da:	80 95       	com	r24
    12dc:	84 23       	and	r24, r20
    12de:	12 96       	adiw	r26, 0x02	; 2
    12e0:	8c 93       	st	X, r24
    12e2:	12 97       	sbiw	r26, 0x02	; 2
    12e4:	1f c0       	rjmp	.+62     	; 0x1324 <MDIO_stderrSetPinValue+0x236>
				case MDIO_PORTD: CLEAR_BIT(GPIOD -> PORT, ARG_u8Pin); break;
    12e6:	a0 e3       	ldi	r26, 0x30	; 48
    12e8:	b0 e0       	ldi	r27, 0x00	; 0
    12ea:	e0 e3       	ldi	r30, 0x30	; 48
    12ec:	f0 e0       	ldi	r31, 0x00	; 0
    12ee:	82 81       	ldd	r24, Z+2	; 0x02
    12f0:	48 2f       	mov	r20, r24
    12f2:	8b 81       	ldd	r24, Y+3	; 0x03
    12f4:	28 2f       	mov	r18, r24
    12f6:	30 e0       	ldi	r19, 0x00	; 0
    12f8:	81 e0       	ldi	r24, 0x01	; 1
    12fa:	90 e0       	ldi	r25, 0x00	; 0
    12fc:	02 2e       	mov	r0, r18
    12fe:	02 c0       	rjmp	.+4      	; 0x1304 <MDIO_stderrSetPinValue+0x216>
    1300:	88 0f       	add	r24, r24
    1302:	99 1f       	adc	r25, r25
    1304:	0a 94       	dec	r0
    1306:	e2 f7       	brpl	.-8      	; 0x1300 <MDIO_stderrSetPinValue+0x212>
    1308:	80 95       	com	r24
    130a:	84 23       	and	r24, r20
    130c:	12 96       	adiw	r26, 0x02	; 2
    130e:	8c 93       	st	X, r24
    1310:	12 97       	sbiw	r26, 0x02	; 2
    1312:	08 c0       	rjmp	.+16     	; 0x1324 <MDIO_stderrSetPinValue+0x236>
				default: L_stderrError = E_NOK; break; /* Report an Error */
    1314:	81 e0       	ldi	r24, 0x01	; 1
    1316:	89 83       	std	Y+1, r24	; 0x01
    1318:	05 c0       	rjmp	.+10     	; 0x1324 <MDIO_stderrSetPinValue+0x236>
			}
		}
		else
		{
			/* Report an Error */
			L_stderrError = E_NOK;
    131a:	81 e0       	ldi	r24, 0x01	; 1
    131c:	89 83       	std	Y+1, r24	; 0x01
    131e:	02 c0       	rjmp	.+4      	; 0x1324 <MDIO_stderrSetPinValue+0x236>
		}
	}
	else
	{
		/* Report an Error */
		L_stderrError = E_NOK;
    1320:	81 e0       	ldi	r24, 0x01	; 1
    1322:	89 83       	std	Y+1, r24	; 0x01
	}
	return L_stderrError;
    1324:	89 81       	ldd	r24, Y+1	; 0x01
}
    1326:	28 96       	adiw	r28, 0x08	; 8
    1328:	0f b6       	in	r0, 0x3f	; 63
    132a:	f8 94       	cli
    132c:	de bf       	out	0x3e, r29	; 62
    132e:	0f be       	out	0x3f, r0	; 63
    1330:	cd bf       	out	0x3d, r28	; 61
    1332:	cf 91       	pop	r28
    1334:	df 91       	pop	r29
    1336:	08 95       	ret

00001338 <MDIO_stderrGetPinValue>:

STD_error_t MDIO_stderrGetPinValue(u8* ARG_u8pValue, u8 ARG_u8Port, u8 ARG_u8Pin)
{
    1338:	df 93       	push	r29
    133a:	cf 93       	push	r28
    133c:	cd b7       	in	r28, 0x3d	; 61
    133e:	de b7       	in	r29, 0x3e	; 62
    1340:	27 97       	sbiw	r28, 0x07	; 7
    1342:	0f b6       	in	r0, 0x3f	; 63
    1344:	f8 94       	cli
    1346:	de bf       	out	0x3e, r29	; 62
    1348:	0f be       	out	0x3f, r0	; 63
    134a:	cd bf       	out	0x3d, r28	; 61
    134c:	9b 83       	std	Y+3, r25	; 0x03
    134e:	8a 83       	std	Y+2, r24	; 0x02
    1350:	6c 83       	std	Y+4, r22	; 0x04
    1352:	4d 83       	std	Y+5, r20	; 0x05
	STD_error_t L_stderrError = E_OK;
    1354:	19 82       	std	Y+1, r1	; 0x01
	if(NULL_POINTER==ARG_u8pValue)
    1356:	8a 81       	ldd	r24, Y+2	; 0x02
    1358:	9b 81       	ldd	r25, Y+3	; 0x03
    135a:	00 97       	sbiw	r24, 0x00	; 0
    135c:	19 f4       	brne	.+6      	; 0x1364 <MDIO_stderrGetPinValue+0x2c>
	{
		L_stderrError = E_NULL_POINTER;
    135e:	82 e0       	ldi	r24, 0x02	; 2
    1360:	89 83       	std	Y+1, r24	; 0x01
    1362:	7a c0       	rjmp	.+244    	; 0x1458 <MDIO_stderrGetPinValue+0x120>
	}
	else if((ARG_u8Pin>=MDIO_PIN0) && (ARG_u8Pin<=MDIO_PIN7))
    1364:	8d 81       	ldd	r24, Y+5	; 0x05
    1366:	88 30       	cpi	r24, 0x08	; 8
    1368:	08 f0       	brcs	.+2      	; 0x136c <MDIO_stderrGetPinValue+0x34>
    136a:	74 c0       	rjmp	.+232    	; 0x1454 <MDIO_stderrGetPinValue+0x11c>
	{
		switch(ARG_u8Port)
    136c:	8c 81       	ldd	r24, Y+4	; 0x04
    136e:	28 2f       	mov	r18, r24
    1370:	30 e0       	ldi	r19, 0x00	; 0
    1372:	3f 83       	std	Y+7, r19	; 0x07
    1374:	2e 83       	std	Y+6, r18	; 0x06
    1376:	4e 81       	ldd	r20, Y+6	; 0x06
    1378:	5f 81       	ldd	r21, Y+7	; 0x07
    137a:	42 30       	cpi	r20, 0x02	; 2
    137c:	51 05       	cpc	r21, r1
    137e:	59 f1       	breq	.+86     	; 0x13d6 <MDIO_stderrGetPinValue+0x9e>
    1380:	8e 81       	ldd	r24, Y+6	; 0x06
    1382:	9f 81       	ldd	r25, Y+7	; 0x07
    1384:	83 30       	cpi	r24, 0x03	; 3
    1386:	91 05       	cpc	r25, r1
    1388:	34 f4       	brge	.+12     	; 0x1396 <MDIO_stderrGetPinValue+0x5e>
    138a:	2e 81       	ldd	r18, Y+6	; 0x06
    138c:	3f 81       	ldd	r19, Y+7	; 0x07
    138e:	21 30       	cpi	r18, 0x01	; 1
    1390:	31 05       	cpc	r19, r1
    1392:	69 f0       	breq	.+26     	; 0x13ae <MDIO_stderrGetPinValue+0x76>
    1394:	5c c0       	rjmp	.+184    	; 0x144e <MDIO_stderrGetPinValue+0x116>
    1396:	4e 81       	ldd	r20, Y+6	; 0x06
    1398:	5f 81       	ldd	r21, Y+7	; 0x07
    139a:	43 30       	cpi	r20, 0x03	; 3
    139c:	51 05       	cpc	r21, r1
    139e:	79 f1       	breq	.+94     	; 0x13fe <MDIO_stderrGetPinValue+0xc6>
    13a0:	8e 81       	ldd	r24, Y+6	; 0x06
    13a2:	9f 81       	ldd	r25, Y+7	; 0x07
    13a4:	84 30       	cpi	r24, 0x04	; 4
    13a6:	91 05       	cpc	r25, r1
    13a8:	09 f4       	brne	.+2      	; 0x13ac <MDIO_stderrGetPinValue+0x74>
    13aa:	3d c0       	rjmp	.+122    	; 0x1426 <MDIO_stderrGetPinValue+0xee>
    13ac:	50 c0       	rjmp	.+160    	; 0x144e <MDIO_stderrGetPinValue+0x116>
		{
			case MDIO_PORTA: *ARG_u8pValue = GET_BIT(GPIOA -> PIN, ARG_u8Pin); break;
    13ae:	e9 e3       	ldi	r30, 0x39	; 57
    13b0:	f0 e0       	ldi	r31, 0x00	; 0
    13b2:	80 81       	ld	r24, Z
    13b4:	28 2f       	mov	r18, r24
    13b6:	30 e0       	ldi	r19, 0x00	; 0
    13b8:	8d 81       	ldd	r24, Y+5	; 0x05
    13ba:	88 2f       	mov	r24, r24
    13bc:	90 e0       	ldi	r25, 0x00	; 0
    13be:	a9 01       	movw	r20, r18
    13c0:	02 c0       	rjmp	.+4      	; 0x13c6 <MDIO_stderrGetPinValue+0x8e>
    13c2:	55 95       	asr	r21
    13c4:	47 95       	ror	r20
    13c6:	8a 95       	dec	r24
    13c8:	e2 f7       	brpl	.-8      	; 0x13c2 <MDIO_stderrGetPinValue+0x8a>
    13ca:	ca 01       	movw	r24, r20
    13cc:	81 70       	andi	r24, 0x01	; 1
    13ce:	ea 81       	ldd	r30, Y+2	; 0x02
    13d0:	fb 81       	ldd	r31, Y+3	; 0x03
    13d2:	80 83       	st	Z, r24
    13d4:	41 c0       	rjmp	.+130    	; 0x1458 <MDIO_stderrGetPinValue+0x120>
			case MDIO_PORTB: *ARG_u8pValue = GET_BIT(GPIOB -> PIN, ARG_u8Pin); break;
    13d6:	e6 e3       	ldi	r30, 0x36	; 54
    13d8:	f0 e0       	ldi	r31, 0x00	; 0
    13da:	80 81       	ld	r24, Z
    13dc:	28 2f       	mov	r18, r24
    13de:	30 e0       	ldi	r19, 0x00	; 0
    13e0:	8d 81       	ldd	r24, Y+5	; 0x05
    13e2:	88 2f       	mov	r24, r24
    13e4:	90 e0       	ldi	r25, 0x00	; 0
    13e6:	a9 01       	movw	r20, r18
    13e8:	02 c0       	rjmp	.+4      	; 0x13ee <MDIO_stderrGetPinValue+0xb6>
    13ea:	55 95       	asr	r21
    13ec:	47 95       	ror	r20
    13ee:	8a 95       	dec	r24
    13f0:	e2 f7       	brpl	.-8      	; 0x13ea <MDIO_stderrGetPinValue+0xb2>
    13f2:	ca 01       	movw	r24, r20
    13f4:	81 70       	andi	r24, 0x01	; 1
    13f6:	ea 81       	ldd	r30, Y+2	; 0x02
    13f8:	fb 81       	ldd	r31, Y+3	; 0x03
    13fa:	80 83       	st	Z, r24
    13fc:	2d c0       	rjmp	.+90     	; 0x1458 <MDIO_stderrGetPinValue+0x120>
			case MDIO_PORTC: *ARG_u8pValue = GET_BIT(GPIOC -> PIN, ARG_u8Pin); break;
    13fe:	e3 e3       	ldi	r30, 0x33	; 51
    1400:	f0 e0       	ldi	r31, 0x00	; 0
    1402:	80 81       	ld	r24, Z
    1404:	28 2f       	mov	r18, r24
    1406:	30 e0       	ldi	r19, 0x00	; 0
    1408:	8d 81       	ldd	r24, Y+5	; 0x05
    140a:	88 2f       	mov	r24, r24
    140c:	90 e0       	ldi	r25, 0x00	; 0
    140e:	a9 01       	movw	r20, r18
    1410:	02 c0       	rjmp	.+4      	; 0x1416 <MDIO_stderrGetPinValue+0xde>
    1412:	55 95       	asr	r21
    1414:	47 95       	ror	r20
    1416:	8a 95       	dec	r24
    1418:	e2 f7       	brpl	.-8      	; 0x1412 <MDIO_stderrGetPinValue+0xda>
    141a:	ca 01       	movw	r24, r20
    141c:	81 70       	andi	r24, 0x01	; 1
    141e:	ea 81       	ldd	r30, Y+2	; 0x02
    1420:	fb 81       	ldd	r31, Y+3	; 0x03
    1422:	80 83       	st	Z, r24
    1424:	19 c0       	rjmp	.+50     	; 0x1458 <MDIO_stderrGetPinValue+0x120>
			case MDIO_PORTD: *ARG_u8pValue = GET_BIT(GPIOD -> PIN, ARG_u8Pin); break;
    1426:	e0 e3       	ldi	r30, 0x30	; 48
    1428:	f0 e0       	ldi	r31, 0x00	; 0
    142a:	80 81       	ld	r24, Z
    142c:	28 2f       	mov	r18, r24
    142e:	30 e0       	ldi	r19, 0x00	; 0
    1430:	8d 81       	ldd	r24, Y+5	; 0x05
    1432:	88 2f       	mov	r24, r24
    1434:	90 e0       	ldi	r25, 0x00	; 0
    1436:	a9 01       	movw	r20, r18
    1438:	02 c0       	rjmp	.+4      	; 0x143e <MDIO_stderrGetPinValue+0x106>
    143a:	55 95       	asr	r21
    143c:	47 95       	ror	r20
    143e:	8a 95       	dec	r24
    1440:	e2 f7       	brpl	.-8      	; 0x143a <MDIO_stderrGetPinValue+0x102>
    1442:	ca 01       	movw	r24, r20
    1444:	81 70       	andi	r24, 0x01	; 1
    1446:	ea 81       	ldd	r30, Y+2	; 0x02
    1448:	fb 81       	ldd	r31, Y+3	; 0x03
    144a:	80 83       	st	Z, r24
    144c:	05 c0       	rjmp	.+10     	; 0x1458 <MDIO_stderrGetPinValue+0x120>
			default: L_stderrError = E_NOK; break; /* Report an Error */
    144e:	81 e0       	ldi	r24, 0x01	; 1
    1450:	89 83       	std	Y+1, r24	; 0x01
    1452:	02 c0       	rjmp	.+4      	; 0x1458 <MDIO_stderrGetPinValue+0x120>
		}
	}
	else
	{
		/* Report an Error */
		L_stderrError = E_NOK;
    1454:	81 e0       	ldi	r24, 0x01	; 1
    1456:	89 83       	std	Y+1, r24	; 0x01
	}
	return L_stderrError;
    1458:	89 81       	ldd	r24, Y+1	; 0x01
}
    145a:	27 96       	adiw	r28, 0x07	; 7
    145c:	0f b6       	in	r0, 0x3f	; 63
    145e:	f8 94       	cli
    1460:	de bf       	out	0x3e, r29	; 62
    1462:	0f be       	out	0x3f, r0	; 63
    1464:	cd bf       	out	0x3d, r28	; 61
    1466:	cf 91       	pop	r28
    1468:	df 91       	pop	r29
    146a:	08 95       	ret

0000146c <MDIO_stderrTogglePinValue>:

STD_error_t MDIO_stderrTogglePinValue(u8 ARG_u8Port ,u8 ARG_u8Pin)
{
    146c:	df 93       	push	r29
    146e:	cf 93       	push	r28
    1470:	00 d0       	rcall	.+0      	; 0x1472 <MDIO_stderrTogglePinValue+0x6>
    1472:	00 d0       	rcall	.+0      	; 0x1474 <MDIO_stderrTogglePinValue+0x8>
    1474:	0f 92       	push	r0
    1476:	cd b7       	in	r28, 0x3d	; 61
    1478:	de b7       	in	r29, 0x3e	; 62
    147a:	8a 83       	std	Y+2, r24	; 0x02
    147c:	6b 83       	std	Y+3, r22	; 0x03
	STD_error_t L_stderrError= E_OK;
    147e:	19 82       	std	Y+1, r1	; 0x01
	if(ARG_u8Pin>= MDIO_PIN0 && ARG_u8Pin<= MDIO_PIN7)
    1480:	8b 81       	ldd	r24, Y+3	; 0x03
    1482:	88 30       	cpi	r24, 0x08	; 8
    1484:	08 f0       	brcs	.+2      	; 0x1488 <MDIO_stderrTogglePinValue+0x1c>
    1486:	7c c0       	rjmp	.+248    	; 0x1580 <MDIO_stderrTogglePinValue+0x114>
	{
		switch(ARG_u8Port)
    1488:	8a 81       	ldd	r24, Y+2	; 0x02
    148a:	28 2f       	mov	r18, r24
    148c:	30 e0       	ldi	r19, 0x00	; 0
    148e:	3d 83       	std	Y+5, r19	; 0x05
    1490:	2c 83       	std	Y+4, r18	; 0x04
    1492:	8c 81       	ldd	r24, Y+4	; 0x04
    1494:	9d 81       	ldd	r25, Y+5	; 0x05
    1496:	82 30       	cpi	r24, 0x02	; 2
    1498:	91 05       	cpc	r25, r1
    149a:	69 f1       	breq	.+90     	; 0x14f6 <MDIO_stderrTogglePinValue+0x8a>
    149c:	2c 81       	ldd	r18, Y+4	; 0x04
    149e:	3d 81       	ldd	r19, Y+5	; 0x05
    14a0:	23 30       	cpi	r18, 0x03	; 3
    14a2:	31 05       	cpc	r19, r1
    14a4:	34 f4       	brge	.+12     	; 0x14b2 <MDIO_stderrTogglePinValue+0x46>
    14a6:	8c 81       	ldd	r24, Y+4	; 0x04
    14a8:	9d 81       	ldd	r25, Y+5	; 0x05
    14aa:	81 30       	cpi	r24, 0x01	; 1
    14ac:	91 05       	cpc	r25, r1
    14ae:	69 f0       	breq	.+26     	; 0x14ca <MDIO_stderrTogglePinValue+0x5e>
    14b0:	64 c0       	rjmp	.+200    	; 0x157a <MDIO_stderrTogglePinValue+0x10e>
    14b2:	2c 81       	ldd	r18, Y+4	; 0x04
    14b4:	3d 81       	ldd	r19, Y+5	; 0x05
    14b6:	23 30       	cpi	r18, 0x03	; 3
    14b8:	31 05       	cpc	r19, r1
    14ba:	99 f1       	breq	.+102    	; 0x1522 <MDIO_stderrTogglePinValue+0xb6>
    14bc:	8c 81       	ldd	r24, Y+4	; 0x04
    14be:	9d 81       	ldd	r25, Y+5	; 0x05
    14c0:	84 30       	cpi	r24, 0x04	; 4
    14c2:	91 05       	cpc	r25, r1
    14c4:	09 f4       	brne	.+2      	; 0x14c8 <MDIO_stderrTogglePinValue+0x5c>
    14c6:	43 c0       	rjmp	.+134    	; 0x154e <MDIO_stderrTogglePinValue+0xe2>
    14c8:	58 c0       	rjmp	.+176    	; 0x157a <MDIO_stderrTogglePinValue+0x10e>
		{
			case MDIO_PORTA: TOGGLE_BIT(GPIOA->PORT ,ARG_u8Pin) ; break;
    14ca:	a9 e3       	ldi	r26, 0x39	; 57
    14cc:	b0 e0       	ldi	r27, 0x00	; 0
    14ce:	e9 e3       	ldi	r30, 0x39	; 57
    14d0:	f0 e0       	ldi	r31, 0x00	; 0
    14d2:	82 81       	ldd	r24, Z+2	; 0x02
    14d4:	48 2f       	mov	r20, r24
    14d6:	8b 81       	ldd	r24, Y+3	; 0x03
    14d8:	28 2f       	mov	r18, r24
    14da:	30 e0       	ldi	r19, 0x00	; 0
    14dc:	81 e0       	ldi	r24, 0x01	; 1
    14de:	90 e0       	ldi	r25, 0x00	; 0
    14e0:	02 2e       	mov	r0, r18
    14e2:	02 c0       	rjmp	.+4      	; 0x14e8 <MDIO_stderrTogglePinValue+0x7c>
    14e4:	88 0f       	add	r24, r24
    14e6:	99 1f       	adc	r25, r25
    14e8:	0a 94       	dec	r0
    14ea:	e2 f7       	brpl	.-8      	; 0x14e4 <MDIO_stderrTogglePinValue+0x78>
    14ec:	84 27       	eor	r24, r20
    14ee:	12 96       	adiw	r26, 0x02	; 2
    14f0:	8c 93       	st	X, r24
    14f2:	12 97       	sbiw	r26, 0x02	; 2
    14f4:	47 c0       	rjmp	.+142    	; 0x1584 <MDIO_stderrTogglePinValue+0x118>
			case MDIO_PORTB: TOGGLE_BIT(GPIOB->PORT ,ARG_u8Pin) ; break;
    14f6:	a6 e3       	ldi	r26, 0x36	; 54
    14f8:	b0 e0       	ldi	r27, 0x00	; 0
    14fa:	e6 e3       	ldi	r30, 0x36	; 54
    14fc:	f0 e0       	ldi	r31, 0x00	; 0
    14fe:	82 81       	ldd	r24, Z+2	; 0x02
    1500:	48 2f       	mov	r20, r24
    1502:	8b 81       	ldd	r24, Y+3	; 0x03
    1504:	28 2f       	mov	r18, r24
    1506:	30 e0       	ldi	r19, 0x00	; 0
    1508:	81 e0       	ldi	r24, 0x01	; 1
    150a:	90 e0       	ldi	r25, 0x00	; 0
    150c:	02 2e       	mov	r0, r18
    150e:	02 c0       	rjmp	.+4      	; 0x1514 <MDIO_stderrTogglePinValue+0xa8>
    1510:	88 0f       	add	r24, r24
    1512:	99 1f       	adc	r25, r25
    1514:	0a 94       	dec	r0
    1516:	e2 f7       	brpl	.-8      	; 0x1510 <MDIO_stderrTogglePinValue+0xa4>
    1518:	84 27       	eor	r24, r20
    151a:	12 96       	adiw	r26, 0x02	; 2
    151c:	8c 93       	st	X, r24
    151e:	12 97       	sbiw	r26, 0x02	; 2
    1520:	31 c0       	rjmp	.+98     	; 0x1584 <MDIO_stderrTogglePinValue+0x118>
			case MDIO_PORTC: TOGGLE_BIT(GPIOC->PORT ,ARG_u8Pin) ; break;
    1522:	a3 e3       	ldi	r26, 0x33	; 51
    1524:	b0 e0       	ldi	r27, 0x00	; 0
    1526:	e3 e3       	ldi	r30, 0x33	; 51
    1528:	f0 e0       	ldi	r31, 0x00	; 0
    152a:	82 81       	ldd	r24, Z+2	; 0x02
    152c:	48 2f       	mov	r20, r24
    152e:	8b 81       	ldd	r24, Y+3	; 0x03
    1530:	28 2f       	mov	r18, r24
    1532:	30 e0       	ldi	r19, 0x00	; 0
    1534:	81 e0       	ldi	r24, 0x01	; 1
    1536:	90 e0       	ldi	r25, 0x00	; 0
    1538:	02 2e       	mov	r0, r18
    153a:	02 c0       	rjmp	.+4      	; 0x1540 <MDIO_stderrTogglePinValue+0xd4>
    153c:	88 0f       	add	r24, r24
    153e:	99 1f       	adc	r25, r25
    1540:	0a 94       	dec	r0
    1542:	e2 f7       	brpl	.-8      	; 0x153c <MDIO_stderrTogglePinValue+0xd0>
    1544:	84 27       	eor	r24, r20
    1546:	12 96       	adiw	r26, 0x02	; 2
    1548:	8c 93       	st	X, r24
    154a:	12 97       	sbiw	r26, 0x02	; 2
    154c:	1b c0       	rjmp	.+54     	; 0x1584 <MDIO_stderrTogglePinValue+0x118>
			case MDIO_PORTD: TOGGLE_BIT(GPIOD->PORT ,ARG_u8Pin) ; break;
    154e:	a0 e3       	ldi	r26, 0x30	; 48
    1550:	b0 e0       	ldi	r27, 0x00	; 0
    1552:	e0 e3       	ldi	r30, 0x30	; 48
    1554:	f0 e0       	ldi	r31, 0x00	; 0
    1556:	82 81       	ldd	r24, Z+2	; 0x02
    1558:	48 2f       	mov	r20, r24
    155a:	8b 81       	ldd	r24, Y+3	; 0x03
    155c:	28 2f       	mov	r18, r24
    155e:	30 e0       	ldi	r19, 0x00	; 0
    1560:	81 e0       	ldi	r24, 0x01	; 1
    1562:	90 e0       	ldi	r25, 0x00	; 0
    1564:	02 2e       	mov	r0, r18
    1566:	02 c0       	rjmp	.+4      	; 0x156c <MDIO_stderrTogglePinValue+0x100>
    1568:	88 0f       	add	r24, r24
    156a:	99 1f       	adc	r25, r25
    156c:	0a 94       	dec	r0
    156e:	e2 f7       	brpl	.-8      	; 0x1568 <MDIO_stderrTogglePinValue+0xfc>
    1570:	84 27       	eor	r24, r20
    1572:	12 96       	adiw	r26, 0x02	; 2
    1574:	8c 93       	st	X, r24
    1576:	12 97       	sbiw	r26, 0x02	; 2
    1578:	05 c0       	rjmp	.+10     	; 0x1584 <MDIO_stderrTogglePinValue+0x118>
			default: L_stderrError = E_NOK; break; /* report an error*/
    157a:	81 e0       	ldi	r24, 0x01	; 1
    157c:	89 83       	std	Y+1, r24	; 0x01
    157e:	02 c0       	rjmp	.+4      	; 0x1584 <MDIO_stderrTogglePinValue+0x118>
		}	
	}
	else{
		/* Report an Error */
		L_stderrError=E_NULL_POINTER;
    1580:	82 e0       	ldi	r24, 0x02	; 2
    1582:	89 83       	std	Y+1, r24	; 0x01
	}
	return L_stderrError;
    1584:	89 81       	ldd	r24, Y+1	; 0x01
}
    1586:	0f 90       	pop	r0
    1588:	0f 90       	pop	r0
    158a:	0f 90       	pop	r0
    158c:	0f 90       	pop	r0
    158e:	0f 90       	pop	r0
    1590:	cf 91       	pop	r28
    1592:	df 91       	pop	r29
    1594:	08 95       	ret

00001596 <main>:
#define MISO	6
#define SCK		7


int main(void)
{
    1596:	df 93       	push	r29
    1598:	cf 93       	push	r28
    159a:	cd b7       	in	r28, 0x3d	; 61
    159c:	de b7       	in	r29, 0x3e	; 62
    159e:	ae 97       	sbiw	r28, 0x2e	; 46
    15a0:	0f b6       	in	r0, 0x3f	; 63
    15a2:	f8 94       	cli
    15a4:	de bf       	out	0x3e, r29	; 62
    15a6:	0f be       	out	0x3f, r0	; 63
    15a8:	cd bf       	out	0x3d, r28	; 61
	u8 L_u8Data = 0;
    15aa:	1b a6       	std	Y+43, r1	; 0x2b
	u8 L_u8Button1=1,L_u8Button2=1,L_u8Button3=1;
    15ac:	81 e0       	ldi	r24, 0x01	; 1
    15ae:	8c a7       	std	Y+44, r24	; 0x2c
    15b0:	81 e0       	ldi	r24, 0x01	; 1
    15b2:	8d a7       	std	Y+45, r24	; 0x2d
    15b4:	81 e0       	ldi	r24, 0x01	; 1
    15b6:	8e a7       	std	Y+46, r24	; 0x2e
	MDIO_stderrSetPinDirection(MDIO_PORTA, 0 , MDIO_INPUT_PULLUP);
    15b8:	81 e0       	ldi	r24, 0x01	; 1
    15ba:	60 e0       	ldi	r22, 0x00	; 0
    15bc:	43 e0       	ldi	r20, 0x03	; 3
    15be:	0e 94 80 06 	call	0xd00	; 0xd00 <MDIO_stderrSetPinDirection>
	MDIO_stderrSetPinDirection(MDIO_PORTA, 1 , MDIO_INPUT_PULLUP);
    15c2:	81 e0       	ldi	r24, 0x01	; 1
    15c4:	61 e0       	ldi	r22, 0x01	; 1
    15c6:	43 e0       	ldi	r20, 0x03	; 3
    15c8:	0e 94 80 06 	call	0xd00	; 0xd00 <MDIO_stderrSetPinDirection>
	MDIO_stderrSetPinDirection(MDIO_PORTA, 2 , MDIO_INPUT_PULLUP);
    15cc:	81 e0       	ldi	r24, 0x01	; 1
    15ce:	62 e0       	ldi	r22, 0x02	; 2
    15d0:	43 e0       	ldi	r20, 0x03	; 3
    15d2:	0e 94 80 06 	call	0xd00	; 0xd00 <MDIO_stderrSetPinDirection>

	MDIO_stderrSetPinDirection(MDIO_PORTB, SS, MDIO_OUTPUT);
    15d6:	82 e0       	ldi	r24, 0x02	; 2
    15d8:	64 e0       	ldi	r22, 0x04	; 4
    15da:	41 e0       	ldi	r20, 0x01	; 1
    15dc:	0e 94 80 06 	call	0xd00	; 0xd00 <MDIO_stderrSetPinDirection>
	MDIO_stderrSetPinDirection(MDIO_PORTB, MOSI, MDIO_OUTPUT);
    15e0:	82 e0       	ldi	r24, 0x02	; 2
    15e2:	65 e0       	ldi	r22, 0x05	; 5
    15e4:	41 e0       	ldi	r20, 0x01	; 1
    15e6:	0e 94 80 06 	call	0xd00	; 0xd00 <MDIO_stderrSetPinDirection>
	MDIO_stderrSetPinDirection(MDIO_PORTB, SCK , MDIO_OUTPUT);
    15ea:	82 e0       	ldi	r24, 0x02	; 2
    15ec:	67 e0       	ldi	r22, 0x07	; 7
    15ee:	41 e0       	ldi	r20, 0x01	; 1
    15f0:	0e 94 80 06 	call	0xd00	; 0xd00 <MDIO_stderrSetPinDirection>

	MDIO_stderrSetPinDirection(MDIO_PORTB, 7, MDIO_OUTPUT);
    15f4:	82 e0       	ldi	r24, 0x02	; 2
    15f6:	67 e0       	ldi	r22, 0x07	; 7
    15f8:	41 e0       	ldi	r20, 0x01	; 1
    15fa:	0e 94 80 06 	call	0xd00	; 0xd00 <MDIO_stderrSetPinDirection>
	CLEAR_BIT(SPCR , DORD);
    15fe:	ad e2       	ldi	r26, 0x2D	; 45
    1600:	b0 e0       	ldi	r27, 0x00	; 0
    1602:	ed e2       	ldi	r30, 0x2D	; 45
    1604:	f0 e0       	ldi	r31, 0x00	; 0
    1606:	80 81       	ld	r24, Z
    1608:	8f 7d       	andi	r24, 0xDF	; 223
    160a:	8c 93       	st	X, r24
	SET_BIT(SPCR, MSTR);
    160c:	ad e2       	ldi	r26, 0x2D	; 45
    160e:	b0 e0       	ldi	r27, 0x00	; 0
    1610:	ed e2       	ldi	r30, 0x2D	; 45
    1612:	f0 e0       	ldi	r31, 0x00	; 0
    1614:	80 81       	ld	r24, Z
    1616:	80 61       	ori	r24, 0x10	; 16
    1618:	8c 93       	st	X, r24
	CLEAR_BIT(SPCR, CPOL);
    161a:	ad e2       	ldi	r26, 0x2D	; 45
    161c:	b0 e0       	ldi	r27, 0x00	; 0
    161e:	ed e2       	ldi	r30, 0x2D	; 45
    1620:	f0 e0       	ldi	r31, 0x00	; 0
    1622:	80 81       	ld	r24, Z
    1624:	87 7f       	andi	r24, 0xF7	; 247
    1626:	8c 93       	st	X, r24
	CLEAR_BIT(SPCR, CPHA);
    1628:	ad e2       	ldi	r26, 0x2D	; 45
    162a:	b0 e0       	ldi	r27, 0x00	; 0
    162c:	ed e2       	ldi	r30, 0x2D	; 45
    162e:	f0 e0       	ldi	r31, 0x00	; 0
    1630:	80 81       	ld	r24, Z
    1632:	8b 7f       	andi	r24, 0xFB	; 251
    1634:	8c 93       	st	X, r24

	CLEAR_BIT(SPCR, SPR1);
    1636:	ad e2       	ldi	r26, 0x2D	; 45
    1638:	b0 e0       	ldi	r27, 0x00	; 0
    163a:	ed e2       	ldi	r30, 0x2D	; 45
    163c:	f0 e0       	ldi	r31, 0x00	; 0
    163e:	80 81       	ld	r24, Z
    1640:	8d 7f       	andi	r24, 0xFD	; 253
    1642:	8c 93       	st	X, r24
	SET_BIT(SPCR, SPR0);
    1644:	ad e2       	ldi	r26, 0x2D	; 45
    1646:	b0 e0       	ldi	r27, 0x00	; 0
    1648:	ed e2       	ldi	r30, 0x2D	; 45
    164a:	f0 e0       	ldi	r31, 0x00	; 0
    164c:	80 81       	ld	r24, Z
    164e:	81 60       	ori	r24, 0x01	; 1
    1650:	8c 93       	st	X, r24
	SET_BIT(SPCR, SPE); /* Enable */
    1652:	ad e2       	ldi	r26, 0x2D	; 45
    1654:	b0 e0       	ldi	r27, 0x00	; 0
    1656:	ed e2       	ldi	r30, 0x2D	; 45
    1658:	f0 e0       	ldi	r31, 0x00	; 0
    165a:	80 81       	ld	r24, Z
    165c:	80 64       	ori	r24, 0x40	; 64
    165e:	8c 93       	st	X, r24

	while(1)
	{
		MDIO_stderrGetPinValue(&L_u8Button1, MDIO_PORTA, 0);
    1660:	ce 01       	movw	r24, r28
    1662:	8c 96       	adiw	r24, 0x2c	; 44
    1664:	61 e0       	ldi	r22, 0x01	; 1
    1666:	40 e0       	ldi	r20, 0x00	; 0
    1668:	0e 94 9c 09 	call	0x1338	; 0x1338 <MDIO_stderrGetPinValue>
		MDIO_stderrGetPinValue(&L_u8Button2, MDIO_PORTA, 1);
    166c:	ce 01       	movw	r24, r28
    166e:	8d 96       	adiw	r24, 0x2d	; 45
    1670:	61 e0       	ldi	r22, 0x01	; 1
    1672:	41 e0       	ldi	r20, 0x01	; 1
    1674:	0e 94 9c 09 	call	0x1338	; 0x1338 <MDIO_stderrGetPinValue>
		MDIO_stderrGetPinValue(&L_u8Button3, MDIO_PORTA, 2);
    1678:	ce 01       	movw	r24, r28
    167a:	8e 96       	adiw	r24, 0x2e	; 46
    167c:	61 e0       	ldi	r22, 0x01	; 1
    167e:	42 e0       	ldi	r20, 0x02	; 2
    1680:	0e 94 9c 09 	call	0x1338	; 0x1338 <MDIO_stderrGetPinValue>


		if(0==L_u8Button1)
    1684:	8c a5       	ldd	r24, Y+44	; 0x2c
    1686:	88 23       	and	r24, r24
    1688:	09 f0       	breq	.+2      	; 0x168c <main+0xf6>
    168a:	16 c1       	rjmp	.+556    	; 0x18b8 <main+0x322>
		{
			MDIO_stderrSetPinValue(MDIO_PORTB,SS, MDIO_LOW);
    168c:	82 e0       	ldi	r24, 0x02	; 2
    168e:	64 e0       	ldi	r22, 0x04	; 4
    1690:	41 e0       	ldi	r20, 0x01	; 1
    1692:	0e 94 77 08 	call	0x10ee	; 0x10ee <MDIO_stderrSetPinValue>
			SPDR = '1';
    1696:	ef e2       	ldi	r30, 0x2F	; 47
    1698:	f0 e0       	ldi	r31, 0x00	; 0
    169a:	81 e3       	ldi	r24, 0x31	; 49
    169c:	80 83       	st	Z, r24
			while(!GET_BIT(SPSR, SPIF));
    169e:	ee e2       	ldi	r30, 0x2E	; 46
    16a0:	f0 e0       	ldi	r31, 0x00	; 0
    16a2:	80 81       	ld	r24, Z
    16a4:	88 23       	and	r24, r24
    16a6:	dc f7       	brge	.-10     	; 0x169e <main+0x108>
			L_u8Data=SPDR ; // to clear flag
    16a8:	ef e2       	ldi	r30, 0x2F	; 47
    16aa:	f0 e0       	ldi	r31, 0x00	; 0
    16ac:	80 81       	ld	r24, Z
    16ae:	8b a7       	std	Y+43, r24	; 0x2b
			MDIO_stderrSetPinValue(MDIO_PORTB,SS, MDIO_HIGH);
    16b0:	82 e0       	ldi	r24, 0x02	; 2
    16b2:	64 e0       	ldi	r22, 0x04	; 4
    16b4:	42 e0       	ldi	r20, 0x02	; 2
    16b6:	0e 94 77 08 	call	0x10ee	; 0x10ee <MDIO_stderrSetPinValue>
    16ba:	80 e0       	ldi	r24, 0x00	; 0
    16bc:	90 e0       	ldi	r25, 0x00	; 0
    16be:	a8 ec       	ldi	r26, 0xC8	; 200
    16c0:	b2 e4       	ldi	r27, 0x42	; 66
    16c2:	8f a3       	std	Y+39, r24	; 0x27
    16c4:	98 a7       	std	Y+40, r25	; 0x28
    16c6:	a9 a7       	std	Y+41, r26	; 0x29
    16c8:	ba a7       	std	Y+42, r27	; 0x2a
 */
void
_delay_ms(double __ms)
{
	uint16_t __ticks;
	double __tmp = ((F_CPU) / 4e3) * __ms;
    16ca:	6f a1       	ldd	r22, Y+39	; 0x27
    16cc:	78 a5       	ldd	r23, Y+40	; 0x28
    16ce:	89 a5       	ldd	r24, Y+41	; 0x29
    16d0:	9a a5       	ldd	r25, Y+42	; 0x2a
    16d2:	20 e0       	ldi	r18, 0x00	; 0
    16d4:	30 e0       	ldi	r19, 0x00	; 0
    16d6:	4a ef       	ldi	r20, 0xFA	; 250
    16d8:	54 e4       	ldi	r21, 0x44	; 68
    16da:	0e 94 17 02 	call	0x42e	; 0x42e <__mulsf3>
    16de:	dc 01       	movw	r26, r24
    16e0:	cb 01       	movw	r24, r22
    16e2:	8b a3       	std	Y+35, r24	; 0x23
    16e4:	9c a3       	std	Y+36, r25	; 0x24
    16e6:	ad a3       	std	Y+37, r26	; 0x25
    16e8:	be a3       	std	Y+38, r27	; 0x26
	if (__tmp < 1.0)
    16ea:	6b a1       	ldd	r22, Y+35	; 0x23
    16ec:	7c a1       	ldd	r23, Y+36	; 0x24
    16ee:	8d a1       	ldd	r24, Y+37	; 0x25
    16f0:	9e a1       	ldd	r25, Y+38	; 0x26
    16f2:	20 e0       	ldi	r18, 0x00	; 0
    16f4:	30 e0       	ldi	r19, 0x00	; 0
    16f6:	40 e8       	ldi	r20, 0x80	; 128
    16f8:	5f e3       	ldi	r21, 0x3F	; 63
    16fa:	0e 94 71 03 	call	0x6e2	; 0x6e2 <__ltsf2>
    16fe:	88 23       	and	r24, r24
    1700:	2c f4       	brge	.+10     	; 0x170c <main+0x176>
		__ticks = 1;
    1702:	81 e0       	ldi	r24, 0x01	; 1
    1704:	90 e0       	ldi	r25, 0x00	; 0
    1706:	9a a3       	std	Y+34, r25	; 0x22
    1708:	89 a3       	std	Y+33, r24	; 0x21
    170a:	3f c0       	rjmp	.+126    	; 0x178a <main+0x1f4>
	else if (__tmp > 65535)
    170c:	6b a1       	ldd	r22, Y+35	; 0x23
    170e:	7c a1       	ldd	r23, Y+36	; 0x24
    1710:	8d a1       	ldd	r24, Y+37	; 0x25
    1712:	9e a1       	ldd	r25, Y+38	; 0x26
    1714:	20 e0       	ldi	r18, 0x00	; 0
    1716:	3f ef       	ldi	r19, 0xFF	; 255
    1718:	4f e7       	ldi	r20, 0x7F	; 127
    171a:	57 e4       	ldi	r21, 0x47	; 71
    171c:	0e 94 11 03 	call	0x622	; 0x622 <__gtsf2>
    1720:	18 16       	cp	r1, r24
    1722:	4c f5       	brge	.+82     	; 0x1776 <main+0x1e0>
	{
		//	__ticks = requested delay in 1/10 ms
		__ticks = (uint16_t) (__ms * 10.0);
    1724:	6f a1       	ldd	r22, Y+39	; 0x27
    1726:	78 a5       	ldd	r23, Y+40	; 0x28
    1728:	89 a5       	ldd	r24, Y+41	; 0x29
    172a:	9a a5       	ldd	r25, Y+42	; 0x2a
    172c:	20 e0       	ldi	r18, 0x00	; 0
    172e:	30 e0       	ldi	r19, 0x00	; 0
    1730:	40 e2       	ldi	r20, 0x20	; 32
    1732:	51 e4       	ldi	r21, 0x41	; 65
    1734:	0e 94 17 02 	call	0x42e	; 0x42e <__mulsf3>
    1738:	dc 01       	movw	r26, r24
    173a:	cb 01       	movw	r24, r22
    173c:	bc 01       	movw	r22, r24
    173e:	cd 01       	movw	r24, r26
    1740:	0e 94 41 00 	call	0x82	; 0x82 <__fixunssfsi>
    1744:	dc 01       	movw	r26, r24
    1746:	cb 01       	movw	r24, r22
    1748:	9a a3       	std	Y+34, r25	; 0x22
    174a:	89 a3       	std	Y+33, r24	; 0x21
    174c:	0f c0       	rjmp	.+30     	; 0x176c <main+0x1d6>
    174e:	88 ec       	ldi	r24, 0xC8	; 200
    1750:	90 e0       	ldi	r25, 0x00	; 0
    1752:	98 a3       	std	Y+32, r25	; 0x20
    1754:	8f 8f       	std	Y+31, r24	; 0x1f
    milliseconds can be achieved.
 */
void
_delay_loop_2(uint16_t __count)
{
	__asm__ volatile (
    1756:	8f 8d       	ldd	r24, Y+31	; 0x1f
    1758:	98 a1       	ldd	r25, Y+32	; 0x20
    175a:	01 97       	sbiw	r24, 0x01	; 1
    175c:	f1 f7       	brne	.-4      	; 0x175a <main+0x1c4>
    175e:	98 a3       	std	Y+32, r25	; 0x20
    1760:	8f 8f       	std	Y+31, r24	; 0x1f
		while(__ticks)
		{
			// wait 1/10 ms
			_delay_loop_2(((F_CPU) / 4e3) / 10);
			__ticks --;
    1762:	89 a1       	ldd	r24, Y+33	; 0x21
    1764:	9a a1       	ldd	r25, Y+34	; 0x22
    1766:	01 97       	sbiw	r24, 0x01	; 1
    1768:	9a a3       	std	Y+34, r25	; 0x22
    176a:	89 a3       	std	Y+33, r24	; 0x21
		__ticks = 1;
	else if (__tmp > 65535)
	{
		//	__ticks = requested delay in 1/10 ms
		__ticks = (uint16_t) (__ms * 10.0);
		while(__ticks)
    176c:	89 a1       	ldd	r24, Y+33	; 0x21
    176e:	9a a1       	ldd	r25, Y+34	; 0x22
    1770:	00 97       	sbiw	r24, 0x00	; 0
    1772:	69 f7       	brne	.-38     	; 0x174e <main+0x1b8>
    1774:	14 c0       	rjmp	.+40     	; 0x179e <main+0x208>
			__ticks --;
		}
		return;
	}
	else
		__ticks = (uint16_t)__tmp;
    1776:	6b a1       	ldd	r22, Y+35	; 0x23
    1778:	7c a1       	ldd	r23, Y+36	; 0x24
    177a:	8d a1       	ldd	r24, Y+37	; 0x25
    177c:	9e a1       	ldd	r25, Y+38	; 0x26
    177e:	0e 94 41 00 	call	0x82	; 0x82 <__fixunssfsi>
    1782:	dc 01       	movw	r26, r24
    1784:	cb 01       	movw	r24, r22
    1786:	9a a3       	std	Y+34, r25	; 0x22
    1788:	89 a3       	std	Y+33, r24	; 0x21
    178a:	89 a1       	ldd	r24, Y+33	; 0x21
    178c:	9a a1       	ldd	r25, Y+34	; 0x22
    178e:	9e 8f       	std	Y+30, r25	; 0x1e
    1790:	8d 8f       	std	Y+29, r24	; 0x1d
    1792:	8d 8d       	ldd	r24, Y+29	; 0x1d
    1794:	9e 8d       	ldd	r25, Y+30	; 0x1e
    1796:	01 97       	sbiw	r24, 0x01	; 1
    1798:	f1 f7       	brne	.-4      	; 0x1796 <main+0x200>
    179a:	9e 8f       	std	Y+30, r25	; 0x1e
    179c:	8d 8f       	std	Y+29, r24	; 0x1d
			_delay_ms(100);
			MDIO_stderrSetPinValue(MDIO_PORTB,SS, MDIO_LOW);
    179e:	82 e0       	ldi	r24, 0x02	; 2
    17a0:	64 e0       	ldi	r22, 0x04	; 4
    17a2:	41 e0       	ldi	r20, 0x01	; 1
    17a4:	0e 94 77 08 	call	0x10ee	; 0x10ee <MDIO_stderrSetPinValue>
			while(!GET_BIT(SPSR, SPIF));
    17a8:	ee e2       	ldi	r30, 0x2E	; 46
    17aa:	f0 e0       	ldi	r31, 0x00	; 0
    17ac:	80 81       	ld	r24, Z
    17ae:	88 23       	and	r24, r24
    17b0:	dc f7       	brge	.-10     	; 0x17a8 <main+0x212>
			L_u8Data=SPDR ; // to clear flag
    17b2:	ef e2       	ldi	r30, 0x2F	; 47
    17b4:	f0 e0       	ldi	r31, 0x00	; 0
    17b6:	80 81       	ld	r24, Z
    17b8:	8b a7       	std	Y+43, r24	; 0x2b
			MDIO_stderrSetPinValue(MDIO_PORTB,SS, MDIO_HIGH);
    17ba:	82 e0       	ldi	r24, 0x02	; 2
    17bc:	64 e0       	ldi	r22, 0x04	; 4
    17be:	42 e0       	ldi	r20, 0x02	; 2
    17c0:	0e 94 77 08 	call	0x10ee	; 0x10ee <MDIO_stderrSetPinValue>
			if(L_u8Data=='2') MDIO_stderrTogglePinValue(MDIO_PORTA,7);
    17c4:	8b a5       	ldd	r24, Y+43	; 0x2b
    17c6:	82 33       	cpi	r24, 0x32	; 50
    17c8:	21 f4       	brne	.+8      	; 0x17d2 <main+0x23c>
    17ca:	81 e0       	ldi	r24, 0x01	; 1
    17cc:	67 e0       	ldi	r22, 0x07	; 7
    17ce:	0e 94 36 0a 	call	0x146c	; 0x146c <MDIO_stderrTogglePinValue>
    17d2:	80 e0       	ldi	r24, 0x00	; 0
    17d4:	90 e0       	ldi	r25, 0x00	; 0
    17d6:	a8 ec       	ldi	r26, 0xC8	; 200
    17d8:	b3 e4       	ldi	r27, 0x43	; 67
    17da:	89 8f       	std	Y+25, r24	; 0x19
    17dc:	9a 8f       	std	Y+26, r25	; 0x1a
    17de:	ab 8f       	std	Y+27, r26	; 0x1b
    17e0:	bc 8f       	std	Y+28, r27	; 0x1c
 */
void
_delay_ms(double __ms)
{
	uint16_t __ticks;
	double __tmp = ((F_CPU) / 4e3) * __ms;
    17e2:	69 8d       	ldd	r22, Y+25	; 0x19
    17e4:	7a 8d       	ldd	r23, Y+26	; 0x1a
    17e6:	8b 8d       	ldd	r24, Y+27	; 0x1b
    17e8:	9c 8d       	ldd	r25, Y+28	; 0x1c
    17ea:	20 e0       	ldi	r18, 0x00	; 0
    17ec:	30 e0       	ldi	r19, 0x00	; 0
    17ee:	4a ef       	ldi	r20, 0xFA	; 250
    17f0:	54 e4       	ldi	r21, 0x44	; 68
    17f2:	0e 94 17 02 	call	0x42e	; 0x42e <__mulsf3>
    17f6:	dc 01       	movw	r26, r24
    17f8:	cb 01       	movw	r24, r22
    17fa:	8d 8b       	std	Y+21, r24	; 0x15
    17fc:	9e 8b       	std	Y+22, r25	; 0x16
    17fe:	af 8b       	std	Y+23, r26	; 0x17
    1800:	b8 8f       	std	Y+24, r27	; 0x18
	if (__tmp < 1.0)
    1802:	6d 89       	ldd	r22, Y+21	; 0x15
    1804:	7e 89       	ldd	r23, Y+22	; 0x16
    1806:	8f 89       	ldd	r24, Y+23	; 0x17
    1808:	98 8d       	ldd	r25, Y+24	; 0x18
    180a:	20 e0       	ldi	r18, 0x00	; 0
    180c:	30 e0       	ldi	r19, 0x00	; 0
    180e:	40 e8       	ldi	r20, 0x80	; 128
    1810:	5f e3       	ldi	r21, 0x3F	; 63
    1812:	0e 94 71 03 	call	0x6e2	; 0x6e2 <__ltsf2>
    1816:	88 23       	and	r24, r24
    1818:	2c f4       	brge	.+10     	; 0x1824 <main+0x28e>
		__ticks = 1;
    181a:	81 e0       	ldi	r24, 0x01	; 1
    181c:	90 e0       	ldi	r25, 0x00	; 0
    181e:	9c 8b       	std	Y+20, r25	; 0x14
    1820:	8b 8b       	std	Y+19, r24	; 0x13
    1822:	3f c0       	rjmp	.+126    	; 0x18a2 <main+0x30c>
	else if (__tmp > 65535)
    1824:	6d 89       	ldd	r22, Y+21	; 0x15
    1826:	7e 89       	ldd	r23, Y+22	; 0x16
    1828:	8f 89       	ldd	r24, Y+23	; 0x17
    182a:	98 8d       	ldd	r25, Y+24	; 0x18
    182c:	20 e0       	ldi	r18, 0x00	; 0
    182e:	3f ef       	ldi	r19, 0xFF	; 255
    1830:	4f e7       	ldi	r20, 0x7F	; 127
    1832:	57 e4       	ldi	r21, 0x47	; 71
    1834:	0e 94 11 03 	call	0x622	; 0x622 <__gtsf2>
    1838:	18 16       	cp	r1, r24
    183a:	4c f5       	brge	.+82     	; 0x188e <main+0x2f8>
	{
		//	__ticks = requested delay in 1/10 ms
		__ticks = (uint16_t) (__ms * 10.0);
    183c:	69 8d       	ldd	r22, Y+25	; 0x19
    183e:	7a 8d       	ldd	r23, Y+26	; 0x1a
    1840:	8b 8d       	ldd	r24, Y+27	; 0x1b
    1842:	9c 8d       	ldd	r25, Y+28	; 0x1c
    1844:	20 e0       	ldi	r18, 0x00	; 0
    1846:	30 e0       	ldi	r19, 0x00	; 0
    1848:	40 e2       	ldi	r20, 0x20	; 32
    184a:	51 e4       	ldi	r21, 0x41	; 65
    184c:	0e 94 17 02 	call	0x42e	; 0x42e <__mulsf3>
    1850:	dc 01       	movw	r26, r24
    1852:	cb 01       	movw	r24, r22
    1854:	bc 01       	movw	r22, r24
    1856:	cd 01       	movw	r24, r26
    1858:	0e 94 41 00 	call	0x82	; 0x82 <__fixunssfsi>
    185c:	dc 01       	movw	r26, r24
    185e:	cb 01       	movw	r24, r22
    1860:	9c 8b       	std	Y+20, r25	; 0x14
    1862:	8b 8b       	std	Y+19, r24	; 0x13
    1864:	0f c0       	rjmp	.+30     	; 0x1884 <main+0x2ee>
    1866:	88 ec       	ldi	r24, 0xC8	; 200
    1868:	90 e0       	ldi	r25, 0x00	; 0
    186a:	9a 8b       	std	Y+18, r25	; 0x12
    186c:	89 8b       	std	Y+17, r24	; 0x11
    186e:	89 89       	ldd	r24, Y+17	; 0x11
    1870:	9a 89       	ldd	r25, Y+18	; 0x12
    1872:	01 97       	sbiw	r24, 0x01	; 1
    1874:	f1 f7       	brne	.-4      	; 0x1872 <main+0x2dc>
    1876:	9a 8b       	std	Y+18, r25	; 0x12
    1878:	89 8b       	std	Y+17, r24	; 0x11
		while(__ticks)
		{
			// wait 1/10 ms
			_delay_loop_2(((F_CPU) / 4e3) / 10);
			__ticks --;
    187a:	8b 89       	ldd	r24, Y+19	; 0x13
    187c:	9c 89       	ldd	r25, Y+20	; 0x14
    187e:	01 97       	sbiw	r24, 0x01	; 1
    1880:	9c 8b       	std	Y+20, r25	; 0x14
    1882:	8b 8b       	std	Y+19, r24	; 0x13
		__ticks = 1;
	else if (__tmp > 65535)
	{
		//	__ticks = requested delay in 1/10 ms
		__ticks = (uint16_t) (__ms * 10.0);
		while(__ticks)
    1884:	8b 89       	ldd	r24, Y+19	; 0x13
    1886:	9c 89       	ldd	r25, Y+20	; 0x14
    1888:	00 97       	sbiw	r24, 0x00	; 0
    188a:	69 f7       	brne	.-38     	; 0x1866 <main+0x2d0>
    188c:	4a c0       	rjmp	.+148    	; 0x1922 <main+0x38c>
			__ticks --;
		}
		return;
	}
	else
		__ticks = (uint16_t)__tmp;
    188e:	6d 89       	ldd	r22, Y+21	; 0x15
    1890:	7e 89       	ldd	r23, Y+22	; 0x16
    1892:	8f 89       	ldd	r24, Y+23	; 0x17
    1894:	98 8d       	ldd	r25, Y+24	; 0x18
    1896:	0e 94 41 00 	call	0x82	; 0x82 <__fixunssfsi>
    189a:	dc 01       	movw	r26, r24
    189c:	cb 01       	movw	r24, r22
    189e:	9c 8b       	std	Y+20, r25	; 0x14
    18a0:	8b 8b       	std	Y+19, r24	; 0x13
    18a2:	8b 89       	ldd	r24, Y+19	; 0x13
    18a4:	9c 89       	ldd	r25, Y+20	; 0x14
    18a6:	98 8b       	std	Y+16, r25	; 0x10
    18a8:	8f 87       	std	Y+15, r24	; 0x0f
    18aa:	8f 85       	ldd	r24, Y+15	; 0x0f
    18ac:	98 89       	ldd	r25, Y+16	; 0x10
    18ae:	01 97       	sbiw	r24, 0x01	; 1
    18b0:	f1 f7       	brne	.-4      	; 0x18ae <main+0x318>
    18b2:	98 8b       	std	Y+16, r25	; 0x10
    18b4:	8f 87       	std	Y+15, r24	; 0x0f
    18b6:	35 c0       	rjmp	.+106    	; 0x1922 <main+0x38c>
			_delay_ms(400);
		}
		else if(0==L_u8Button2)
    18b8:	8d a5       	ldd	r24, Y+45	; 0x2d
    18ba:	88 23       	and	r24, r24
    18bc:	c1 f4       	brne	.+48     	; 0x18ee <main+0x358>
		{
			MDIO_stderrSetPinValue(MDIO_PORTB,SS, MDIO_LOW);
    18be:	82 e0       	ldi	r24, 0x02	; 2
    18c0:	64 e0       	ldi	r22, 0x04	; 4
    18c2:	41 e0       	ldi	r20, 0x01	; 1
    18c4:	0e 94 77 08 	call	0x10ee	; 0x10ee <MDIO_stderrSetPinValue>
			SPDR = '2';
    18c8:	ef e2       	ldi	r30, 0x2F	; 47
    18ca:	f0 e0       	ldi	r31, 0x00	; 0
    18cc:	82 e3       	ldi	r24, 0x32	; 50
    18ce:	80 83       	st	Z, r24
			while(!GET_BIT(SPSR, SPIF));
    18d0:	ee e2       	ldi	r30, 0x2E	; 46
    18d2:	f0 e0       	ldi	r31, 0x00	; 0
    18d4:	80 81       	ld	r24, Z
    18d6:	88 23       	and	r24, r24
    18d8:	dc f7       	brge	.-10     	; 0x18d0 <main+0x33a>
			L_u8Data=SPDR ; // to clear flag
    18da:	ef e2       	ldi	r30, 0x2F	; 47
    18dc:	f0 e0       	ldi	r31, 0x00	; 0
    18de:	80 81       	ld	r24, Z
    18e0:	8b a7       	std	Y+43, r24	; 0x2b
			MDIO_stderrSetPinValue(MDIO_PORTB,SS, MDIO_HIGH);
    18e2:	82 e0       	ldi	r24, 0x02	; 2
    18e4:	64 e0       	ldi	r22, 0x04	; 4
    18e6:	42 e0       	ldi	r20, 0x02	; 2
    18e8:	0e 94 77 08 	call	0x10ee	; 0x10ee <MDIO_stderrSetPinValue>
    18ec:	1a c0       	rjmp	.+52     	; 0x1922 <main+0x38c>
		}
		else if(0==L_u8Button3)
    18ee:	8e a5       	ldd	r24, Y+46	; 0x2e
    18f0:	88 23       	and	r24, r24
    18f2:	b9 f4       	brne	.+46     	; 0x1922 <main+0x38c>
		{
			MDIO_stderrSetPinValue(MDIO_PORTB,SS, MDIO_LOW);
    18f4:	82 e0       	ldi	r24, 0x02	; 2
    18f6:	64 e0       	ldi	r22, 0x04	; 4
    18f8:	41 e0       	ldi	r20, 0x01	; 1
    18fa:	0e 94 77 08 	call	0x10ee	; 0x10ee <MDIO_stderrSetPinValue>
			SPDR = '3';
    18fe:	ef e2       	ldi	r30, 0x2F	; 47
    1900:	f0 e0       	ldi	r31, 0x00	; 0
    1902:	83 e3       	ldi	r24, 0x33	; 51
    1904:	80 83       	st	Z, r24
			while(!GET_BIT(SPSR, SPIF));
    1906:	ee e2       	ldi	r30, 0x2E	; 46
    1908:	f0 e0       	ldi	r31, 0x00	; 0
    190a:	80 81       	ld	r24, Z
    190c:	88 23       	and	r24, r24
    190e:	dc f7       	brge	.-10     	; 0x1906 <main+0x370>
			L_u8Data=SPDR ; // to clear flag
    1910:	ef e2       	ldi	r30, 0x2F	; 47
    1912:	f0 e0       	ldi	r31, 0x00	; 0
    1914:	80 81       	ld	r24, Z
    1916:	8b a7       	std	Y+43, r24	; 0x2b
			MDIO_stderrSetPinValue(MDIO_PORTB,SS, MDIO_HIGH);
    1918:	82 e0       	ldi	r24, 0x02	; 2
    191a:	64 e0       	ldi	r22, 0x04	; 4
    191c:	42 e0       	ldi	r20, 0x02	; 2
    191e:	0e 94 77 08 	call	0x10ee	; 0x10ee <MDIO_stderrSetPinValue>
		}
		MDIO_stderrSetPinValue(MDIO_PORTB,SS, MDIO_LOW);
    1922:	82 e0       	ldi	r24, 0x02	; 2
    1924:	64 e0       	ldi	r22, 0x04	; 4
    1926:	41 e0       	ldi	r20, 0x01	; 1
    1928:	0e 94 77 08 	call	0x10ee	; 0x10ee <MDIO_stderrSetPinValue>
		while(!GET_BIT(SPSR, SPIF));
    192c:	ee e2       	ldi	r30, 0x2E	; 46
    192e:	f0 e0       	ldi	r31, 0x00	; 0
    1930:	80 81       	ld	r24, Z
    1932:	88 23       	and	r24, r24
    1934:	dc f7       	brge	.-10     	; 0x192c <main+0x396>
		L_u8Data=SPDR ; // to clear flag
    1936:	ef e2       	ldi	r30, 0x2F	; 47
    1938:	f0 e0       	ldi	r31, 0x00	; 0
    193a:	80 81       	ld	r24, Z
    193c:	8b a7       	std	Y+43, r24	; 0x2b
		MDIO_stderrSetPinValue(MDIO_PORTB,SS, MDIO_HIGH);
    193e:	82 e0       	ldi	r24, 0x02	; 2
    1940:	64 e0       	ldi	r22, 0x04	; 4
    1942:	42 e0       	ldi	r20, 0x02	; 2
    1944:	0e 94 77 08 	call	0x10ee	; 0x10ee <MDIO_stderrSetPinValue>
		if(L_u8Data=='1') MDIO_stderrTogglePinValue(MDIO_PORTA,7);
    1948:	8b a5       	ldd	r24, Y+43	; 0x2b
    194a:	81 33       	cpi	r24, 0x31	; 49
    194c:	21 f4       	brne	.+8      	; 0x1956 <main+0x3c0>
    194e:	81 e0       	ldi	r24, 0x01	; 1
    1950:	67 e0       	ldi	r22, 0x07	; 7
    1952:	0e 94 36 0a 	call	0x146c	; 0x146c <MDIO_stderrTogglePinValue>
    1956:	80 e0       	ldi	r24, 0x00	; 0
    1958:	90 e0       	ldi	r25, 0x00	; 0
    195a:	a8 ec       	ldi	r26, 0xC8	; 200
    195c:	b3 e4       	ldi	r27, 0x43	; 67
    195e:	8b 87       	std	Y+11, r24	; 0x0b
    1960:	9c 87       	std	Y+12, r25	; 0x0c
    1962:	ad 87       	std	Y+13, r26	; 0x0d
    1964:	be 87       	std	Y+14, r27	; 0x0e
 */
void
_delay_ms(double __ms)
{
	uint16_t __ticks;
	double __tmp = ((F_CPU) / 4e3) * __ms;
    1966:	6b 85       	ldd	r22, Y+11	; 0x0b
    1968:	7c 85       	ldd	r23, Y+12	; 0x0c
    196a:	8d 85       	ldd	r24, Y+13	; 0x0d
    196c:	9e 85       	ldd	r25, Y+14	; 0x0e
    196e:	20 e0       	ldi	r18, 0x00	; 0
    1970:	30 e0       	ldi	r19, 0x00	; 0
    1972:	4a ef       	ldi	r20, 0xFA	; 250
    1974:	54 e4       	ldi	r21, 0x44	; 68
    1976:	0e 94 17 02 	call	0x42e	; 0x42e <__mulsf3>
    197a:	dc 01       	movw	r26, r24
    197c:	cb 01       	movw	r24, r22
    197e:	8f 83       	std	Y+7, r24	; 0x07
    1980:	98 87       	std	Y+8, r25	; 0x08
    1982:	a9 87       	std	Y+9, r26	; 0x09
    1984:	ba 87       	std	Y+10, r27	; 0x0a
	if (__tmp < 1.0)
    1986:	6f 81       	ldd	r22, Y+7	; 0x07
    1988:	78 85       	ldd	r23, Y+8	; 0x08
    198a:	89 85       	ldd	r24, Y+9	; 0x09
    198c:	9a 85       	ldd	r25, Y+10	; 0x0a
    198e:	20 e0       	ldi	r18, 0x00	; 0
    1990:	30 e0       	ldi	r19, 0x00	; 0
    1992:	40 e8       	ldi	r20, 0x80	; 128
    1994:	5f e3       	ldi	r21, 0x3F	; 63
    1996:	0e 94 71 03 	call	0x6e2	; 0x6e2 <__ltsf2>
    199a:	88 23       	and	r24, r24
    199c:	2c f4       	brge	.+10     	; 0x19a8 <main+0x412>
		__ticks = 1;
    199e:	81 e0       	ldi	r24, 0x01	; 1
    19a0:	90 e0       	ldi	r25, 0x00	; 0
    19a2:	9e 83       	std	Y+6, r25	; 0x06
    19a4:	8d 83       	std	Y+5, r24	; 0x05
    19a6:	3f c0       	rjmp	.+126    	; 0x1a26 <main+0x490>
	else if (__tmp > 65535)
    19a8:	6f 81       	ldd	r22, Y+7	; 0x07
    19aa:	78 85       	ldd	r23, Y+8	; 0x08
    19ac:	89 85       	ldd	r24, Y+9	; 0x09
    19ae:	9a 85       	ldd	r25, Y+10	; 0x0a
    19b0:	20 e0       	ldi	r18, 0x00	; 0
    19b2:	3f ef       	ldi	r19, 0xFF	; 255
    19b4:	4f e7       	ldi	r20, 0x7F	; 127
    19b6:	57 e4       	ldi	r21, 0x47	; 71
    19b8:	0e 94 11 03 	call	0x622	; 0x622 <__gtsf2>
    19bc:	18 16       	cp	r1, r24
    19be:	4c f5       	brge	.+82     	; 0x1a12 <main+0x47c>
	{
		//	__ticks = requested delay in 1/10 ms
		__ticks = (uint16_t) (__ms * 10.0);
    19c0:	6b 85       	ldd	r22, Y+11	; 0x0b
    19c2:	7c 85       	ldd	r23, Y+12	; 0x0c
    19c4:	8d 85       	ldd	r24, Y+13	; 0x0d
    19c6:	9e 85       	ldd	r25, Y+14	; 0x0e
    19c8:	20 e0       	ldi	r18, 0x00	; 0
    19ca:	30 e0       	ldi	r19, 0x00	; 0
    19cc:	40 e2       	ldi	r20, 0x20	; 32
    19ce:	51 e4       	ldi	r21, 0x41	; 65
    19d0:	0e 94 17 02 	call	0x42e	; 0x42e <__mulsf3>
    19d4:	dc 01       	movw	r26, r24
    19d6:	cb 01       	movw	r24, r22
    19d8:	bc 01       	movw	r22, r24
    19da:	cd 01       	movw	r24, r26
    19dc:	0e 94 41 00 	call	0x82	; 0x82 <__fixunssfsi>
    19e0:	dc 01       	movw	r26, r24
    19e2:	cb 01       	movw	r24, r22
    19e4:	9e 83       	std	Y+6, r25	; 0x06
    19e6:	8d 83       	std	Y+5, r24	; 0x05
    19e8:	0f c0       	rjmp	.+30     	; 0x1a08 <main+0x472>
    19ea:	88 ec       	ldi	r24, 0xC8	; 200
    19ec:	90 e0       	ldi	r25, 0x00	; 0
    19ee:	9c 83       	std	Y+4, r25	; 0x04
    19f0:	8b 83       	std	Y+3, r24	; 0x03
    19f2:	8b 81       	ldd	r24, Y+3	; 0x03
    19f4:	9c 81       	ldd	r25, Y+4	; 0x04
    19f6:	01 97       	sbiw	r24, 0x01	; 1
    19f8:	f1 f7       	brne	.-4      	; 0x19f6 <main+0x460>
    19fa:	9c 83       	std	Y+4, r25	; 0x04
    19fc:	8b 83       	std	Y+3, r24	; 0x03
		while(__ticks)
		{
			// wait 1/10 ms
			_delay_loop_2(((F_CPU) / 4e3) / 10);
			__ticks --;
    19fe:	8d 81       	ldd	r24, Y+5	; 0x05
    1a00:	9e 81       	ldd	r25, Y+6	; 0x06
    1a02:	01 97       	sbiw	r24, 0x01	; 1
    1a04:	9e 83       	std	Y+6, r25	; 0x06
    1a06:	8d 83       	std	Y+5, r24	; 0x05
		__ticks = 1;
	else if (__tmp > 65535)
	{
		//	__ticks = requested delay in 1/10 ms
		__ticks = (uint16_t) (__ms * 10.0);
		while(__ticks)
    1a08:	8d 81       	ldd	r24, Y+5	; 0x05
    1a0a:	9e 81       	ldd	r25, Y+6	; 0x06
    1a0c:	00 97       	sbiw	r24, 0x00	; 0
    1a0e:	69 f7       	brne	.-38     	; 0x19ea <main+0x454>
    1a10:	27 ce       	rjmp	.-946    	; 0x1660 <main+0xca>
			__ticks --;
		}
		return;
	}
	else
		__ticks = (uint16_t)__tmp;
    1a12:	6f 81       	ldd	r22, Y+7	; 0x07
    1a14:	78 85       	ldd	r23, Y+8	; 0x08
    1a16:	89 85       	ldd	r24, Y+9	; 0x09
    1a18:	9a 85       	ldd	r25, Y+10	; 0x0a
    1a1a:	0e 94 41 00 	call	0x82	; 0x82 <__fixunssfsi>
    1a1e:	dc 01       	movw	r26, r24
    1a20:	cb 01       	movw	r24, r22
    1a22:	9e 83       	std	Y+6, r25	; 0x06
    1a24:	8d 83       	std	Y+5, r24	; 0x05
    1a26:	8d 81       	ldd	r24, Y+5	; 0x05
    1a28:	9e 81       	ldd	r25, Y+6	; 0x06
    1a2a:	9a 83       	std	Y+2, r25	; 0x02
    1a2c:	89 83       	std	Y+1, r24	; 0x01
    1a2e:	89 81       	ldd	r24, Y+1	; 0x01
    1a30:	9a 81       	ldd	r25, Y+2	; 0x02
    1a32:	01 97       	sbiw	r24, 0x01	; 1
    1a34:	f1 f7       	brne	.-4      	; 0x1a32 <main+0x49c>
    1a36:	9a 83       	std	Y+2, r25	; 0x02
    1a38:	89 83       	std	Y+1, r24	; 0x01
    1a3a:	12 ce       	rjmp	.-988    	; 0x1660 <main+0xca>

00001a3c <__prologue_saves__>:
    1a3c:	2f 92       	push	r2
    1a3e:	3f 92       	push	r3
    1a40:	4f 92       	push	r4
    1a42:	5f 92       	push	r5
    1a44:	6f 92       	push	r6
    1a46:	7f 92       	push	r7
    1a48:	8f 92       	push	r8
    1a4a:	9f 92       	push	r9
    1a4c:	af 92       	push	r10
    1a4e:	bf 92       	push	r11
    1a50:	cf 92       	push	r12
    1a52:	df 92       	push	r13
    1a54:	ef 92       	push	r14
    1a56:	ff 92       	push	r15
    1a58:	0f 93       	push	r16
    1a5a:	1f 93       	push	r17
    1a5c:	cf 93       	push	r28
    1a5e:	df 93       	push	r29
    1a60:	cd b7       	in	r28, 0x3d	; 61
    1a62:	de b7       	in	r29, 0x3e	; 62
    1a64:	ca 1b       	sub	r28, r26
    1a66:	db 0b       	sbc	r29, r27
    1a68:	0f b6       	in	r0, 0x3f	; 63
    1a6a:	f8 94       	cli
    1a6c:	de bf       	out	0x3e, r29	; 62
    1a6e:	0f be       	out	0x3f, r0	; 63
    1a70:	cd bf       	out	0x3d, r28	; 61
    1a72:	09 94       	ijmp

00001a74 <__epilogue_restores__>:
    1a74:	2a 88       	ldd	r2, Y+18	; 0x12
    1a76:	39 88       	ldd	r3, Y+17	; 0x11
    1a78:	48 88       	ldd	r4, Y+16	; 0x10
    1a7a:	5f 84       	ldd	r5, Y+15	; 0x0f
    1a7c:	6e 84       	ldd	r6, Y+14	; 0x0e
    1a7e:	7d 84       	ldd	r7, Y+13	; 0x0d
    1a80:	8c 84       	ldd	r8, Y+12	; 0x0c
    1a82:	9b 84       	ldd	r9, Y+11	; 0x0b
    1a84:	aa 84       	ldd	r10, Y+10	; 0x0a
    1a86:	b9 84       	ldd	r11, Y+9	; 0x09
    1a88:	c8 84       	ldd	r12, Y+8	; 0x08
    1a8a:	df 80       	ldd	r13, Y+7	; 0x07
    1a8c:	ee 80       	ldd	r14, Y+6	; 0x06
    1a8e:	fd 80       	ldd	r15, Y+5	; 0x05
    1a90:	0c 81       	ldd	r16, Y+4	; 0x04
    1a92:	1b 81       	ldd	r17, Y+3	; 0x03
    1a94:	aa 81       	ldd	r26, Y+2	; 0x02
    1a96:	b9 81       	ldd	r27, Y+1	; 0x01
    1a98:	ce 0f       	add	r28, r30
    1a9a:	d1 1d       	adc	r29, r1
    1a9c:	0f b6       	in	r0, 0x3f	; 63
    1a9e:	f8 94       	cli
    1aa0:	de bf       	out	0x3e, r29	; 62
    1aa2:	0f be       	out	0x3f, r0	; 63
    1aa4:	cd bf       	out	0x3d, r28	; 61
    1aa6:	ed 01       	movw	r28, r26
    1aa8:	08 95       	ret

00001aaa <_exit>:
    1aaa:	f8 94       	cli

00001aac <__stop_program>:
    1aac:	ff cf       	rjmp	.-2      	; 0x1aac <__stop_program>
