
DIO_DriverTest.elf:     file format elf32-avr

Sections:
Idx Name          Size      VMA       LMA       File off  Algn
  0 .text         00000a0c  00000000  00000000  00000054  2**1
                  CONTENTS, ALLOC, LOAD, READONLY, CODE
  1 .stab         00000a38  00000000  00000000  00000a60  2**2
                  CONTENTS, READONLY, DEBUGGING
  2 .stabstr      00000a24  00000000  00000000  00001498  2**0
                  CONTENTS, READONLY, DEBUGGING

Disassembly of section .text:

00000000 <__vectors>:
   0:	0c 94 2a 00 	jmp	0x54	; 0x54 <__ctors_end>
   4:	0c 94 34 00 	jmp	0x68	; 0x68 <__bad_interrupt>
   8:	0c 94 34 00 	jmp	0x68	; 0x68 <__bad_interrupt>
   c:	0c 94 34 00 	jmp	0x68	; 0x68 <__bad_interrupt>
  10:	0c 94 34 00 	jmp	0x68	; 0x68 <__bad_interrupt>
  14:	0c 94 34 00 	jmp	0x68	; 0x68 <__bad_interrupt>
  18:	0c 94 34 00 	jmp	0x68	; 0x68 <__bad_interrupt>
  1c:	0c 94 34 00 	jmp	0x68	; 0x68 <__bad_interrupt>
  20:	0c 94 34 00 	jmp	0x68	; 0x68 <__bad_interrupt>
  24:	0c 94 34 00 	jmp	0x68	; 0x68 <__bad_interrupt>
  28:	0c 94 34 00 	jmp	0x68	; 0x68 <__bad_interrupt>
  2c:	0c 94 34 00 	jmp	0x68	; 0x68 <__bad_interrupt>
  30:	0c 94 34 00 	jmp	0x68	; 0x68 <__bad_interrupt>
  34:	0c 94 34 00 	jmp	0x68	; 0x68 <__bad_interrupt>
  38:	0c 94 34 00 	jmp	0x68	; 0x68 <__bad_interrupt>
  3c:	0c 94 34 00 	jmp	0x68	; 0x68 <__bad_interrupt>
  40:	0c 94 34 00 	jmp	0x68	; 0x68 <__bad_interrupt>
  44:	0c 94 34 00 	jmp	0x68	; 0x68 <__bad_interrupt>
  48:	0c 94 34 00 	jmp	0x68	; 0x68 <__bad_interrupt>
  4c:	0c 94 34 00 	jmp	0x68	; 0x68 <__bad_interrupt>
  50:	0c 94 34 00 	jmp	0x68	; 0x68 <__bad_interrupt>

00000054 <__ctors_end>:
  54:	11 24       	eor	r1, r1
  56:	1f be       	out	0x3f, r1	; 63
  58:	cf e5       	ldi	r28, 0x5F	; 95
  5a:	d8 e0       	ldi	r29, 0x08	; 8
  5c:	de bf       	out	0x3e, r29	; 62
  5e:	cd bf       	out	0x3d, r28	; 61
  60:	0e 94 d8 04 	call	0x9b0	; 0x9b0 <main>
  64:	0c 94 04 05 	jmp	0xa08	; 0xa08 <_exit>

00000068 <__bad_interrupt>:
  68:	0c 94 00 00 	jmp	0	; 0x0 <__vectors>

0000006c <MDIO_voidSetPortDirection>:
/* swc include */
#include "MDIO_private.h"
#include "MDIO_interface.h"

void MDIO_voidSetPortDirection(u8 ARG_u8Port, u8 ARG_u8Direction)
{
  6c:	df 93       	push	r29
  6e:	cf 93       	push	r28
  70:	00 d0       	rcall	.+0      	; 0x72 <MDIO_voidSetPortDirection+0x6>
  72:	00 d0       	rcall	.+0      	; 0x74 <MDIO_voidSetPortDirection+0x8>
  74:	cd b7       	in	r28, 0x3d	; 61
  76:	de b7       	in	r29, 0x3e	; 62
  78:	89 83       	std	Y+1, r24	; 0x01
  7a:	6a 83       	std	Y+2, r22	; 0x02
	switch(ARG_u8Port)
  7c:	89 81       	ldd	r24, Y+1	; 0x01
  7e:	28 2f       	mov	r18, r24
  80:	30 e0       	ldi	r19, 0x00	; 0
  82:	3c 83       	std	Y+4, r19	; 0x04
  84:	2b 83       	std	Y+3, r18	; 0x03
  86:	8b 81       	ldd	r24, Y+3	; 0x03
  88:	9c 81       	ldd	r25, Y+4	; 0x04
  8a:	82 30       	cpi	r24, 0x02	; 2
  8c:	91 05       	cpc	r25, r1
  8e:	d9 f0       	breq	.+54     	; 0xc6 <MDIO_voidSetPortDirection+0x5a>
  90:	2b 81       	ldd	r18, Y+3	; 0x03
  92:	3c 81       	ldd	r19, Y+4	; 0x04
  94:	23 30       	cpi	r18, 0x03	; 3
  96:	31 05       	cpc	r19, r1
  98:	34 f4       	brge	.+12     	; 0xa6 <MDIO_voidSetPortDirection+0x3a>
  9a:	8b 81       	ldd	r24, Y+3	; 0x03
  9c:	9c 81       	ldd	r25, Y+4	; 0x04
  9e:	81 30       	cpi	r24, 0x01	; 1
  a0:	91 05       	cpc	r25, r1
  a2:	61 f0       	breq	.+24     	; 0xbc <MDIO_voidSetPortDirection+0x50>
  a4:	1e c0       	rjmp	.+60     	; 0xe2 <MDIO_voidSetPortDirection+0x76>
  a6:	2b 81       	ldd	r18, Y+3	; 0x03
  a8:	3c 81       	ldd	r19, Y+4	; 0x04
  aa:	23 30       	cpi	r18, 0x03	; 3
  ac:	31 05       	cpc	r19, r1
  ae:	81 f0       	breq	.+32     	; 0xd0 <MDIO_voidSetPortDirection+0x64>
  b0:	8b 81       	ldd	r24, Y+3	; 0x03
  b2:	9c 81       	ldd	r25, Y+4	; 0x04
  b4:	84 30       	cpi	r24, 0x04	; 4
  b6:	91 05       	cpc	r25, r1
  b8:	81 f0       	breq	.+32     	; 0xda <MDIO_voidSetPortDirection+0x6e>
  ba:	13 c0       	rjmp	.+38     	; 0xe2 <MDIO_voidSetPortDirection+0x76>
	{
		case MDIO_PORTA:
			GPIOA->DDR = ARG_u8Direction;
  bc:	e9 e3       	ldi	r30, 0x39	; 57
  be:	f0 e0       	ldi	r31, 0x00	; 0
  c0:	8a 81       	ldd	r24, Y+2	; 0x02
  c2:	81 83       	std	Z+1, r24	; 0x01
  c4:	0e c0       	rjmp	.+28     	; 0xe2 <MDIO_voidSetPortDirection+0x76>
		break;
		case MDIO_PORTB: GPIOB->DDR = ARG_u8Direction;
  c6:	e6 e3       	ldi	r30, 0x36	; 54
  c8:	f0 e0       	ldi	r31, 0x00	; 0
  ca:	8a 81       	ldd	r24, Y+2	; 0x02
  cc:	81 83       	std	Z+1, r24	; 0x01
  ce:	09 c0       	rjmp	.+18     	; 0xe2 <MDIO_voidSetPortDirection+0x76>
		break;
		case MDIO_PORTC: GPIOC->DDR = ARG_u8Direction;
  d0:	e3 e3       	ldi	r30, 0x33	; 51
  d2:	f0 e0       	ldi	r31, 0x00	; 0
  d4:	8a 81       	ldd	r24, Y+2	; 0x02
  d6:	81 83       	std	Z+1, r24	; 0x01
  d8:	04 c0       	rjmp	.+8      	; 0xe2 <MDIO_voidSetPortDirection+0x76>
		break;
		case MDIO_PORTD: GPIOD->DDR = ARG_u8Direction;
  da:	e0 e3       	ldi	r30, 0x30	; 48
  dc:	f0 e0       	ldi	r31, 0x00	; 0
  de:	8a 81       	ldd	r24, Y+2	; 0x02
  e0:	81 83       	std	Z+1, r24	; 0x01
		break;
		default: break; /* report error*/
		
	}
}
  e2:	0f 90       	pop	r0
  e4:	0f 90       	pop	r0
  e6:	0f 90       	pop	r0
  e8:	0f 90       	pop	r0
  ea:	cf 91       	pop	r28
  ec:	df 91       	pop	r29
  ee:	08 95       	ret

000000f0 <MDIO_voidSetPortValue>:

void MDIO_voidSetPortValue(u8 ARG_u8Port, u8 ARG_u8Value){
  f0:	df 93       	push	r29
  f2:	cf 93       	push	r28
  f4:	00 d0       	rcall	.+0      	; 0xf6 <MDIO_voidSetPortValue+0x6>
  f6:	00 d0       	rcall	.+0      	; 0xf8 <MDIO_voidSetPortValue+0x8>
  f8:	cd b7       	in	r28, 0x3d	; 61
  fa:	de b7       	in	r29, 0x3e	; 62
  fc:	89 83       	std	Y+1, r24	; 0x01
  fe:	6a 83       	std	Y+2, r22	; 0x02
	switch(ARG_u8Port)
 100:	89 81       	ldd	r24, Y+1	; 0x01
 102:	28 2f       	mov	r18, r24
 104:	30 e0       	ldi	r19, 0x00	; 0
 106:	3c 83       	std	Y+4, r19	; 0x04
 108:	2b 83       	std	Y+3, r18	; 0x03
 10a:	8b 81       	ldd	r24, Y+3	; 0x03
 10c:	9c 81       	ldd	r25, Y+4	; 0x04
 10e:	82 30       	cpi	r24, 0x02	; 2
 110:	91 05       	cpc	r25, r1
 112:	d9 f0       	breq	.+54     	; 0x14a <MDIO_voidSetPortValue+0x5a>
 114:	2b 81       	ldd	r18, Y+3	; 0x03
 116:	3c 81       	ldd	r19, Y+4	; 0x04
 118:	23 30       	cpi	r18, 0x03	; 3
 11a:	31 05       	cpc	r19, r1
 11c:	34 f4       	brge	.+12     	; 0x12a <MDIO_voidSetPortValue+0x3a>
 11e:	8b 81       	ldd	r24, Y+3	; 0x03
 120:	9c 81       	ldd	r25, Y+4	; 0x04
 122:	81 30       	cpi	r24, 0x01	; 1
 124:	91 05       	cpc	r25, r1
 126:	61 f0       	breq	.+24     	; 0x140 <MDIO_voidSetPortValue+0x50>
 128:	1e c0       	rjmp	.+60     	; 0x166 <MDIO_voidSetPortValue+0x76>
 12a:	2b 81       	ldd	r18, Y+3	; 0x03
 12c:	3c 81       	ldd	r19, Y+4	; 0x04
 12e:	23 30       	cpi	r18, 0x03	; 3
 130:	31 05       	cpc	r19, r1
 132:	81 f0       	breq	.+32     	; 0x154 <MDIO_voidSetPortValue+0x64>
 134:	8b 81       	ldd	r24, Y+3	; 0x03
 136:	9c 81       	ldd	r25, Y+4	; 0x04
 138:	84 30       	cpi	r24, 0x04	; 4
 13a:	91 05       	cpc	r25, r1
 13c:	81 f0       	breq	.+32     	; 0x15e <MDIO_voidSetPortValue+0x6e>
 13e:	13 c0       	rjmp	.+38     	; 0x166 <MDIO_voidSetPortValue+0x76>
	{
		case MDIO_PORTA:GPIOA->PORT = ARG_u8Value; break;
 140:	e9 e3       	ldi	r30, 0x39	; 57
 142:	f0 e0       	ldi	r31, 0x00	; 0
 144:	8a 81       	ldd	r24, Y+2	; 0x02
 146:	82 83       	std	Z+2, r24	; 0x02
 148:	0e c0       	rjmp	.+28     	; 0x166 <MDIO_voidSetPortValue+0x76>
		case MDIO_PORTB:GPIOB->PORT = ARG_u8Value; break;
 14a:	e6 e3       	ldi	r30, 0x36	; 54
 14c:	f0 e0       	ldi	r31, 0x00	; 0
 14e:	8a 81       	ldd	r24, Y+2	; 0x02
 150:	82 83       	std	Z+2, r24	; 0x02
 152:	09 c0       	rjmp	.+18     	; 0x166 <MDIO_voidSetPortValue+0x76>
		case MDIO_PORTC:GPIOC->PORT = ARG_u8Value; break;
 154:	e3 e3       	ldi	r30, 0x33	; 51
 156:	f0 e0       	ldi	r31, 0x00	; 0
 158:	8a 81       	ldd	r24, Y+2	; 0x02
 15a:	82 83       	std	Z+2, r24	; 0x02
 15c:	04 c0       	rjmp	.+8      	; 0x166 <MDIO_voidSetPortValue+0x76>
		case MDIO_PORTD:GPIOD->PORT = ARG_u8Value; break;
 15e:	e0 e3       	ldi	r30, 0x30	; 48
 160:	f0 e0       	ldi	r31, 0x00	; 0
 162:	8a 81       	ldd	r24, Y+2	; 0x02
 164:	82 83       	std	Z+2, r24	; 0x02
		default: break; /* report error*/
		
	}
}
 166:	0f 90       	pop	r0
 168:	0f 90       	pop	r0
 16a:	0f 90       	pop	r0
 16c:	0f 90       	pop	r0
 16e:	cf 91       	pop	r28
 170:	df 91       	pop	r29
 172:	08 95       	ret

00000174 <MDIO_u8GetPortValue>:

u8 MDIO_u8GetPortValue(u8 ARG_u8Port){
 174:	df 93       	push	r29
 176:	cf 93       	push	r28
 178:	00 d0       	rcall	.+0      	; 0x17a <MDIO_u8GetPortValue+0x6>
 17a:	00 d0       	rcall	.+0      	; 0x17c <MDIO_u8GetPortValue+0x8>
 17c:	cd b7       	in	r28, 0x3d	; 61
 17e:	de b7       	in	r29, 0x3e	; 62
 180:	8a 83       	std	Y+2, r24	; 0x02
	u8 L_u8PortValueReturn=0;
 182:	19 82       	std	Y+1, r1	; 0x01
	switch(ARG_u8Port)
 184:	8a 81       	ldd	r24, Y+2	; 0x02
 186:	28 2f       	mov	r18, r24
 188:	30 e0       	ldi	r19, 0x00	; 0
 18a:	3c 83       	std	Y+4, r19	; 0x04
 18c:	2b 83       	std	Y+3, r18	; 0x03
 18e:	8b 81       	ldd	r24, Y+3	; 0x03
 190:	9c 81       	ldd	r25, Y+4	; 0x04
 192:	82 30       	cpi	r24, 0x02	; 2
 194:	91 05       	cpc	r25, r1
 196:	d9 f0       	breq	.+54     	; 0x1ce <MDIO_u8GetPortValue+0x5a>
 198:	2b 81       	ldd	r18, Y+3	; 0x03
 19a:	3c 81       	ldd	r19, Y+4	; 0x04
 19c:	23 30       	cpi	r18, 0x03	; 3
 19e:	31 05       	cpc	r19, r1
 1a0:	34 f4       	brge	.+12     	; 0x1ae <MDIO_u8GetPortValue+0x3a>
 1a2:	8b 81       	ldd	r24, Y+3	; 0x03
 1a4:	9c 81       	ldd	r25, Y+4	; 0x04
 1a6:	81 30       	cpi	r24, 0x01	; 1
 1a8:	91 05       	cpc	r25, r1
 1aa:	61 f0       	breq	.+24     	; 0x1c4 <MDIO_u8GetPortValue+0x50>
 1ac:	1e c0       	rjmp	.+60     	; 0x1ea <MDIO_u8GetPortValue+0x76>
 1ae:	2b 81       	ldd	r18, Y+3	; 0x03
 1b0:	3c 81       	ldd	r19, Y+4	; 0x04
 1b2:	23 30       	cpi	r18, 0x03	; 3
 1b4:	31 05       	cpc	r19, r1
 1b6:	81 f0       	breq	.+32     	; 0x1d8 <MDIO_u8GetPortValue+0x64>
 1b8:	8b 81       	ldd	r24, Y+3	; 0x03
 1ba:	9c 81       	ldd	r25, Y+4	; 0x04
 1bc:	84 30       	cpi	r24, 0x04	; 4
 1be:	91 05       	cpc	r25, r1
 1c0:	81 f0       	breq	.+32     	; 0x1e2 <MDIO_u8GetPortValue+0x6e>
 1c2:	13 c0       	rjmp	.+38     	; 0x1ea <MDIO_u8GetPortValue+0x76>
	{
		case MDIO_PORTA: L_u8PortValueReturn = GPIOA->PIN; break;
 1c4:	e9 e3       	ldi	r30, 0x39	; 57
 1c6:	f0 e0       	ldi	r31, 0x00	; 0
 1c8:	80 81       	ld	r24, Z
 1ca:	89 83       	std	Y+1, r24	; 0x01
 1cc:	0e c0       	rjmp	.+28     	; 0x1ea <MDIO_u8GetPortValue+0x76>
	    case MDIO_PORTB: L_u8PortValueReturn = GPIOA->PIN; break;
 1ce:	e9 e3       	ldi	r30, 0x39	; 57
 1d0:	f0 e0       	ldi	r31, 0x00	; 0
 1d2:	80 81       	ld	r24, Z
 1d4:	89 83       	std	Y+1, r24	; 0x01
 1d6:	09 c0       	rjmp	.+18     	; 0x1ea <MDIO_u8GetPortValue+0x76>
        case MDIO_PORTC: L_u8PortValueReturn = GPIOA->PIN; break;
 1d8:	e9 e3       	ldi	r30, 0x39	; 57
 1da:	f0 e0       	ldi	r31, 0x00	; 0
 1dc:	80 81       	ld	r24, Z
 1de:	89 83       	std	Y+1, r24	; 0x01
 1e0:	04 c0       	rjmp	.+8      	; 0x1ea <MDIO_u8GetPortValue+0x76>
        case MDIO_PORTD: L_u8PortValueReturn = GPIOA->PIN; break;
 1e2:	e9 e3       	ldi	r30, 0x39	; 57
 1e4:	f0 e0       	ldi	r31, 0x00	; 0
 1e6:	80 81       	ld	r24, Z
 1e8:	89 83       	std	Y+1, r24	; 0x01
		default: break;  /* report error*/
	}
	return L_u8PortValueReturn;
 1ea:	89 81       	ldd	r24, Y+1	; 0x01
}	
 1ec:	0f 90       	pop	r0
 1ee:	0f 90       	pop	r0
 1f0:	0f 90       	pop	r0
 1f2:	0f 90       	pop	r0
 1f4:	cf 91       	pop	r28
 1f6:	df 91       	pop	r29
 1f8:	08 95       	ret

000001fa <MDIO_voidSetPinDirection>:

void MDIO_voidSetPinDirection(u8 ARG_u8Port,u8 ARG_u8Pin, u8 ARG_u8Direction)
{
 1fa:	df 93       	push	r29
 1fc:	cf 93       	push	r28
 1fe:	00 d0       	rcall	.+0      	; 0x200 <MDIO_voidSetPinDirection+0x6>
 200:	00 d0       	rcall	.+0      	; 0x202 <MDIO_voidSetPinDirection+0x8>
 202:	0f 92       	push	r0
 204:	cd b7       	in	r28, 0x3d	; 61
 206:	de b7       	in	r29, 0x3e	; 62
 208:	89 83       	std	Y+1, r24	; 0x01
 20a:	6a 83       	std	Y+2, r22	; 0x02
 20c:	4b 83       	std	Y+3, r20	; 0x03
	
	switch(ARG_u8Port)
 20e:	89 81       	ldd	r24, Y+1	; 0x01
 210:	28 2f       	mov	r18, r24
 212:	30 e0       	ldi	r19, 0x00	; 0
 214:	3d 83       	std	Y+5, r19	; 0x05
 216:	2c 83       	std	Y+4, r18	; 0x04
 218:	6c 81       	ldd	r22, Y+4	; 0x04
 21a:	7d 81       	ldd	r23, Y+5	; 0x05
 21c:	62 30       	cpi	r22, 0x02	; 2
 21e:	71 05       	cpc	r23, r1
 220:	09 f4       	brne	.+2      	; 0x224 <MDIO_voidSetPinDirection+0x2a>
 222:	44 c0       	rjmp	.+136    	; 0x2ac <MDIO_voidSetPinDirection+0xb2>
 224:	8c 81       	ldd	r24, Y+4	; 0x04
 226:	9d 81       	ldd	r25, Y+5	; 0x05
 228:	83 30       	cpi	r24, 0x03	; 3
 22a:	91 05       	cpc	r25, r1
 22c:	34 f4       	brge	.+12     	; 0x23a <MDIO_voidSetPinDirection+0x40>
 22e:	2c 81       	ldd	r18, Y+4	; 0x04
 230:	3d 81       	ldd	r19, Y+5	; 0x05
 232:	21 30       	cpi	r18, 0x01	; 1
 234:	31 05       	cpc	r19, r1
 236:	71 f0       	breq	.+28     	; 0x254 <MDIO_voidSetPinDirection+0x5a>
 238:	bc c0       	rjmp	.+376    	; 0x3b2 <MDIO_voidSetPinDirection+0x1b8>
 23a:	6c 81       	ldd	r22, Y+4	; 0x04
 23c:	7d 81       	ldd	r23, Y+5	; 0x05
 23e:	63 30       	cpi	r22, 0x03	; 3
 240:	71 05       	cpc	r23, r1
 242:	09 f4       	brne	.+2      	; 0x246 <MDIO_voidSetPinDirection+0x4c>
 244:	5f c0       	rjmp	.+190    	; 0x304 <MDIO_voidSetPinDirection+0x10a>
 246:	8c 81       	ldd	r24, Y+4	; 0x04
 248:	9d 81       	ldd	r25, Y+5	; 0x05
 24a:	84 30       	cpi	r24, 0x04	; 4
 24c:	91 05       	cpc	r25, r1
 24e:	09 f4       	brne	.+2      	; 0x252 <MDIO_voidSetPinDirection+0x58>
 250:	85 c0       	rjmp	.+266    	; 0x35c <MDIO_voidSetPinDirection+0x162>
 252:	af c0       	rjmp	.+350    	; 0x3b2 <MDIO_voidSetPinDirection+0x1b8>
	{
		case MDIO_PORTA:
			GPIOA->DDR &= ~(1<<ARG_u8Pin); /* Clear bit*/
 254:	a9 e3       	ldi	r26, 0x39	; 57
 256:	b0 e0       	ldi	r27, 0x00	; 0
 258:	e9 e3       	ldi	r30, 0x39	; 57
 25a:	f0 e0       	ldi	r31, 0x00	; 0
 25c:	81 81       	ldd	r24, Z+1	; 0x01
 25e:	48 2f       	mov	r20, r24
 260:	8a 81       	ldd	r24, Y+2	; 0x02
 262:	28 2f       	mov	r18, r24
 264:	30 e0       	ldi	r19, 0x00	; 0
 266:	81 e0       	ldi	r24, 0x01	; 1
 268:	90 e0       	ldi	r25, 0x00	; 0
 26a:	02 c0       	rjmp	.+4      	; 0x270 <MDIO_voidSetPinDirection+0x76>
 26c:	88 0f       	add	r24, r24
 26e:	99 1f       	adc	r25, r25
 270:	2a 95       	dec	r18
 272:	e2 f7       	brpl	.-8      	; 0x26c <MDIO_voidSetPinDirection+0x72>
 274:	80 95       	com	r24
 276:	84 23       	and	r24, r20
 278:	11 96       	adiw	r26, 0x01	; 1
 27a:	8c 93       	st	X, r24
			GPIOA->DDR |= (ARG_u8Direction<<ARG_u8Pin); /* assign the Direction */
 27c:	a9 e3       	ldi	r26, 0x39	; 57
 27e:	b0 e0       	ldi	r27, 0x00	; 0
 280:	e9 e3       	ldi	r30, 0x39	; 57
 282:	f0 e0       	ldi	r31, 0x00	; 0
 284:	81 81       	ldd	r24, Z+1	; 0x01
 286:	48 2f       	mov	r20, r24
 288:	8b 81       	ldd	r24, Y+3	; 0x03
 28a:	28 2f       	mov	r18, r24
 28c:	30 e0       	ldi	r19, 0x00	; 0
 28e:	8a 81       	ldd	r24, Y+2	; 0x02
 290:	88 2f       	mov	r24, r24
 292:	90 e0       	ldi	r25, 0x00	; 0
 294:	b9 01       	movw	r22, r18
 296:	02 c0       	rjmp	.+4      	; 0x29c <MDIO_voidSetPinDirection+0xa2>
 298:	66 0f       	add	r22, r22
 29a:	77 1f       	adc	r23, r23
 29c:	8a 95       	dec	r24
 29e:	e2 f7       	brpl	.-8      	; 0x298 <MDIO_voidSetPinDirection+0x9e>
 2a0:	cb 01       	movw	r24, r22
 2a2:	84 2b       	or	r24, r20
 2a4:	11 96       	adiw	r26, 0x01	; 1
 2a6:	8c 93       	st	X, r24
 2a8:	11 97       	sbiw	r26, 0x01	; 1
 2aa:	83 c0       	rjmp	.+262    	; 0x3b2 <MDIO_voidSetPinDirection+0x1b8>
		break;
		case MDIO_PORTB:
			GPIOB->DDR &= ~(1<<ARG_u8Pin); /* Clear bit*/
 2ac:	a6 e3       	ldi	r26, 0x36	; 54
 2ae:	b0 e0       	ldi	r27, 0x00	; 0
 2b0:	e6 e3       	ldi	r30, 0x36	; 54
 2b2:	f0 e0       	ldi	r31, 0x00	; 0
 2b4:	81 81       	ldd	r24, Z+1	; 0x01
 2b6:	48 2f       	mov	r20, r24
 2b8:	8a 81       	ldd	r24, Y+2	; 0x02
 2ba:	28 2f       	mov	r18, r24
 2bc:	30 e0       	ldi	r19, 0x00	; 0
 2be:	81 e0       	ldi	r24, 0x01	; 1
 2c0:	90 e0       	ldi	r25, 0x00	; 0
 2c2:	02 c0       	rjmp	.+4      	; 0x2c8 <MDIO_voidSetPinDirection+0xce>
 2c4:	88 0f       	add	r24, r24
 2c6:	99 1f       	adc	r25, r25
 2c8:	2a 95       	dec	r18
 2ca:	e2 f7       	brpl	.-8      	; 0x2c4 <MDIO_voidSetPinDirection+0xca>
 2cc:	80 95       	com	r24
 2ce:	84 23       	and	r24, r20
 2d0:	11 96       	adiw	r26, 0x01	; 1
 2d2:	8c 93       	st	X, r24
			GPIOB->DDR |= (ARG_u8Direction<<ARG_u8Pin); /* assign the Direction */
 2d4:	a6 e3       	ldi	r26, 0x36	; 54
 2d6:	b0 e0       	ldi	r27, 0x00	; 0
 2d8:	e6 e3       	ldi	r30, 0x36	; 54
 2da:	f0 e0       	ldi	r31, 0x00	; 0
 2dc:	81 81       	ldd	r24, Z+1	; 0x01
 2de:	48 2f       	mov	r20, r24
 2e0:	8b 81       	ldd	r24, Y+3	; 0x03
 2e2:	28 2f       	mov	r18, r24
 2e4:	30 e0       	ldi	r19, 0x00	; 0
 2e6:	8a 81       	ldd	r24, Y+2	; 0x02
 2e8:	88 2f       	mov	r24, r24
 2ea:	90 e0       	ldi	r25, 0x00	; 0
 2ec:	b9 01       	movw	r22, r18
 2ee:	02 c0       	rjmp	.+4      	; 0x2f4 <MDIO_voidSetPinDirection+0xfa>
 2f0:	66 0f       	add	r22, r22
 2f2:	77 1f       	adc	r23, r23
 2f4:	8a 95       	dec	r24
 2f6:	e2 f7       	brpl	.-8      	; 0x2f0 <MDIO_voidSetPinDirection+0xf6>
 2f8:	cb 01       	movw	r24, r22
 2fa:	84 2b       	or	r24, r20
 2fc:	11 96       	adiw	r26, 0x01	; 1
 2fe:	8c 93       	st	X, r24
 300:	11 97       	sbiw	r26, 0x01	; 1
 302:	57 c0       	rjmp	.+174    	; 0x3b2 <MDIO_voidSetPinDirection+0x1b8>
		break;
		case MDIO_PORTC:
			GPIOD->DDR &= ~(1<<ARG_u8Pin); /* Clear bit*/
 304:	a0 e3       	ldi	r26, 0x30	; 48
 306:	b0 e0       	ldi	r27, 0x00	; 0
 308:	e0 e3       	ldi	r30, 0x30	; 48
 30a:	f0 e0       	ldi	r31, 0x00	; 0
 30c:	81 81       	ldd	r24, Z+1	; 0x01
 30e:	48 2f       	mov	r20, r24
 310:	8a 81       	ldd	r24, Y+2	; 0x02
 312:	28 2f       	mov	r18, r24
 314:	30 e0       	ldi	r19, 0x00	; 0
 316:	81 e0       	ldi	r24, 0x01	; 1
 318:	90 e0       	ldi	r25, 0x00	; 0
 31a:	02 c0       	rjmp	.+4      	; 0x320 <MDIO_voidSetPinDirection+0x126>
 31c:	88 0f       	add	r24, r24
 31e:	99 1f       	adc	r25, r25
 320:	2a 95       	dec	r18
 322:	e2 f7       	brpl	.-8      	; 0x31c <MDIO_voidSetPinDirection+0x122>
 324:	80 95       	com	r24
 326:	84 23       	and	r24, r20
 328:	11 96       	adiw	r26, 0x01	; 1
 32a:	8c 93       	st	X, r24
		    GPIOD->DDR |= (ARG_u8Direction<<ARG_u8Pin); /* assign the Direction */
 32c:	a0 e3       	ldi	r26, 0x30	; 48
 32e:	b0 e0       	ldi	r27, 0x00	; 0
 330:	e0 e3       	ldi	r30, 0x30	; 48
 332:	f0 e0       	ldi	r31, 0x00	; 0
 334:	81 81       	ldd	r24, Z+1	; 0x01
 336:	48 2f       	mov	r20, r24
 338:	8b 81       	ldd	r24, Y+3	; 0x03
 33a:	28 2f       	mov	r18, r24
 33c:	30 e0       	ldi	r19, 0x00	; 0
 33e:	8a 81       	ldd	r24, Y+2	; 0x02
 340:	88 2f       	mov	r24, r24
 342:	90 e0       	ldi	r25, 0x00	; 0
 344:	b9 01       	movw	r22, r18
 346:	02 c0       	rjmp	.+4      	; 0x34c <MDIO_voidSetPinDirection+0x152>
 348:	66 0f       	add	r22, r22
 34a:	77 1f       	adc	r23, r23
 34c:	8a 95       	dec	r24
 34e:	e2 f7       	brpl	.-8      	; 0x348 <MDIO_voidSetPinDirection+0x14e>
 350:	cb 01       	movw	r24, r22
 352:	84 2b       	or	r24, r20
 354:	11 96       	adiw	r26, 0x01	; 1
 356:	8c 93       	st	X, r24
 358:	11 97       	sbiw	r26, 0x01	; 1
 35a:	2b c0       	rjmp	.+86     	; 0x3b2 <MDIO_voidSetPinDirection+0x1b8>
		break;
		case MDIO_PORTD:
			GPIOD->DDR &= ~(1<<ARG_u8Pin); /* Clear bit*/
 35c:	a0 e3       	ldi	r26, 0x30	; 48
 35e:	b0 e0       	ldi	r27, 0x00	; 0
 360:	e0 e3       	ldi	r30, 0x30	; 48
 362:	f0 e0       	ldi	r31, 0x00	; 0
 364:	81 81       	ldd	r24, Z+1	; 0x01
 366:	48 2f       	mov	r20, r24
 368:	8a 81       	ldd	r24, Y+2	; 0x02
 36a:	28 2f       	mov	r18, r24
 36c:	30 e0       	ldi	r19, 0x00	; 0
 36e:	81 e0       	ldi	r24, 0x01	; 1
 370:	90 e0       	ldi	r25, 0x00	; 0
 372:	02 c0       	rjmp	.+4      	; 0x378 <MDIO_voidSetPinDirection+0x17e>
 374:	88 0f       	add	r24, r24
 376:	99 1f       	adc	r25, r25
 378:	2a 95       	dec	r18
 37a:	e2 f7       	brpl	.-8      	; 0x374 <MDIO_voidSetPinDirection+0x17a>
 37c:	80 95       	com	r24
 37e:	84 23       	and	r24, r20
 380:	11 96       	adiw	r26, 0x01	; 1
 382:	8c 93       	st	X, r24
		    GPIOD->DDR |= (ARG_u8Direction<<ARG_u8Pin); /* assign the Direction */
 384:	a0 e3       	ldi	r26, 0x30	; 48
 386:	b0 e0       	ldi	r27, 0x00	; 0
 388:	e0 e3       	ldi	r30, 0x30	; 48
 38a:	f0 e0       	ldi	r31, 0x00	; 0
 38c:	81 81       	ldd	r24, Z+1	; 0x01
 38e:	48 2f       	mov	r20, r24
 390:	8b 81       	ldd	r24, Y+3	; 0x03
 392:	28 2f       	mov	r18, r24
 394:	30 e0       	ldi	r19, 0x00	; 0
 396:	8a 81       	ldd	r24, Y+2	; 0x02
 398:	88 2f       	mov	r24, r24
 39a:	90 e0       	ldi	r25, 0x00	; 0
 39c:	b9 01       	movw	r22, r18
 39e:	02 c0       	rjmp	.+4      	; 0x3a4 <MDIO_voidSetPinDirection+0x1aa>
 3a0:	66 0f       	add	r22, r22
 3a2:	77 1f       	adc	r23, r23
 3a4:	8a 95       	dec	r24
 3a6:	e2 f7       	brpl	.-8      	; 0x3a0 <MDIO_voidSetPinDirection+0x1a6>
 3a8:	cb 01       	movw	r24, r22
 3aa:	84 2b       	or	r24, r20
 3ac:	11 96       	adiw	r26, 0x01	; 1
 3ae:	8c 93       	st	X, r24
 3b0:	11 97       	sbiw	r26, 0x01	; 1
		break;
		default: break; /* report error*/
		
	}
}
 3b2:	0f 90       	pop	r0
 3b4:	0f 90       	pop	r0
 3b6:	0f 90       	pop	r0
 3b8:	0f 90       	pop	r0
 3ba:	0f 90       	pop	r0
 3bc:	cf 91       	pop	r28
 3be:	df 91       	pop	r29
 3c0:	08 95       	ret

000003c2 <MDIO_voidSetPinValue>:

void MDIO_voidSetPinValue(u8 ARG_u8Port,u8 ARG_u8Pin,u8 ARG_u8Value)
{
 3c2:	df 93       	push	r29
 3c4:	cf 93       	push	r28
 3c6:	00 d0       	rcall	.+0      	; 0x3c8 <MDIO_voidSetPinValue+0x6>
 3c8:	00 d0       	rcall	.+0      	; 0x3ca <MDIO_voidSetPinValue+0x8>
 3ca:	0f 92       	push	r0
 3cc:	cd b7       	in	r28, 0x3d	; 61
 3ce:	de b7       	in	r29, 0x3e	; 62
 3d0:	89 83       	std	Y+1, r24	; 0x01
 3d2:	6a 83       	std	Y+2, r22	; 0x02
 3d4:	4b 83       	std	Y+3, r20	; 0x03
	switch(ARG_u8Port)
 3d6:	89 81       	ldd	r24, Y+1	; 0x01
 3d8:	28 2f       	mov	r18, r24
 3da:	30 e0       	ldi	r19, 0x00	; 0
 3dc:	3d 83       	std	Y+5, r19	; 0x05
 3de:	2c 83       	std	Y+4, r18	; 0x04
 3e0:	6c 81       	ldd	r22, Y+4	; 0x04
 3e2:	7d 81       	ldd	r23, Y+5	; 0x05
 3e4:	62 30       	cpi	r22, 0x02	; 2
 3e6:	71 05       	cpc	r23, r1
 3e8:	09 f4       	brne	.+2      	; 0x3ec <MDIO_voidSetPinValue+0x2a>
 3ea:	44 c0       	rjmp	.+136    	; 0x474 <MDIO_voidSetPinValue+0xb2>
 3ec:	8c 81       	ldd	r24, Y+4	; 0x04
 3ee:	9d 81       	ldd	r25, Y+5	; 0x05
 3f0:	83 30       	cpi	r24, 0x03	; 3
 3f2:	91 05       	cpc	r25, r1
 3f4:	34 f4       	brge	.+12     	; 0x402 <MDIO_voidSetPinValue+0x40>
 3f6:	2c 81       	ldd	r18, Y+4	; 0x04
 3f8:	3d 81       	ldd	r19, Y+5	; 0x05
 3fa:	21 30       	cpi	r18, 0x01	; 1
 3fc:	31 05       	cpc	r19, r1
 3fe:	71 f0       	breq	.+28     	; 0x41c <MDIO_voidSetPinValue+0x5a>
 400:	bc c0       	rjmp	.+376    	; 0x57a <MDIO_voidSetPinValue+0x1b8>
 402:	6c 81       	ldd	r22, Y+4	; 0x04
 404:	7d 81       	ldd	r23, Y+5	; 0x05
 406:	63 30       	cpi	r22, 0x03	; 3
 408:	71 05       	cpc	r23, r1
 40a:	09 f4       	brne	.+2      	; 0x40e <MDIO_voidSetPinValue+0x4c>
 40c:	5f c0       	rjmp	.+190    	; 0x4cc <MDIO_voidSetPinValue+0x10a>
 40e:	8c 81       	ldd	r24, Y+4	; 0x04
 410:	9d 81       	ldd	r25, Y+5	; 0x05
 412:	84 30       	cpi	r24, 0x04	; 4
 414:	91 05       	cpc	r25, r1
 416:	09 f4       	brne	.+2      	; 0x41a <MDIO_voidSetPinValue+0x58>
 418:	85 c0       	rjmp	.+266    	; 0x524 <MDIO_voidSetPinValue+0x162>
 41a:	af c0       	rjmp	.+350    	; 0x57a <MDIO_voidSetPinValue+0x1b8>
	{
		case MDIO_PORTA:
			GPIOA->PORT &= ~(1<<ARG_u8Pin); /* Clear bit*/
 41c:	a9 e3       	ldi	r26, 0x39	; 57
 41e:	b0 e0       	ldi	r27, 0x00	; 0
 420:	e9 e3       	ldi	r30, 0x39	; 57
 422:	f0 e0       	ldi	r31, 0x00	; 0
 424:	82 81       	ldd	r24, Z+2	; 0x02
 426:	48 2f       	mov	r20, r24
 428:	8a 81       	ldd	r24, Y+2	; 0x02
 42a:	28 2f       	mov	r18, r24
 42c:	30 e0       	ldi	r19, 0x00	; 0
 42e:	81 e0       	ldi	r24, 0x01	; 1
 430:	90 e0       	ldi	r25, 0x00	; 0
 432:	02 c0       	rjmp	.+4      	; 0x438 <MDIO_voidSetPinValue+0x76>
 434:	88 0f       	add	r24, r24
 436:	99 1f       	adc	r25, r25
 438:	2a 95       	dec	r18
 43a:	e2 f7       	brpl	.-8      	; 0x434 <MDIO_voidSetPinValue+0x72>
 43c:	80 95       	com	r24
 43e:	84 23       	and	r24, r20
 440:	12 96       	adiw	r26, 0x02	; 2
 442:	8c 93       	st	X, r24
			GPIOA->PORT |= (ARG_u8Value<<ARG_u8Pin); /* assign the Direction */
 444:	a9 e3       	ldi	r26, 0x39	; 57
 446:	b0 e0       	ldi	r27, 0x00	; 0
 448:	e9 e3       	ldi	r30, 0x39	; 57
 44a:	f0 e0       	ldi	r31, 0x00	; 0
 44c:	82 81       	ldd	r24, Z+2	; 0x02
 44e:	48 2f       	mov	r20, r24
 450:	8b 81       	ldd	r24, Y+3	; 0x03
 452:	28 2f       	mov	r18, r24
 454:	30 e0       	ldi	r19, 0x00	; 0
 456:	8a 81       	ldd	r24, Y+2	; 0x02
 458:	88 2f       	mov	r24, r24
 45a:	90 e0       	ldi	r25, 0x00	; 0
 45c:	b9 01       	movw	r22, r18
 45e:	02 c0       	rjmp	.+4      	; 0x464 <MDIO_voidSetPinValue+0xa2>
 460:	66 0f       	add	r22, r22
 462:	77 1f       	adc	r23, r23
 464:	8a 95       	dec	r24
 466:	e2 f7       	brpl	.-8      	; 0x460 <MDIO_voidSetPinValue+0x9e>
 468:	cb 01       	movw	r24, r22
 46a:	84 2b       	or	r24, r20
 46c:	12 96       	adiw	r26, 0x02	; 2
 46e:	8c 93       	st	X, r24
 470:	12 97       	sbiw	r26, 0x02	; 2
 472:	83 c0       	rjmp	.+262    	; 0x57a <MDIO_voidSetPinValue+0x1b8>
		break;
		case MDIO_PORTB:
			GPIOB->PORT &= ~(1<<ARG_u8Pin); /* Clear bit*/
 474:	a6 e3       	ldi	r26, 0x36	; 54
 476:	b0 e0       	ldi	r27, 0x00	; 0
 478:	e6 e3       	ldi	r30, 0x36	; 54
 47a:	f0 e0       	ldi	r31, 0x00	; 0
 47c:	82 81       	ldd	r24, Z+2	; 0x02
 47e:	48 2f       	mov	r20, r24
 480:	8a 81       	ldd	r24, Y+2	; 0x02
 482:	28 2f       	mov	r18, r24
 484:	30 e0       	ldi	r19, 0x00	; 0
 486:	81 e0       	ldi	r24, 0x01	; 1
 488:	90 e0       	ldi	r25, 0x00	; 0
 48a:	02 c0       	rjmp	.+4      	; 0x490 <MDIO_voidSetPinValue+0xce>
 48c:	88 0f       	add	r24, r24
 48e:	99 1f       	adc	r25, r25
 490:	2a 95       	dec	r18
 492:	e2 f7       	brpl	.-8      	; 0x48c <MDIO_voidSetPinValue+0xca>
 494:	80 95       	com	r24
 496:	84 23       	and	r24, r20
 498:	12 96       	adiw	r26, 0x02	; 2
 49a:	8c 93       	st	X, r24
			GPIOB->PORT |= (ARG_u8Value<<ARG_u8Pin); /* assign the Direction */
 49c:	a6 e3       	ldi	r26, 0x36	; 54
 49e:	b0 e0       	ldi	r27, 0x00	; 0
 4a0:	e6 e3       	ldi	r30, 0x36	; 54
 4a2:	f0 e0       	ldi	r31, 0x00	; 0
 4a4:	82 81       	ldd	r24, Z+2	; 0x02
 4a6:	48 2f       	mov	r20, r24
 4a8:	8b 81       	ldd	r24, Y+3	; 0x03
 4aa:	28 2f       	mov	r18, r24
 4ac:	30 e0       	ldi	r19, 0x00	; 0
 4ae:	8a 81       	ldd	r24, Y+2	; 0x02
 4b0:	88 2f       	mov	r24, r24
 4b2:	90 e0       	ldi	r25, 0x00	; 0
 4b4:	b9 01       	movw	r22, r18
 4b6:	02 c0       	rjmp	.+4      	; 0x4bc <MDIO_voidSetPinValue+0xfa>
 4b8:	66 0f       	add	r22, r22
 4ba:	77 1f       	adc	r23, r23
 4bc:	8a 95       	dec	r24
 4be:	e2 f7       	brpl	.-8      	; 0x4b8 <MDIO_voidSetPinValue+0xf6>
 4c0:	cb 01       	movw	r24, r22
 4c2:	84 2b       	or	r24, r20
 4c4:	12 96       	adiw	r26, 0x02	; 2
 4c6:	8c 93       	st	X, r24
 4c8:	12 97       	sbiw	r26, 0x02	; 2
 4ca:	57 c0       	rjmp	.+174    	; 0x57a <MDIO_voidSetPinValue+0x1b8>
		break;
		case MDIO_PORTC:
			GPIOD->PORT &= ~(1<<ARG_u8Pin); /* Clear bit*/
 4cc:	a0 e3       	ldi	r26, 0x30	; 48
 4ce:	b0 e0       	ldi	r27, 0x00	; 0
 4d0:	e0 e3       	ldi	r30, 0x30	; 48
 4d2:	f0 e0       	ldi	r31, 0x00	; 0
 4d4:	82 81       	ldd	r24, Z+2	; 0x02
 4d6:	48 2f       	mov	r20, r24
 4d8:	8a 81       	ldd	r24, Y+2	; 0x02
 4da:	28 2f       	mov	r18, r24
 4dc:	30 e0       	ldi	r19, 0x00	; 0
 4de:	81 e0       	ldi	r24, 0x01	; 1
 4e0:	90 e0       	ldi	r25, 0x00	; 0
 4e2:	02 c0       	rjmp	.+4      	; 0x4e8 <MDIO_voidSetPinValue+0x126>
 4e4:	88 0f       	add	r24, r24
 4e6:	99 1f       	adc	r25, r25
 4e8:	2a 95       	dec	r18
 4ea:	e2 f7       	brpl	.-8      	; 0x4e4 <MDIO_voidSetPinValue+0x122>
 4ec:	80 95       	com	r24
 4ee:	84 23       	and	r24, r20
 4f0:	12 96       	adiw	r26, 0x02	; 2
 4f2:	8c 93       	st	X, r24
		    GPIOD->PORT |= (ARG_u8Value<<ARG_u8Pin); /* assign the Direction */
 4f4:	a0 e3       	ldi	r26, 0x30	; 48
 4f6:	b0 e0       	ldi	r27, 0x00	; 0
 4f8:	e0 e3       	ldi	r30, 0x30	; 48
 4fa:	f0 e0       	ldi	r31, 0x00	; 0
 4fc:	82 81       	ldd	r24, Z+2	; 0x02
 4fe:	48 2f       	mov	r20, r24
 500:	8b 81       	ldd	r24, Y+3	; 0x03
 502:	28 2f       	mov	r18, r24
 504:	30 e0       	ldi	r19, 0x00	; 0
 506:	8a 81       	ldd	r24, Y+2	; 0x02
 508:	88 2f       	mov	r24, r24
 50a:	90 e0       	ldi	r25, 0x00	; 0
 50c:	b9 01       	movw	r22, r18
 50e:	02 c0       	rjmp	.+4      	; 0x514 <MDIO_voidSetPinValue+0x152>
 510:	66 0f       	add	r22, r22
 512:	77 1f       	adc	r23, r23
 514:	8a 95       	dec	r24
 516:	e2 f7       	brpl	.-8      	; 0x510 <MDIO_voidSetPinValue+0x14e>
 518:	cb 01       	movw	r24, r22
 51a:	84 2b       	or	r24, r20
 51c:	12 96       	adiw	r26, 0x02	; 2
 51e:	8c 93       	st	X, r24
 520:	12 97       	sbiw	r26, 0x02	; 2
 522:	2b c0       	rjmp	.+86     	; 0x57a <MDIO_voidSetPinValue+0x1b8>
		break;
		case MDIO_PORTD:
			GPIOD->PORT &= ~(1<<ARG_u8Pin); /* Clear bit*/
 524:	a0 e3       	ldi	r26, 0x30	; 48
 526:	b0 e0       	ldi	r27, 0x00	; 0
 528:	e0 e3       	ldi	r30, 0x30	; 48
 52a:	f0 e0       	ldi	r31, 0x00	; 0
 52c:	82 81       	ldd	r24, Z+2	; 0x02
 52e:	48 2f       	mov	r20, r24
 530:	8a 81       	ldd	r24, Y+2	; 0x02
 532:	28 2f       	mov	r18, r24
 534:	30 e0       	ldi	r19, 0x00	; 0
 536:	81 e0       	ldi	r24, 0x01	; 1
 538:	90 e0       	ldi	r25, 0x00	; 0
 53a:	02 c0       	rjmp	.+4      	; 0x540 <MDIO_voidSetPinValue+0x17e>
 53c:	88 0f       	add	r24, r24
 53e:	99 1f       	adc	r25, r25
 540:	2a 95       	dec	r18
 542:	e2 f7       	brpl	.-8      	; 0x53c <MDIO_voidSetPinValue+0x17a>
 544:	80 95       	com	r24
 546:	84 23       	and	r24, r20
 548:	12 96       	adiw	r26, 0x02	; 2
 54a:	8c 93       	st	X, r24
		    GPIOD->PORT |= (ARG_u8Value<<ARG_u8Pin); /* assign the Direction */
 54c:	a0 e3       	ldi	r26, 0x30	; 48
 54e:	b0 e0       	ldi	r27, 0x00	; 0
 550:	e0 e3       	ldi	r30, 0x30	; 48
 552:	f0 e0       	ldi	r31, 0x00	; 0
 554:	82 81       	ldd	r24, Z+2	; 0x02
 556:	48 2f       	mov	r20, r24
 558:	8b 81       	ldd	r24, Y+3	; 0x03
 55a:	28 2f       	mov	r18, r24
 55c:	30 e0       	ldi	r19, 0x00	; 0
 55e:	8a 81       	ldd	r24, Y+2	; 0x02
 560:	88 2f       	mov	r24, r24
 562:	90 e0       	ldi	r25, 0x00	; 0
 564:	b9 01       	movw	r22, r18
 566:	02 c0       	rjmp	.+4      	; 0x56c <MDIO_voidSetPinValue+0x1aa>
 568:	66 0f       	add	r22, r22
 56a:	77 1f       	adc	r23, r23
 56c:	8a 95       	dec	r24
 56e:	e2 f7       	brpl	.-8      	; 0x568 <MDIO_voidSetPinValue+0x1a6>
 570:	cb 01       	movw	r24, r22
 572:	84 2b       	or	r24, r20
 574:	12 96       	adiw	r26, 0x02	; 2
 576:	8c 93       	st	X, r24
 578:	12 97       	sbiw	r26, 0x02	; 2
		break;
		default: break; /* report error*/
		
	}
}
 57a:	0f 90       	pop	r0
 57c:	0f 90       	pop	r0
 57e:	0f 90       	pop	r0
 580:	0f 90       	pop	r0
 582:	0f 90       	pop	r0
 584:	cf 91       	pop	r28
 586:	df 91       	pop	r29
 588:	08 95       	ret

0000058a <MDIO_u8GetPinValue>:

u8 MDIO_u8GetPinValue(u8 ARG_u8Port,u8 ARG_u8Pin)
{
 58a:	df 93       	push	r29
 58c:	cf 93       	push	r28
 58e:	00 d0       	rcall	.+0      	; 0x590 <MDIO_u8GetPinValue+0x6>
 590:	00 d0       	rcall	.+0      	; 0x592 <MDIO_u8GetPinValue+0x8>
 592:	0f 92       	push	r0
 594:	cd b7       	in	r28, 0x3d	; 61
 596:	de b7       	in	r29, 0x3e	; 62
 598:	8a 83       	std	Y+2, r24	; 0x02
 59a:	6b 83       	std	Y+3, r22	; 0x03
	u8 L_u8PinValueReturn=0;
 59c:	19 82       	std	Y+1, r1	; 0x01
	switch(ARG_u8Port)
 59e:	8a 81       	ldd	r24, Y+2	; 0x02
 5a0:	28 2f       	mov	r18, r24
 5a2:	30 e0       	ldi	r19, 0x00	; 0
 5a4:	3d 83       	std	Y+5, r19	; 0x05
 5a6:	2c 83       	std	Y+4, r18	; 0x04
 5a8:	4c 81       	ldd	r20, Y+4	; 0x04
 5aa:	5d 81       	ldd	r21, Y+5	; 0x05
 5ac:	42 30       	cpi	r20, 0x02	; 2
 5ae:	51 05       	cpc	r21, r1
 5b0:	41 f1       	breq	.+80     	; 0x602 <MDIO_u8GetPinValue+0x78>
 5b2:	8c 81       	ldd	r24, Y+4	; 0x04
 5b4:	9d 81       	ldd	r25, Y+5	; 0x05
 5b6:	83 30       	cpi	r24, 0x03	; 3
 5b8:	91 05       	cpc	r25, r1
 5ba:	34 f4       	brge	.+12     	; 0x5c8 <MDIO_u8GetPinValue+0x3e>
 5bc:	2c 81       	ldd	r18, Y+4	; 0x04
 5be:	3d 81       	ldd	r19, Y+5	; 0x05
 5c0:	21 30       	cpi	r18, 0x01	; 1
 5c2:	31 05       	cpc	r19, r1
 5c4:	61 f0       	breq	.+24     	; 0x5de <MDIO_u8GetPinValue+0x54>
 5c6:	52 c0       	rjmp	.+164    	; 0x66c <MDIO_u8GetPinValue+0xe2>
 5c8:	4c 81       	ldd	r20, Y+4	; 0x04
 5ca:	5d 81       	ldd	r21, Y+5	; 0x05
 5cc:	43 30       	cpi	r20, 0x03	; 3
 5ce:	51 05       	cpc	r21, r1
 5d0:	51 f1       	breq	.+84     	; 0x626 <MDIO_u8GetPinValue+0x9c>
 5d2:	8c 81       	ldd	r24, Y+4	; 0x04
 5d4:	9d 81       	ldd	r25, Y+5	; 0x05
 5d6:	84 30       	cpi	r24, 0x04	; 4
 5d8:	91 05       	cpc	r25, r1
 5da:	b9 f1       	breq	.+110    	; 0x64a <MDIO_u8GetPinValue+0xc0>
 5dc:	47 c0       	rjmp	.+142    	; 0x66c <MDIO_u8GetPinValue+0xe2>
	{
		case MDIO_PORTA: L_u8PinValueReturn = ( (GPIOA->PIN)>>ARG_u8Pin ) & 1 ; break;
 5de:	e9 e3       	ldi	r30, 0x39	; 57
 5e0:	f0 e0       	ldi	r31, 0x00	; 0
 5e2:	80 81       	ld	r24, Z
 5e4:	28 2f       	mov	r18, r24
 5e6:	30 e0       	ldi	r19, 0x00	; 0
 5e8:	8b 81       	ldd	r24, Y+3	; 0x03
 5ea:	88 2f       	mov	r24, r24
 5ec:	90 e0       	ldi	r25, 0x00	; 0
 5ee:	a9 01       	movw	r20, r18
 5f0:	02 c0       	rjmp	.+4      	; 0x5f6 <MDIO_u8GetPinValue+0x6c>
 5f2:	55 95       	asr	r21
 5f4:	47 95       	ror	r20
 5f6:	8a 95       	dec	r24
 5f8:	e2 f7       	brpl	.-8      	; 0x5f2 <MDIO_u8GetPinValue+0x68>
 5fa:	ca 01       	movw	r24, r20
 5fc:	81 70       	andi	r24, 0x01	; 1
 5fe:	89 83       	std	Y+1, r24	; 0x01
 600:	35 c0       	rjmp	.+106    	; 0x66c <MDIO_u8GetPinValue+0xe2>
	    case MDIO_PORTB: L_u8PinValueReturn = ( (GPIOB->PIN)>>ARG_u8Pin ) & 1 ; break;
 602:	e6 e3       	ldi	r30, 0x36	; 54
 604:	f0 e0       	ldi	r31, 0x00	; 0
 606:	80 81       	ld	r24, Z
 608:	28 2f       	mov	r18, r24
 60a:	30 e0       	ldi	r19, 0x00	; 0
 60c:	8b 81       	ldd	r24, Y+3	; 0x03
 60e:	88 2f       	mov	r24, r24
 610:	90 e0       	ldi	r25, 0x00	; 0
 612:	a9 01       	movw	r20, r18
 614:	02 c0       	rjmp	.+4      	; 0x61a <MDIO_u8GetPinValue+0x90>
 616:	55 95       	asr	r21
 618:	47 95       	ror	r20
 61a:	8a 95       	dec	r24
 61c:	e2 f7       	brpl	.-8      	; 0x616 <MDIO_u8GetPinValue+0x8c>
 61e:	ca 01       	movw	r24, r20
 620:	81 70       	andi	r24, 0x01	; 1
 622:	89 83       	std	Y+1, r24	; 0x01
 624:	23 c0       	rjmp	.+70     	; 0x66c <MDIO_u8GetPinValue+0xe2>
        case MDIO_PORTC: L_u8PinValueReturn = ( (GPIOC->PIN)>>ARG_u8Pin ) & 1 ; break;
 626:	e3 e3       	ldi	r30, 0x33	; 51
 628:	f0 e0       	ldi	r31, 0x00	; 0
 62a:	80 81       	ld	r24, Z
 62c:	28 2f       	mov	r18, r24
 62e:	30 e0       	ldi	r19, 0x00	; 0
 630:	8b 81       	ldd	r24, Y+3	; 0x03
 632:	88 2f       	mov	r24, r24
 634:	90 e0       	ldi	r25, 0x00	; 0
 636:	a9 01       	movw	r20, r18
 638:	02 c0       	rjmp	.+4      	; 0x63e <MDIO_u8GetPinValue+0xb4>
 63a:	55 95       	asr	r21
 63c:	47 95       	ror	r20
 63e:	8a 95       	dec	r24
 640:	e2 f7       	brpl	.-8      	; 0x63a <MDIO_u8GetPinValue+0xb0>
 642:	ca 01       	movw	r24, r20
 644:	81 70       	andi	r24, 0x01	; 1
 646:	89 83       	std	Y+1, r24	; 0x01
 648:	11 c0       	rjmp	.+34     	; 0x66c <MDIO_u8GetPinValue+0xe2>
        case MDIO_PORTD: L_u8PinValueReturn = ( (GPIOD->PIN)>>ARG_u8Pin ) & 1 ; break;
 64a:	e0 e3       	ldi	r30, 0x30	; 48
 64c:	f0 e0       	ldi	r31, 0x00	; 0
 64e:	80 81       	ld	r24, Z
 650:	28 2f       	mov	r18, r24
 652:	30 e0       	ldi	r19, 0x00	; 0
 654:	8b 81       	ldd	r24, Y+3	; 0x03
 656:	88 2f       	mov	r24, r24
 658:	90 e0       	ldi	r25, 0x00	; 0
 65a:	a9 01       	movw	r20, r18
 65c:	02 c0       	rjmp	.+4      	; 0x662 <MDIO_u8GetPinValue+0xd8>
 65e:	55 95       	asr	r21
 660:	47 95       	ror	r20
 662:	8a 95       	dec	r24
 664:	e2 f7       	brpl	.-8      	; 0x65e <MDIO_u8GetPinValue+0xd4>
 666:	ca 01       	movw	r24, r20
 668:	81 70       	andi	r24, 0x01	; 1
 66a:	89 83       	std	Y+1, r24	; 0x01
		default: break;  /* report error*/
	}
	return L_u8PinValueReturn;
 66c:	89 81       	ldd	r24, Y+1	; 0x01
}
 66e:	0f 90       	pop	r0
 670:	0f 90       	pop	r0
 672:	0f 90       	pop	r0
 674:	0f 90       	pop	r0
 676:	0f 90       	pop	r0
 678:	cf 91       	pop	r28
 67a:	df 91       	pop	r29
 67c:	08 95       	ret

0000067e <MDIO_voidTogglePinValue>:

void MDIO_voidTogglePinValue(u8 ARG_u8Port ,u8 ARG_u8Pin)
{
 67e:	df 93       	push	r29
 680:	cf 93       	push	r28
 682:	00 d0       	rcall	.+0      	; 0x684 <MDIO_voidTogglePinValue+0x6>
 684:	00 d0       	rcall	.+0      	; 0x686 <MDIO_voidTogglePinValue+0x8>
 686:	cd b7       	in	r28, 0x3d	; 61
 688:	de b7       	in	r29, 0x3e	; 62
 68a:	89 83       	std	Y+1, r24	; 0x01
 68c:	6a 83       	std	Y+2, r22	; 0x02
	switch(ARG_u8Port)
 68e:	89 81       	ldd	r24, Y+1	; 0x01
 690:	28 2f       	mov	r18, r24
 692:	30 e0       	ldi	r19, 0x00	; 0
 694:	3c 83       	std	Y+4, r19	; 0x04
 696:	2b 83       	std	Y+3, r18	; 0x03
 698:	8b 81       	ldd	r24, Y+3	; 0x03
 69a:	9c 81       	ldd	r25, Y+4	; 0x04
 69c:	82 30       	cpi	r24, 0x02	; 2
 69e:	91 05       	cpc	r25, r1
 6a0:	69 f1       	breq	.+90     	; 0x6fc <MDIO_voidTogglePinValue+0x7e>
 6a2:	2b 81       	ldd	r18, Y+3	; 0x03
 6a4:	3c 81       	ldd	r19, Y+4	; 0x04
 6a6:	23 30       	cpi	r18, 0x03	; 3
 6a8:	31 05       	cpc	r19, r1
 6aa:	34 f4       	brge	.+12     	; 0x6b8 <MDIO_voidTogglePinValue+0x3a>
 6ac:	8b 81       	ldd	r24, Y+3	; 0x03
 6ae:	9c 81       	ldd	r25, Y+4	; 0x04
 6b0:	81 30       	cpi	r24, 0x01	; 1
 6b2:	91 05       	cpc	r25, r1
 6b4:	69 f0       	breq	.+26     	; 0x6d0 <MDIO_voidTogglePinValue+0x52>
 6b6:	63 c0       	rjmp	.+198    	; 0x77e <MDIO_voidTogglePinValue+0x100>
 6b8:	2b 81       	ldd	r18, Y+3	; 0x03
 6ba:	3c 81       	ldd	r19, Y+4	; 0x04
 6bc:	23 30       	cpi	r18, 0x03	; 3
 6be:	31 05       	cpc	r19, r1
 6c0:	99 f1       	breq	.+102    	; 0x728 <MDIO_voidTogglePinValue+0xaa>
 6c2:	8b 81       	ldd	r24, Y+3	; 0x03
 6c4:	9c 81       	ldd	r25, Y+4	; 0x04
 6c6:	84 30       	cpi	r24, 0x04	; 4
 6c8:	91 05       	cpc	r25, r1
 6ca:	09 f4       	brne	.+2      	; 0x6ce <MDIO_voidTogglePinValue+0x50>
 6cc:	43 c0       	rjmp	.+134    	; 0x754 <MDIO_voidTogglePinValue+0xd6>
 6ce:	57 c0       	rjmp	.+174    	; 0x77e <MDIO_voidTogglePinValue+0x100>
	{
		case MDIO_PORTA:GPIOA->PORT ^= (1<<ARG_u8Pin) ; break;
 6d0:	a9 e3       	ldi	r26, 0x39	; 57
 6d2:	b0 e0       	ldi	r27, 0x00	; 0
 6d4:	e9 e3       	ldi	r30, 0x39	; 57
 6d6:	f0 e0       	ldi	r31, 0x00	; 0
 6d8:	82 81       	ldd	r24, Z+2	; 0x02
 6da:	48 2f       	mov	r20, r24
 6dc:	8a 81       	ldd	r24, Y+2	; 0x02
 6de:	28 2f       	mov	r18, r24
 6e0:	30 e0       	ldi	r19, 0x00	; 0
 6e2:	81 e0       	ldi	r24, 0x01	; 1
 6e4:	90 e0       	ldi	r25, 0x00	; 0
 6e6:	02 2e       	mov	r0, r18
 6e8:	02 c0       	rjmp	.+4      	; 0x6ee <MDIO_voidTogglePinValue+0x70>
 6ea:	88 0f       	add	r24, r24
 6ec:	99 1f       	adc	r25, r25
 6ee:	0a 94       	dec	r0
 6f0:	e2 f7       	brpl	.-8      	; 0x6ea <MDIO_voidTogglePinValue+0x6c>
 6f2:	84 27       	eor	r24, r20
 6f4:	12 96       	adiw	r26, 0x02	; 2
 6f6:	8c 93       	st	X, r24
 6f8:	12 97       	sbiw	r26, 0x02	; 2
 6fa:	41 c0       	rjmp	.+130    	; 0x77e <MDIO_voidTogglePinValue+0x100>
		case MDIO_PORTB:GPIOB->PORT ^= (1<<ARG_u8Pin) ; break;
 6fc:	a6 e3       	ldi	r26, 0x36	; 54
 6fe:	b0 e0       	ldi	r27, 0x00	; 0
 700:	e6 e3       	ldi	r30, 0x36	; 54
 702:	f0 e0       	ldi	r31, 0x00	; 0
 704:	82 81       	ldd	r24, Z+2	; 0x02
 706:	48 2f       	mov	r20, r24
 708:	8a 81       	ldd	r24, Y+2	; 0x02
 70a:	28 2f       	mov	r18, r24
 70c:	30 e0       	ldi	r19, 0x00	; 0
 70e:	81 e0       	ldi	r24, 0x01	; 1
 710:	90 e0       	ldi	r25, 0x00	; 0
 712:	02 2e       	mov	r0, r18
 714:	02 c0       	rjmp	.+4      	; 0x71a <MDIO_voidTogglePinValue+0x9c>
 716:	88 0f       	add	r24, r24
 718:	99 1f       	adc	r25, r25
 71a:	0a 94       	dec	r0
 71c:	e2 f7       	brpl	.-8      	; 0x716 <MDIO_voidTogglePinValue+0x98>
 71e:	84 27       	eor	r24, r20
 720:	12 96       	adiw	r26, 0x02	; 2
 722:	8c 93       	st	X, r24
 724:	12 97       	sbiw	r26, 0x02	; 2
 726:	2b c0       	rjmp	.+86     	; 0x77e <MDIO_voidTogglePinValue+0x100>
		case MDIO_PORTC:GPIOC->PORT ^= (1<<ARG_u8Pin) ; break;
 728:	a3 e3       	ldi	r26, 0x33	; 51
 72a:	b0 e0       	ldi	r27, 0x00	; 0
 72c:	e3 e3       	ldi	r30, 0x33	; 51
 72e:	f0 e0       	ldi	r31, 0x00	; 0
 730:	82 81       	ldd	r24, Z+2	; 0x02
 732:	48 2f       	mov	r20, r24
 734:	8a 81       	ldd	r24, Y+2	; 0x02
 736:	28 2f       	mov	r18, r24
 738:	30 e0       	ldi	r19, 0x00	; 0
 73a:	81 e0       	ldi	r24, 0x01	; 1
 73c:	90 e0       	ldi	r25, 0x00	; 0
 73e:	02 2e       	mov	r0, r18
 740:	02 c0       	rjmp	.+4      	; 0x746 <MDIO_voidTogglePinValue+0xc8>
 742:	88 0f       	add	r24, r24
 744:	99 1f       	adc	r25, r25
 746:	0a 94       	dec	r0
 748:	e2 f7       	brpl	.-8      	; 0x742 <MDIO_voidTogglePinValue+0xc4>
 74a:	84 27       	eor	r24, r20
 74c:	12 96       	adiw	r26, 0x02	; 2
 74e:	8c 93       	st	X, r24
 750:	12 97       	sbiw	r26, 0x02	; 2
 752:	15 c0       	rjmp	.+42     	; 0x77e <MDIO_voidTogglePinValue+0x100>
		case MDIO_PORTD:GPIOD->PORT ^= (1<<ARG_u8Pin) ; break;
 754:	a0 e3       	ldi	r26, 0x30	; 48
 756:	b0 e0       	ldi	r27, 0x00	; 0
 758:	e0 e3       	ldi	r30, 0x30	; 48
 75a:	f0 e0       	ldi	r31, 0x00	; 0
 75c:	82 81       	ldd	r24, Z+2	; 0x02
 75e:	48 2f       	mov	r20, r24
 760:	8a 81       	ldd	r24, Y+2	; 0x02
 762:	28 2f       	mov	r18, r24
 764:	30 e0       	ldi	r19, 0x00	; 0
 766:	81 e0       	ldi	r24, 0x01	; 1
 768:	90 e0       	ldi	r25, 0x00	; 0
 76a:	02 2e       	mov	r0, r18
 76c:	02 c0       	rjmp	.+4      	; 0x772 <MDIO_voidTogglePinValue+0xf4>
 76e:	88 0f       	add	r24, r24
 770:	99 1f       	adc	r25, r25
 772:	0a 94       	dec	r0
 774:	e2 f7       	brpl	.-8      	; 0x76e <MDIO_voidTogglePinValue+0xf0>
 776:	84 27       	eor	r24, r20
 778:	12 96       	adiw	r26, 0x02	; 2
 77a:	8c 93       	st	X, r24
 77c:	12 97       	sbiw	r26, 0x02	; 2
		default: break; /* report error*/
		
	}
}
 77e:	0f 90       	pop	r0
 780:	0f 90       	pop	r0
 782:	0f 90       	pop	r0
 784:	0f 90       	pop	r0
 786:	cf 91       	pop	r28
 788:	df 91       	pop	r29
 78a:	08 95       	ret

0000078c <MDIO_voidEnablePullUP>:

void MDIO_voidEnablePullUP(u8 ARG_u8Port ,u8 ARG_u8Pin)
{
 78c:	df 93       	push	r29
 78e:	cf 93       	push	r28
 790:	00 d0       	rcall	.+0      	; 0x792 <MDIO_voidEnablePullUP+0x6>
 792:	00 d0       	rcall	.+0      	; 0x794 <MDIO_voidEnablePullUP+0x8>
 794:	cd b7       	in	r28, 0x3d	; 61
 796:	de b7       	in	r29, 0x3e	; 62
 798:	89 83       	std	Y+1, r24	; 0x01
 79a:	6a 83       	std	Y+2, r22	; 0x02
	/* Set bit */
	switch(ARG_u8Port)
 79c:	89 81       	ldd	r24, Y+1	; 0x01
 79e:	28 2f       	mov	r18, r24
 7a0:	30 e0       	ldi	r19, 0x00	; 0
 7a2:	3c 83       	std	Y+4, r19	; 0x04
 7a4:	2b 83       	std	Y+3, r18	; 0x03
 7a6:	8b 81       	ldd	r24, Y+3	; 0x03
 7a8:	9c 81       	ldd	r25, Y+4	; 0x04
 7aa:	82 30       	cpi	r24, 0x02	; 2
 7ac:	91 05       	cpc	r25, r1
 7ae:	69 f1       	breq	.+90     	; 0x80a <MDIO_voidEnablePullUP+0x7e>
 7b0:	2b 81       	ldd	r18, Y+3	; 0x03
 7b2:	3c 81       	ldd	r19, Y+4	; 0x04
 7b4:	23 30       	cpi	r18, 0x03	; 3
 7b6:	31 05       	cpc	r19, r1
 7b8:	34 f4       	brge	.+12     	; 0x7c6 <MDIO_voidEnablePullUP+0x3a>
 7ba:	8b 81       	ldd	r24, Y+3	; 0x03
 7bc:	9c 81       	ldd	r25, Y+4	; 0x04
 7be:	81 30       	cpi	r24, 0x01	; 1
 7c0:	91 05       	cpc	r25, r1
 7c2:	69 f0       	breq	.+26     	; 0x7de <MDIO_voidEnablePullUP+0x52>
 7c4:	63 c0       	rjmp	.+198    	; 0x88c <__stack+0x2d>
 7c6:	2b 81       	ldd	r18, Y+3	; 0x03
 7c8:	3c 81       	ldd	r19, Y+4	; 0x04
 7ca:	23 30       	cpi	r18, 0x03	; 3
 7cc:	31 05       	cpc	r19, r1
 7ce:	99 f1       	breq	.+102    	; 0x836 <MDIO_voidEnablePullUP+0xaa>
 7d0:	8b 81       	ldd	r24, Y+3	; 0x03
 7d2:	9c 81       	ldd	r25, Y+4	; 0x04
 7d4:	84 30       	cpi	r24, 0x04	; 4
 7d6:	91 05       	cpc	r25, r1
 7d8:	09 f4       	brne	.+2      	; 0x7dc <MDIO_voidEnablePullUP+0x50>
 7da:	43 c0       	rjmp	.+134    	; 0x862 <__stack+0x3>
 7dc:	57 c0       	rjmp	.+174    	; 0x88c <__stack+0x2d>
	{
		case MDIO_PORTA:GPIOA->PORT |= (1<<ARG_u8Pin) ; break;
 7de:	a9 e3       	ldi	r26, 0x39	; 57
 7e0:	b0 e0       	ldi	r27, 0x00	; 0
 7e2:	e9 e3       	ldi	r30, 0x39	; 57
 7e4:	f0 e0       	ldi	r31, 0x00	; 0
 7e6:	82 81       	ldd	r24, Z+2	; 0x02
 7e8:	48 2f       	mov	r20, r24
 7ea:	8a 81       	ldd	r24, Y+2	; 0x02
 7ec:	28 2f       	mov	r18, r24
 7ee:	30 e0       	ldi	r19, 0x00	; 0
 7f0:	81 e0       	ldi	r24, 0x01	; 1
 7f2:	90 e0       	ldi	r25, 0x00	; 0
 7f4:	02 2e       	mov	r0, r18
 7f6:	02 c0       	rjmp	.+4      	; 0x7fc <MDIO_voidEnablePullUP+0x70>
 7f8:	88 0f       	add	r24, r24
 7fa:	99 1f       	adc	r25, r25
 7fc:	0a 94       	dec	r0
 7fe:	e2 f7       	brpl	.-8      	; 0x7f8 <MDIO_voidEnablePullUP+0x6c>
 800:	84 2b       	or	r24, r20
 802:	12 96       	adiw	r26, 0x02	; 2
 804:	8c 93       	st	X, r24
 806:	12 97       	sbiw	r26, 0x02	; 2
 808:	41 c0       	rjmp	.+130    	; 0x88c <__stack+0x2d>
		case MDIO_PORTB:GPIOB->PORT |= (1<<ARG_u8Pin) ; break;
 80a:	a6 e3       	ldi	r26, 0x36	; 54
 80c:	b0 e0       	ldi	r27, 0x00	; 0
 80e:	e6 e3       	ldi	r30, 0x36	; 54
 810:	f0 e0       	ldi	r31, 0x00	; 0
 812:	82 81       	ldd	r24, Z+2	; 0x02
 814:	48 2f       	mov	r20, r24
 816:	8a 81       	ldd	r24, Y+2	; 0x02
 818:	28 2f       	mov	r18, r24
 81a:	30 e0       	ldi	r19, 0x00	; 0
 81c:	81 e0       	ldi	r24, 0x01	; 1
 81e:	90 e0       	ldi	r25, 0x00	; 0
 820:	02 2e       	mov	r0, r18
 822:	02 c0       	rjmp	.+4      	; 0x828 <MDIO_voidEnablePullUP+0x9c>
 824:	88 0f       	add	r24, r24
 826:	99 1f       	adc	r25, r25
 828:	0a 94       	dec	r0
 82a:	e2 f7       	brpl	.-8      	; 0x824 <MDIO_voidEnablePullUP+0x98>
 82c:	84 2b       	or	r24, r20
 82e:	12 96       	adiw	r26, 0x02	; 2
 830:	8c 93       	st	X, r24
 832:	12 97       	sbiw	r26, 0x02	; 2
 834:	2b c0       	rjmp	.+86     	; 0x88c <__stack+0x2d>
		case MDIO_PORTC:GPIOC->PORT |= (1<<ARG_u8Pin) ; break;
 836:	a3 e3       	ldi	r26, 0x33	; 51
 838:	b0 e0       	ldi	r27, 0x00	; 0
 83a:	e3 e3       	ldi	r30, 0x33	; 51
 83c:	f0 e0       	ldi	r31, 0x00	; 0
 83e:	82 81       	ldd	r24, Z+2	; 0x02
 840:	48 2f       	mov	r20, r24
 842:	8a 81       	ldd	r24, Y+2	; 0x02
 844:	28 2f       	mov	r18, r24
 846:	30 e0       	ldi	r19, 0x00	; 0
 848:	81 e0       	ldi	r24, 0x01	; 1
 84a:	90 e0       	ldi	r25, 0x00	; 0
 84c:	02 2e       	mov	r0, r18
 84e:	02 c0       	rjmp	.+4      	; 0x854 <MDIO_voidEnablePullUP+0xc8>
 850:	88 0f       	add	r24, r24
 852:	99 1f       	adc	r25, r25
 854:	0a 94       	dec	r0
 856:	e2 f7       	brpl	.-8      	; 0x850 <MDIO_voidEnablePullUP+0xc4>
 858:	84 2b       	or	r24, r20
 85a:	12 96       	adiw	r26, 0x02	; 2
 85c:	8c 93       	st	X, r24
 85e:	12 97       	sbiw	r26, 0x02	; 2
 860:	15 c0       	rjmp	.+42     	; 0x88c <__stack+0x2d>
		case MDIO_PORTD:GPIOD->PORT |= (1<<ARG_u8Pin) ; break;
 862:	a0 e3       	ldi	r26, 0x30	; 48
 864:	b0 e0       	ldi	r27, 0x00	; 0
 866:	e0 e3       	ldi	r30, 0x30	; 48
 868:	f0 e0       	ldi	r31, 0x00	; 0
 86a:	82 81       	ldd	r24, Z+2	; 0x02
 86c:	48 2f       	mov	r20, r24
 86e:	8a 81       	ldd	r24, Y+2	; 0x02
 870:	28 2f       	mov	r18, r24
 872:	30 e0       	ldi	r19, 0x00	; 0
 874:	81 e0       	ldi	r24, 0x01	; 1
 876:	90 e0       	ldi	r25, 0x00	; 0
 878:	02 2e       	mov	r0, r18
 87a:	02 c0       	rjmp	.+4      	; 0x880 <__stack+0x21>
 87c:	88 0f       	add	r24, r24
 87e:	99 1f       	adc	r25, r25
 880:	0a 94       	dec	r0
 882:	e2 f7       	brpl	.-8      	; 0x87c <__stack+0x1d>
 884:	84 2b       	or	r24, r20
 886:	12 96       	adiw	r26, 0x02	; 2
 888:	8c 93       	st	X, r24
 88a:	12 97       	sbiw	r26, 0x02	; 2
		default: break; /* report error*/
		
	}
}
 88c:	0f 90       	pop	r0
 88e:	0f 90       	pop	r0
 890:	0f 90       	pop	r0
 892:	0f 90       	pop	r0
 894:	cf 91       	pop	r28
 896:	df 91       	pop	r29
 898:	08 95       	ret

0000089a <MDIO_voidDisablePullUP>:
void MDIO_voidDisablePullUP(u8 ARG_u8Port ,u8 ARG_u8Pin)
{
 89a:	df 93       	push	r29
 89c:	cf 93       	push	r28
 89e:	00 d0       	rcall	.+0      	; 0x8a0 <MDIO_voidDisablePullUP+0x6>
 8a0:	00 d0       	rcall	.+0      	; 0x8a2 <MDIO_voidDisablePullUP+0x8>
 8a2:	cd b7       	in	r28, 0x3d	; 61
 8a4:	de b7       	in	r29, 0x3e	; 62
 8a6:	89 83       	std	Y+1, r24	; 0x01
 8a8:	6a 83       	std	Y+2, r22	; 0x02
	/* Clear bit */
	switch(ARG_u8Port)
 8aa:	89 81       	ldd	r24, Y+1	; 0x01
 8ac:	28 2f       	mov	r18, r24
 8ae:	30 e0       	ldi	r19, 0x00	; 0
 8b0:	3c 83       	std	Y+4, r19	; 0x04
 8b2:	2b 83       	std	Y+3, r18	; 0x03
 8b4:	8b 81       	ldd	r24, Y+3	; 0x03
 8b6:	9c 81       	ldd	r25, Y+4	; 0x04
 8b8:	82 30       	cpi	r24, 0x02	; 2
 8ba:	91 05       	cpc	r25, r1
 8bc:	71 f1       	breq	.+92     	; 0x91a <MDIO_voidDisablePullUP+0x80>
 8be:	2b 81       	ldd	r18, Y+3	; 0x03
 8c0:	3c 81       	ldd	r19, Y+4	; 0x04
 8c2:	23 30       	cpi	r18, 0x03	; 3
 8c4:	31 05       	cpc	r19, r1
 8c6:	34 f4       	brge	.+12     	; 0x8d4 <MDIO_voidDisablePullUP+0x3a>
 8c8:	8b 81       	ldd	r24, Y+3	; 0x03
 8ca:	9c 81       	ldd	r25, Y+4	; 0x04
 8cc:	81 30       	cpi	r24, 0x01	; 1
 8ce:	91 05       	cpc	r25, r1
 8d0:	69 f0       	breq	.+26     	; 0x8ec <MDIO_voidDisablePullUP+0x52>
 8d2:	67 c0       	rjmp	.+206    	; 0x9a2 <MDIO_voidDisablePullUP+0x108>
 8d4:	2b 81       	ldd	r18, Y+3	; 0x03
 8d6:	3c 81       	ldd	r19, Y+4	; 0x04
 8d8:	23 30       	cpi	r18, 0x03	; 3
 8da:	31 05       	cpc	r19, r1
 8dc:	a9 f1       	breq	.+106    	; 0x948 <MDIO_voidDisablePullUP+0xae>
 8de:	8b 81       	ldd	r24, Y+3	; 0x03
 8e0:	9c 81       	ldd	r25, Y+4	; 0x04
 8e2:	84 30       	cpi	r24, 0x04	; 4
 8e4:	91 05       	cpc	r25, r1
 8e6:	09 f4       	brne	.+2      	; 0x8ea <MDIO_voidDisablePullUP+0x50>
 8e8:	46 c0       	rjmp	.+140    	; 0x976 <MDIO_voidDisablePullUP+0xdc>
 8ea:	5b c0       	rjmp	.+182    	; 0x9a2 <MDIO_voidDisablePullUP+0x108>
	{
		case MDIO_PORTA:GPIOA->PORT &= ~(1<<ARG_u8Pin) ; break;
 8ec:	a9 e3       	ldi	r26, 0x39	; 57
 8ee:	b0 e0       	ldi	r27, 0x00	; 0
 8f0:	e9 e3       	ldi	r30, 0x39	; 57
 8f2:	f0 e0       	ldi	r31, 0x00	; 0
 8f4:	82 81       	ldd	r24, Z+2	; 0x02
 8f6:	48 2f       	mov	r20, r24
 8f8:	8a 81       	ldd	r24, Y+2	; 0x02
 8fa:	28 2f       	mov	r18, r24
 8fc:	30 e0       	ldi	r19, 0x00	; 0
 8fe:	81 e0       	ldi	r24, 0x01	; 1
 900:	90 e0       	ldi	r25, 0x00	; 0
 902:	02 2e       	mov	r0, r18
 904:	02 c0       	rjmp	.+4      	; 0x90a <MDIO_voidDisablePullUP+0x70>
 906:	88 0f       	add	r24, r24
 908:	99 1f       	adc	r25, r25
 90a:	0a 94       	dec	r0
 90c:	e2 f7       	brpl	.-8      	; 0x906 <MDIO_voidDisablePullUP+0x6c>
 90e:	80 95       	com	r24
 910:	84 23       	and	r24, r20
 912:	12 96       	adiw	r26, 0x02	; 2
 914:	8c 93       	st	X, r24
 916:	12 97       	sbiw	r26, 0x02	; 2
 918:	44 c0       	rjmp	.+136    	; 0x9a2 <MDIO_voidDisablePullUP+0x108>
		case MDIO_PORTB:GPIOB->PORT &= ~(1<<ARG_u8Pin) ; break;
 91a:	a6 e3       	ldi	r26, 0x36	; 54
 91c:	b0 e0       	ldi	r27, 0x00	; 0
 91e:	e6 e3       	ldi	r30, 0x36	; 54
 920:	f0 e0       	ldi	r31, 0x00	; 0
 922:	82 81       	ldd	r24, Z+2	; 0x02
 924:	48 2f       	mov	r20, r24
 926:	8a 81       	ldd	r24, Y+2	; 0x02
 928:	28 2f       	mov	r18, r24
 92a:	30 e0       	ldi	r19, 0x00	; 0
 92c:	81 e0       	ldi	r24, 0x01	; 1
 92e:	90 e0       	ldi	r25, 0x00	; 0
 930:	02 2e       	mov	r0, r18
 932:	02 c0       	rjmp	.+4      	; 0x938 <MDIO_voidDisablePullUP+0x9e>
 934:	88 0f       	add	r24, r24
 936:	99 1f       	adc	r25, r25
 938:	0a 94       	dec	r0
 93a:	e2 f7       	brpl	.-8      	; 0x934 <MDIO_voidDisablePullUP+0x9a>
 93c:	80 95       	com	r24
 93e:	84 23       	and	r24, r20
 940:	12 96       	adiw	r26, 0x02	; 2
 942:	8c 93       	st	X, r24
 944:	12 97       	sbiw	r26, 0x02	; 2
 946:	2d c0       	rjmp	.+90     	; 0x9a2 <MDIO_voidDisablePullUP+0x108>
		case MDIO_PORTC:GPIOC->PORT &= ~(1<<ARG_u8Pin) ; break;
 948:	a3 e3       	ldi	r26, 0x33	; 51
 94a:	b0 e0       	ldi	r27, 0x00	; 0
 94c:	e3 e3       	ldi	r30, 0x33	; 51
 94e:	f0 e0       	ldi	r31, 0x00	; 0
 950:	82 81       	ldd	r24, Z+2	; 0x02
 952:	48 2f       	mov	r20, r24
 954:	8a 81       	ldd	r24, Y+2	; 0x02
 956:	28 2f       	mov	r18, r24
 958:	30 e0       	ldi	r19, 0x00	; 0
 95a:	81 e0       	ldi	r24, 0x01	; 1
 95c:	90 e0       	ldi	r25, 0x00	; 0
 95e:	02 2e       	mov	r0, r18
 960:	02 c0       	rjmp	.+4      	; 0x966 <MDIO_voidDisablePullUP+0xcc>
 962:	88 0f       	add	r24, r24
 964:	99 1f       	adc	r25, r25
 966:	0a 94       	dec	r0
 968:	e2 f7       	brpl	.-8      	; 0x962 <MDIO_voidDisablePullUP+0xc8>
 96a:	80 95       	com	r24
 96c:	84 23       	and	r24, r20
 96e:	12 96       	adiw	r26, 0x02	; 2
 970:	8c 93       	st	X, r24
 972:	12 97       	sbiw	r26, 0x02	; 2
 974:	16 c0       	rjmp	.+44     	; 0x9a2 <MDIO_voidDisablePullUP+0x108>
		case MDIO_PORTD:GPIOD->PORT &= ~(1<<ARG_u8Pin) ; break;
 976:	a0 e3       	ldi	r26, 0x30	; 48
 978:	b0 e0       	ldi	r27, 0x00	; 0
 97a:	e0 e3       	ldi	r30, 0x30	; 48
 97c:	f0 e0       	ldi	r31, 0x00	; 0
 97e:	82 81       	ldd	r24, Z+2	; 0x02
 980:	48 2f       	mov	r20, r24
 982:	8a 81       	ldd	r24, Y+2	; 0x02
 984:	28 2f       	mov	r18, r24
 986:	30 e0       	ldi	r19, 0x00	; 0
 988:	81 e0       	ldi	r24, 0x01	; 1
 98a:	90 e0       	ldi	r25, 0x00	; 0
 98c:	02 2e       	mov	r0, r18
 98e:	02 c0       	rjmp	.+4      	; 0x994 <MDIO_voidDisablePullUP+0xfa>
 990:	88 0f       	add	r24, r24
 992:	99 1f       	adc	r25, r25
 994:	0a 94       	dec	r0
 996:	e2 f7       	brpl	.-8      	; 0x990 <MDIO_voidDisablePullUP+0xf6>
 998:	80 95       	com	r24
 99a:	84 23       	and	r24, r20
 99c:	12 96       	adiw	r26, 0x02	; 2
 99e:	8c 93       	st	X, r24
 9a0:	12 97       	sbiw	r26, 0x02	; 2
		default: break; /* report error*/
		
	}
}
 9a2:	0f 90       	pop	r0
 9a4:	0f 90       	pop	r0
 9a6:	0f 90       	pop	r0
 9a8:	0f 90       	pop	r0
 9aa:	cf 91       	pop	r28
 9ac:	df 91       	pop	r29
 9ae:	08 95       	ret

000009b0 <main>:
#include "LSTD_types.h"

#include "MDIO_interface.h"


int main(void){
 9b0:	df 93       	push	r29
 9b2:	cf 93       	push	r28
 9b4:	cd b7       	in	r28, 0x3d	; 61
 9b6:	de b7       	in	r29, 0x3e	; 62

    // Initialization  (Run Once)
	MDIO_voidSetPortDirection( MDIO_PORTA,MDIO_OUTPUT_PORT );
 9b8:	81 e0       	ldi	r24, 0x01	; 1
 9ba:	6f ef       	ldi	r22, 0xFF	; 255
 9bc:	0e 94 36 00 	call	0x6c	; 0x6c <MDIO_voidSetPortDirection>
	MDIO_voidSetPinDirection(MDIO_PORTB,MDIO_PIN2,MDIO_INPUT); /* SW1 */
 9c0:	82 e0       	ldi	r24, 0x02	; 2
 9c2:	62 e0       	ldi	r22, 0x02	; 2
 9c4:	40 e0       	ldi	r20, 0x00	; 0
 9c6:	0e 94 fd 00 	call	0x1fa	; 0x1fa <MDIO_voidSetPinDirection>
	MDIO_voidEnablePullUP(MDIO_PORTB,MDIO_PIN2); /* SW1 Pull UP */
 9ca:	82 e0       	ldi	r24, 0x02	; 2
 9cc:	62 e0       	ldi	r22, 0x02	; 2
 9ce:	0e 94 c6 03 	call	0x78c	; 0x78c <MDIO_voidEnablePullUP>
	MDIO_voidSetPinDirection(MDIO_PORTB,MDIO_PIN4,MDIO_OUTPUT); /* led */
 9d2:	82 e0       	ldi	r24, 0x02	; 2
 9d4:	64 e0       	ldi	r22, 0x04	; 4
 9d6:	41 e0       	ldi	r20, 0x01	; 1
 9d8:	0e 94 fd 00 	call	0x1fa	; 0x1fa <MDIO_voidSetPinDirection>

	MDIO_voidSetPinValue(MDIO_PORTB,MDIO_PIN4,MDIO_HIGH);
 9dc:	82 e0       	ldi	r24, 0x02	; 2
 9de:	64 e0       	ldi	r22, 0x04	; 4
 9e0:	41 e0       	ldi	r20, 0x01	; 1
 9e2:	0e 94 e1 01 	call	0x3c2	; 0x3c2 <MDIO_voidSetPinValue>
		MDIO_voidSetPortValue( MDIO_PORTA,0x00 );
		_delay_ms(1000);

		 */

		if(0 == MDIO_u8GetPinValue(MDIO_PORTB,MDIO_PIN2)){
 9e6:	82 e0       	ldi	r24, 0x02	; 2
 9e8:	62 e0       	ldi	r22, 0x02	; 2
 9ea:	0e 94 c5 02 	call	0x58a	; 0x58a <MDIO_u8GetPinValue>
 9ee:	88 23       	and	r24, r24
 9f0:	d1 f7       	brne	.-12     	; 0x9e6 <main+0x36>

			/* button pressed */
			MDIO_voidTogglePinValue(MDIO_PORTB,MDIO_PIN4);  /* Toggle led */
 9f2:	82 e0       	ldi	r24, 0x02	; 2
 9f4:	64 e0       	ldi	r22, 0x04	; 4
 9f6:	0e 94 3f 03 	call	0x67e	; 0x67e <MDIO_voidTogglePinValue>
			while(0 == MDIO_u8GetPinValue(MDIO_PORTB,MDIO_PIN2));  /*Stuck while button pressed*/
 9fa:	82 e0       	ldi	r24, 0x02	; 2
 9fc:	62 e0       	ldi	r22, 0x02	; 2
 9fe:	0e 94 c5 02 	call	0x58a	; 0x58a <MDIO_u8GetPinValue>
 a02:	88 23       	and	r24, r24
 a04:	d1 f3       	breq	.-12     	; 0x9fa <main+0x4a>
 a06:	ef cf       	rjmp	.-34     	; 0x9e6 <main+0x36>

00000a08 <_exit>:
 a08:	f8 94       	cli

00000a0a <__stop_program>:
 a0a:	ff cf       	rjmp	.-2      	; 0xa0a <__stop_program>
