
LCD_DriverTestV1.elf:     file format elf32-avr

Sections:
Idx Name          Size      VMA       LMA       File off  Algn
  0 .text         0000268a  00000000  00000000  00000074  2**1
                  CONTENTS, ALLOC, LOAD, READONLY, CODE
  1 .data         00000024  00800060  0000268a  000026fe  2**0
                  CONTENTS, ALLOC, LOAD, DATA
  2 .stab         00001884  00000000  00000000  00002724  2**2
                  CONTENTS, READONLY, DEBUGGING
  3 .stabstr      00000aaa  00000000  00000000  00003fa8  2**0
                  CONTENTS, READONLY, DEBUGGING
  4 .debug_aranges 00000160  00000000  00000000  00004a52  2**0
                  CONTENTS, READONLY, DEBUGGING
  5 .debug_pubnames 0000018f  00000000  00000000  00004bb2  2**0
                  CONTENTS, READONLY, DEBUGGING
  6 .debug_info   00002045  00000000  00000000  00004d41  2**0
                  CONTENTS, READONLY, DEBUGGING
  7 .debug_abbrev 00001101  00000000  00000000  00006d86  2**0
                  CONTENTS, READONLY, DEBUGGING
  8 .debug_line   00000f82  00000000  00000000  00007e87  2**0
                  CONTENTS, READONLY, DEBUGGING
  9 .debug_frame  00000180  00000000  00000000  00008e0c  2**2
                  CONTENTS, READONLY, DEBUGGING
 10 .debug_str    000002c2  00000000  00000000  00008f8c  2**0
                  CONTENTS, READONLY, DEBUGGING
 11 .debug_loc    0000088e  00000000  00000000  0000924e  2**0
                  CONTENTS, READONLY, DEBUGGING
 12 .debug_ranges 00000050  00000000  00000000  00009adc  2**0
                  CONTENTS, READONLY, DEBUGGING

Disassembly of section .text:

00000000 <__vectors>:
       0:	0c 94 2a 00 	jmp	0x54	; 0x54 <__ctors_end>
       4:	0c 94 3f 00 	jmp	0x7e	; 0x7e <__bad_interrupt>
       8:	0c 94 3f 00 	jmp	0x7e	; 0x7e <__bad_interrupt>
       c:	0c 94 3f 00 	jmp	0x7e	; 0x7e <__bad_interrupt>
      10:	0c 94 3f 00 	jmp	0x7e	; 0x7e <__bad_interrupt>
      14:	0c 94 3f 00 	jmp	0x7e	; 0x7e <__bad_interrupt>
      18:	0c 94 3f 00 	jmp	0x7e	; 0x7e <__bad_interrupt>
      1c:	0c 94 3f 00 	jmp	0x7e	; 0x7e <__bad_interrupt>
      20:	0c 94 3f 00 	jmp	0x7e	; 0x7e <__bad_interrupt>
      24:	0c 94 3f 00 	jmp	0x7e	; 0x7e <__bad_interrupt>
      28:	0c 94 3f 00 	jmp	0x7e	; 0x7e <__bad_interrupt>
      2c:	0c 94 3f 00 	jmp	0x7e	; 0x7e <__bad_interrupt>
      30:	0c 94 3f 00 	jmp	0x7e	; 0x7e <__bad_interrupt>
      34:	0c 94 3f 00 	jmp	0x7e	; 0x7e <__bad_interrupt>
      38:	0c 94 3f 00 	jmp	0x7e	; 0x7e <__bad_interrupt>
      3c:	0c 94 3f 00 	jmp	0x7e	; 0x7e <__bad_interrupt>
      40:	0c 94 3f 00 	jmp	0x7e	; 0x7e <__bad_interrupt>
      44:	0c 94 3f 00 	jmp	0x7e	; 0x7e <__bad_interrupt>
      48:	0c 94 3f 00 	jmp	0x7e	; 0x7e <__bad_interrupt>
      4c:	0c 94 3f 00 	jmp	0x7e	; 0x7e <__bad_interrupt>
      50:	0c 94 3f 00 	jmp	0x7e	; 0x7e <__bad_interrupt>

00000054 <__ctors_end>:
      54:	11 24       	eor	r1, r1
      56:	1f be       	out	0x3f, r1	; 63
      58:	cf e5       	ldi	r28, 0x5F	; 95
      5a:	d8 e0       	ldi	r29, 0x08	; 8
      5c:	de bf       	out	0x3e, r29	; 62
      5e:	cd bf       	out	0x3d, r28	; 61

00000060 <__do_copy_data>:
      60:	10 e0       	ldi	r17, 0x00	; 0
      62:	a0 e6       	ldi	r26, 0x60	; 96
      64:	b0 e0       	ldi	r27, 0x00	; 0
      66:	ea e8       	ldi	r30, 0x8A	; 138
      68:	f6 e2       	ldi	r31, 0x26	; 38
      6a:	02 c0       	rjmp	.+4      	; 0x70 <.do_copy_data_start>

0000006c <.do_copy_data_loop>:
      6c:	05 90       	lpm	r0, Z+
      6e:	0d 92       	st	X+, r0

00000070 <.do_copy_data_start>:
      70:	a4 38       	cpi	r26, 0x84	; 132
      72:	b1 07       	cpc	r27, r17
      74:	d9 f7       	brne	.-10     	; 0x6c <.do_copy_data_loop>
      76:	0e 94 46 12 	call	0x248c	; 0x248c <main>
      7a:	0c 94 43 13 	jmp	0x2686	; 0x2686 <_exit>

0000007e <__bad_interrupt>:
      7e:	0c 94 00 00 	jmp	0	; 0x0 <__vectors>

00000082 <__fixunssfsi>:
      82:	ef 92       	push	r14
      84:	ff 92       	push	r15
      86:	0f 93       	push	r16
      88:	1f 93       	push	r17
      8a:	7b 01       	movw	r14, r22
      8c:	8c 01       	movw	r16, r24
      8e:	20 e0       	ldi	r18, 0x00	; 0
      90:	30 e0       	ldi	r19, 0x00	; 0
      92:	40 e0       	ldi	r20, 0x00	; 0
      94:	5f e4       	ldi	r21, 0x4F	; 79
      96:	0e 94 ed 03 	call	0x7da	; 0x7da <__gesf2>
      9a:	88 23       	and	r24, r24
      9c:	8c f0       	brlt	.+34     	; 0xc0 <__fixunssfsi+0x3e>
      9e:	c8 01       	movw	r24, r16
      a0:	b7 01       	movw	r22, r14
      a2:	20 e0       	ldi	r18, 0x00	; 0
      a4:	30 e0       	ldi	r19, 0x00	; 0
      a6:	40 e0       	ldi	r20, 0x00	; 0
      a8:	5f e4       	ldi	r21, 0x4F	; 79
      aa:	0e 94 b9 01 	call	0x372	; 0x372 <__subsf3>
      ae:	0e 94 4d 04 	call	0x89a	; 0x89a <__fixsfsi>
      b2:	9b 01       	movw	r18, r22
      b4:	ac 01       	movw	r20, r24
      b6:	20 50       	subi	r18, 0x00	; 0
      b8:	30 40       	sbci	r19, 0x00	; 0
      ba:	40 40       	sbci	r20, 0x00	; 0
      bc:	50 48       	sbci	r21, 0x80	; 128
      be:	06 c0       	rjmp	.+12     	; 0xcc <__fixunssfsi+0x4a>
      c0:	c8 01       	movw	r24, r16
      c2:	b7 01       	movw	r22, r14
      c4:	0e 94 4d 04 	call	0x89a	; 0x89a <__fixsfsi>
      c8:	9b 01       	movw	r18, r22
      ca:	ac 01       	movw	r20, r24
      cc:	b9 01       	movw	r22, r18
      ce:	ca 01       	movw	r24, r20
      d0:	1f 91       	pop	r17
      d2:	0f 91       	pop	r16
      d4:	ff 90       	pop	r15
      d6:	ef 90       	pop	r14
      d8:	08 95       	ret

000000da <_fpadd_parts>:
      da:	a0 e0       	ldi	r26, 0x00	; 0
      dc:	b0 e0       	ldi	r27, 0x00	; 0
      de:	e3 e7       	ldi	r30, 0x73	; 115
      e0:	f0 e0       	ldi	r31, 0x00	; 0
      e2:	0c 94 0c 13 	jmp	0x2618	; 0x2618 <__prologue_saves__>
      e6:	dc 01       	movw	r26, r24
      e8:	2b 01       	movw	r4, r22
      ea:	fa 01       	movw	r30, r20
      ec:	9c 91       	ld	r25, X
      ee:	92 30       	cpi	r25, 0x02	; 2
      f0:	08 f4       	brcc	.+2      	; 0xf4 <_fpadd_parts+0x1a>
      f2:	39 c1       	rjmp	.+626    	; 0x366 <_fpadd_parts+0x28c>
      f4:	eb 01       	movw	r28, r22
      f6:	88 81       	ld	r24, Y
      f8:	82 30       	cpi	r24, 0x02	; 2
      fa:	08 f4       	brcc	.+2      	; 0xfe <_fpadd_parts+0x24>
      fc:	33 c1       	rjmp	.+614    	; 0x364 <_fpadd_parts+0x28a>
      fe:	94 30       	cpi	r25, 0x04	; 4
     100:	69 f4       	brne	.+26     	; 0x11c <_fpadd_parts+0x42>
     102:	84 30       	cpi	r24, 0x04	; 4
     104:	09 f0       	breq	.+2      	; 0x108 <_fpadd_parts+0x2e>
     106:	2f c1       	rjmp	.+606    	; 0x366 <_fpadd_parts+0x28c>
     108:	11 96       	adiw	r26, 0x01	; 1
     10a:	9c 91       	ld	r25, X
     10c:	11 97       	sbiw	r26, 0x01	; 1
     10e:	89 81       	ldd	r24, Y+1	; 0x01
     110:	98 17       	cp	r25, r24
     112:	09 f4       	brne	.+2      	; 0x116 <_fpadd_parts+0x3c>
     114:	28 c1       	rjmp	.+592    	; 0x366 <_fpadd_parts+0x28c>
     116:	ac e7       	ldi	r26, 0x7C	; 124
     118:	b0 e0       	ldi	r27, 0x00	; 0
     11a:	25 c1       	rjmp	.+586    	; 0x366 <_fpadd_parts+0x28c>
     11c:	84 30       	cpi	r24, 0x04	; 4
     11e:	09 f4       	brne	.+2      	; 0x122 <_fpadd_parts+0x48>
     120:	21 c1       	rjmp	.+578    	; 0x364 <_fpadd_parts+0x28a>
     122:	82 30       	cpi	r24, 0x02	; 2
     124:	a9 f4       	brne	.+42     	; 0x150 <_fpadd_parts+0x76>
     126:	92 30       	cpi	r25, 0x02	; 2
     128:	09 f0       	breq	.+2      	; 0x12c <_fpadd_parts+0x52>
     12a:	1d c1       	rjmp	.+570    	; 0x366 <_fpadd_parts+0x28c>
     12c:	9a 01       	movw	r18, r20
     12e:	ad 01       	movw	r20, r26
     130:	88 e0       	ldi	r24, 0x08	; 8
     132:	ea 01       	movw	r28, r20
     134:	09 90       	ld	r0, Y+
     136:	ae 01       	movw	r20, r28
     138:	e9 01       	movw	r28, r18
     13a:	09 92       	st	Y+, r0
     13c:	9e 01       	movw	r18, r28
     13e:	81 50       	subi	r24, 0x01	; 1
     140:	c1 f7       	brne	.-16     	; 0x132 <_fpadd_parts+0x58>
     142:	e2 01       	movw	r28, r4
     144:	89 81       	ldd	r24, Y+1	; 0x01
     146:	11 96       	adiw	r26, 0x01	; 1
     148:	9c 91       	ld	r25, X
     14a:	89 23       	and	r24, r25
     14c:	81 83       	std	Z+1, r24	; 0x01
     14e:	08 c1       	rjmp	.+528    	; 0x360 <_fpadd_parts+0x286>
     150:	92 30       	cpi	r25, 0x02	; 2
     152:	09 f4       	brne	.+2      	; 0x156 <_fpadd_parts+0x7c>
     154:	07 c1       	rjmp	.+526    	; 0x364 <_fpadd_parts+0x28a>
     156:	12 96       	adiw	r26, 0x02	; 2
     158:	2d 90       	ld	r2, X+
     15a:	3c 90       	ld	r3, X
     15c:	13 97       	sbiw	r26, 0x03	; 3
     15e:	eb 01       	movw	r28, r22
     160:	8a 81       	ldd	r24, Y+2	; 0x02
     162:	9b 81       	ldd	r25, Y+3	; 0x03
     164:	14 96       	adiw	r26, 0x04	; 4
     166:	ad 90       	ld	r10, X+
     168:	bd 90       	ld	r11, X+
     16a:	cd 90       	ld	r12, X+
     16c:	dc 90       	ld	r13, X
     16e:	17 97       	sbiw	r26, 0x07	; 7
     170:	ec 80       	ldd	r14, Y+4	; 0x04
     172:	fd 80       	ldd	r15, Y+5	; 0x05
     174:	0e 81       	ldd	r16, Y+6	; 0x06
     176:	1f 81       	ldd	r17, Y+7	; 0x07
     178:	91 01       	movw	r18, r2
     17a:	28 1b       	sub	r18, r24
     17c:	39 0b       	sbc	r19, r25
     17e:	b9 01       	movw	r22, r18
     180:	37 ff       	sbrs	r19, 7
     182:	04 c0       	rjmp	.+8      	; 0x18c <_fpadd_parts+0xb2>
     184:	66 27       	eor	r22, r22
     186:	77 27       	eor	r23, r23
     188:	62 1b       	sub	r22, r18
     18a:	73 0b       	sbc	r23, r19
     18c:	60 32       	cpi	r22, 0x20	; 32
     18e:	71 05       	cpc	r23, r1
     190:	0c f0       	brlt	.+2      	; 0x194 <_fpadd_parts+0xba>
     192:	61 c0       	rjmp	.+194    	; 0x256 <_fpadd_parts+0x17c>
     194:	12 16       	cp	r1, r18
     196:	13 06       	cpc	r1, r19
     198:	6c f5       	brge	.+90     	; 0x1f4 <_fpadd_parts+0x11a>
     19a:	37 01       	movw	r6, r14
     19c:	48 01       	movw	r8, r16
     19e:	06 2e       	mov	r0, r22
     1a0:	04 c0       	rjmp	.+8      	; 0x1aa <_fpadd_parts+0xd0>
     1a2:	96 94       	lsr	r9
     1a4:	87 94       	ror	r8
     1a6:	77 94       	ror	r7
     1a8:	67 94       	ror	r6
     1aa:	0a 94       	dec	r0
     1ac:	d2 f7       	brpl	.-12     	; 0x1a2 <_fpadd_parts+0xc8>
     1ae:	21 e0       	ldi	r18, 0x01	; 1
     1b0:	30 e0       	ldi	r19, 0x00	; 0
     1b2:	40 e0       	ldi	r20, 0x00	; 0
     1b4:	50 e0       	ldi	r21, 0x00	; 0
     1b6:	04 c0       	rjmp	.+8      	; 0x1c0 <_fpadd_parts+0xe6>
     1b8:	22 0f       	add	r18, r18
     1ba:	33 1f       	adc	r19, r19
     1bc:	44 1f       	adc	r20, r20
     1be:	55 1f       	adc	r21, r21
     1c0:	6a 95       	dec	r22
     1c2:	d2 f7       	brpl	.-12     	; 0x1b8 <_fpadd_parts+0xde>
     1c4:	21 50       	subi	r18, 0x01	; 1
     1c6:	30 40       	sbci	r19, 0x00	; 0
     1c8:	40 40       	sbci	r20, 0x00	; 0
     1ca:	50 40       	sbci	r21, 0x00	; 0
     1cc:	2e 21       	and	r18, r14
     1ce:	3f 21       	and	r19, r15
     1d0:	40 23       	and	r20, r16
     1d2:	51 23       	and	r21, r17
     1d4:	21 15       	cp	r18, r1
     1d6:	31 05       	cpc	r19, r1
     1d8:	41 05       	cpc	r20, r1
     1da:	51 05       	cpc	r21, r1
     1dc:	21 f0       	breq	.+8      	; 0x1e6 <_fpadd_parts+0x10c>
     1de:	21 e0       	ldi	r18, 0x01	; 1
     1e0:	30 e0       	ldi	r19, 0x00	; 0
     1e2:	40 e0       	ldi	r20, 0x00	; 0
     1e4:	50 e0       	ldi	r21, 0x00	; 0
     1e6:	79 01       	movw	r14, r18
     1e8:	8a 01       	movw	r16, r20
     1ea:	e6 28       	or	r14, r6
     1ec:	f7 28       	or	r15, r7
     1ee:	08 29       	or	r16, r8
     1f0:	19 29       	or	r17, r9
     1f2:	3c c0       	rjmp	.+120    	; 0x26c <_fpadd_parts+0x192>
     1f4:	23 2b       	or	r18, r19
     1f6:	d1 f1       	breq	.+116    	; 0x26c <_fpadd_parts+0x192>
     1f8:	26 0e       	add	r2, r22
     1fa:	37 1e       	adc	r3, r23
     1fc:	35 01       	movw	r6, r10
     1fe:	46 01       	movw	r8, r12
     200:	06 2e       	mov	r0, r22
     202:	04 c0       	rjmp	.+8      	; 0x20c <_fpadd_parts+0x132>
     204:	96 94       	lsr	r9
     206:	87 94       	ror	r8
     208:	77 94       	ror	r7
     20a:	67 94       	ror	r6
     20c:	0a 94       	dec	r0
     20e:	d2 f7       	brpl	.-12     	; 0x204 <_fpadd_parts+0x12a>
     210:	21 e0       	ldi	r18, 0x01	; 1
     212:	30 e0       	ldi	r19, 0x00	; 0
     214:	40 e0       	ldi	r20, 0x00	; 0
     216:	50 e0       	ldi	r21, 0x00	; 0
     218:	04 c0       	rjmp	.+8      	; 0x222 <_fpadd_parts+0x148>
     21a:	22 0f       	add	r18, r18
     21c:	33 1f       	adc	r19, r19
     21e:	44 1f       	adc	r20, r20
     220:	55 1f       	adc	r21, r21
     222:	6a 95       	dec	r22
     224:	d2 f7       	brpl	.-12     	; 0x21a <_fpadd_parts+0x140>
     226:	21 50       	subi	r18, 0x01	; 1
     228:	30 40       	sbci	r19, 0x00	; 0
     22a:	40 40       	sbci	r20, 0x00	; 0
     22c:	50 40       	sbci	r21, 0x00	; 0
     22e:	2a 21       	and	r18, r10
     230:	3b 21       	and	r19, r11
     232:	4c 21       	and	r20, r12
     234:	5d 21       	and	r21, r13
     236:	21 15       	cp	r18, r1
     238:	31 05       	cpc	r19, r1
     23a:	41 05       	cpc	r20, r1
     23c:	51 05       	cpc	r21, r1
     23e:	21 f0       	breq	.+8      	; 0x248 <_fpadd_parts+0x16e>
     240:	21 e0       	ldi	r18, 0x01	; 1
     242:	30 e0       	ldi	r19, 0x00	; 0
     244:	40 e0       	ldi	r20, 0x00	; 0
     246:	50 e0       	ldi	r21, 0x00	; 0
     248:	59 01       	movw	r10, r18
     24a:	6a 01       	movw	r12, r20
     24c:	a6 28       	or	r10, r6
     24e:	b7 28       	or	r11, r7
     250:	c8 28       	or	r12, r8
     252:	d9 28       	or	r13, r9
     254:	0b c0       	rjmp	.+22     	; 0x26c <_fpadd_parts+0x192>
     256:	82 15       	cp	r24, r2
     258:	93 05       	cpc	r25, r3
     25a:	2c f0       	brlt	.+10     	; 0x266 <_fpadd_parts+0x18c>
     25c:	1c 01       	movw	r2, r24
     25e:	aa 24       	eor	r10, r10
     260:	bb 24       	eor	r11, r11
     262:	65 01       	movw	r12, r10
     264:	03 c0       	rjmp	.+6      	; 0x26c <_fpadd_parts+0x192>
     266:	ee 24       	eor	r14, r14
     268:	ff 24       	eor	r15, r15
     26a:	87 01       	movw	r16, r14
     26c:	11 96       	adiw	r26, 0x01	; 1
     26e:	9c 91       	ld	r25, X
     270:	d2 01       	movw	r26, r4
     272:	11 96       	adiw	r26, 0x01	; 1
     274:	8c 91       	ld	r24, X
     276:	98 17       	cp	r25, r24
     278:	09 f4       	brne	.+2      	; 0x27c <_fpadd_parts+0x1a2>
     27a:	45 c0       	rjmp	.+138    	; 0x306 <_fpadd_parts+0x22c>
     27c:	99 23       	and	r25, r25
     27e:	39 f0       	breq	.+14     	; 0x28e <_fpadd_parts+0x1b4>
     280:	a8 01       	movw	r20, r16
     282:	97 01       	movw	r18, r14
     284:	2a 19       	sub	r18, r10
     286:	3b 09       	sbc	r19, r11
     288:	4c 09       	sbc	r20, r12
     28a:	5d 09       	sbc	r21, r13
     28c:	06 c0       	rjmp	.+12     	; 0x29a <_fpadd_parts+0x1c0>
     28e:	a6 01       	movw	r20, r12
     290:	95 01       	movw	r18, r10
     292:	2e 19       	sub	r18, r14
     294:	3f 09       	sbc	r19, r15
     296:	40 0b       	sbc	r20, r16
     298:	51 0b       	sbc	r21, r17
     29a:	57 fd       	sbrc	r21, 7
     29c:	08 c0       	rjmp	.+16     	; 0x2ae <_fpadd_parts+0x1d4>
     29e:	11 82       	std	Z+1, r1	; 0x01
     2a0:	33 82       	std	Z+3, r3	; 0x03
     2a2:	22 82       	std	Z+2, r2	; 0x02
     2a4:	24 83       	std	Z+4, r18	; 0x04
     2a6:	35 83       	std	Z+5, r19	; 0x05
     2a8:	46 83       	std	Z+6, r20	; 0x06
     2aa:	57 83       	std	Z+7, r21	; 0x07
     2ac:	1d c0       	rjmp	.+58     	; 0x2e8 <_fpadd_parts+0x20e>
     2ae:	81 e0       	ldi	r24, 0x01	; 1
     2b0:	81 83       	std	Z+1, r24	; 0x01
     2b2:	33 82       	std	Z+3, r3	; 0x03
     2b4:	22 82       	std	Z+2, r2	; 0x02
     2b6:	88 27       	eor	r24, r24
     2b8:	99 27       	eor	r25, r25
     2ba:	dc 01       	movw	r26, r24
     2bc:	82 1b       	sub	r24, r18
     2be:	93 0b       	sbc	r25, r19
     2c0:	a4 0b       	sbc	r26, r20
     2c2:	b5 0b       	sbc	r27, r21
     2c4:	84 83       	std	Z+4, r24	; 0x04
     2c6:	95 83       	std	Z+5, r25	; 0x05
     2c8:	a6 83       	std	Z+6, r26	; 0x06
     2ca:	b7 83       	std	Z+7, r27	; 0x07
     2cc:	0d c0       	rjmp	.+26     	; 0x2e8 <_fpadd_parts+0x20e>
     2ce:	22 0f       	add	r18, r18
     2d0:	33 1f       	adc	r19, r19
     2d2:	44 1f       	adc	r20, r20
     2d4:	55 1f       	adc	r21, r21
     2d6:	24 83       	std	Z+4, r18	; 0x04
     2d8:	35 83       	std	Z+5, r19	; 0x05
     2da:	46 83       	std	Z+6, r20	; 0x06
     2dc:	57 83       	std	Z+7, r21	; 0x07
     2de:	82 81       	ldd	r24, Z+2	; 0x02
     2e0:	93 81       	ldd	r25, Z+3	; 0x03
     2e2:	01 97       	sbiw	r24, 0x01	; 1
     2e4:	93 83       	std	Z+3, r25	; 0x03
     2e6:	82 83       	std	Z+2, r24	; 0x02
     2e8:	24 81       	ldd	r18, Z+4	; 0x04
     2ea:	35 81       	ldd	r19, Z+5	; 0x05
     2ec:	46 81       	ldd	r20, Z+6	; 0x06
     2ee:	57 81       	ldd	r21, Z+7	; 0x07
     2f0:	da 01       	movw	r26, r20
     2f2:	c9 01       	movw	r24, r18
     2f4:	01 97       	sbiw	r24, 0x01	; 1
     2f6:	a1 09       	sbc	r26, r1
     2f8:	b1 09       	sbc	r27, r1
     2fa:	8f 5f       	subi	r24, 0xFF	; 255
     2fc:	9f 4f       	sbci	r25, 0xFF	; 255
     2fe:	af 4f       	sbci	r26, 0xFF	; 255
     300:	bf 43       	sbci	r27, 0x3F	; 63
     302:	28 f3       	brcs	.-54     	; 0x2ce <_fpadd_parts+0x1f4>
     304:	0b c0       	rjmp	.+22     	; 0x31c <_fpadd_parts+0x242>
     306:	91 83       	std	Z+1, r25	; 0x01
     308:	33 82       	std	Z+3, r3	; 0x03
     30a:	22 82       	std	Z+2, r2	; 0x02
     30c:	ea 0c       	add	r14, r10
     30e:	fb 1c       	adc	r15, r11
     310:	0c 1d       	adc	r16, r12
     312:	1d 1d       	adc	r17, r13
     314:	e4 82       	std	Z+4, r14	; 0x04
     316:	f5 82       	std	Z+5, r15	; 0x05
     318:	06 83       	std	Z+6, r16	; 0x06
     31a:	17 83       	std	Z+7, r17	; 0x07
     31c:	83 e0       	ldi	r24, 0x03	; 3
     31e:	80 83       	st	Z, r24
     320:	24 81       	ldd	r18, Z+4	; 0x04
     322:	35 81       	ldd	r19, Z+5	; 0x05
     324:	46 81       	ldd	r20, Z+6	; 0x06
     326:	57 81       	ldd	r21, Z+7	; 0x07
     328:	57 ff       	sbrs	r21, 7
     32a:	1a c0       	rjmp	.+52     	; 0x360 <_fpadd_parts+0x286>
     32c:	c9 01       	movw	r24, r18
     32e:	aa 27       	eor	r26, r26
     330:	97 fd       	sbrc	r25, 7
     332:	a0 95       	com	r26
     334:	ba 2f       	mov	r27, r26
     336:	81 70       	andi	r24, 0x01	; 1
     338:	90 70       	andi	r25, 0x00	; 0
     33a:	a0 70       	andi	r26, 0x00	; 0
     33c:	b0 70       	andi	r27, 0x00	; 0
     33e:	56 95       	lsr	r21
     340:	47 95       	ror	r20
     342:	37 95       	ror	r19
     344:	27 95       	ror	r18
     346:	82 2b       	or	r24, r18
     348:	93 2b       	or	r25, r19
     34a:	a4 2b       	or	r26, r20
     34c:	b5 2b       	or	r27, r21
     34e:	84 83       	std	Z+4, r24	; 0x04
     350:	95 83       	std	Z+5, r25	; 0x05
     352:	a6 83       	std	Z+6, r26	; 0x06
     354:	b7 83       	std	Z+7, r27	; 0x07
     356:	82 81       	ldd	r24, Z+2	; 0x02
     358:	93 81       	ldd	r25, Z+3	; 0x03
     35a:	01 96       	adiw	r24, 0x01	; 1
     35c:	93 83       	std	Z+3, r25	; 0x03
     35e:	82 83       	std	Z+2, r24	; 0x02
     360:	df 01       	movw	r26, r30
     362:	01 c0       	rjmp	.+2      	; 0x366 <_fpadd_parts+0x28c>
     364:	d2 01       	movw	r26, r4
     366:	cd 01       	movw	r24, r26
     368:	cd b7       	in	r28, 0x3d	; 61
     36a:	de b7       	in	r29, 0x3e	; 62
     36c:	e2 e1       	ldi	r30, 0x12	; 18
     36e:	0c 94 28 13 	jmp	0x2650	; 0x2650 <__epilogue_restores__>

00000372 <__subsf3>:
     372:	a0 e2       	ldi	r26, 0x20	; 32
     374:	b0 e0       	ldi	r27, 0x00	; 0
     376:	ef eb       	ldi	r30, 0xBF	; 191
     378:	f1 e0       	ldi	r31, 0x01	; 1
     37a:	0c 94 18 13 	jmp	0x2630	; 0x2630 <__prologue_saves__+0x18>
     37e:	69 83       	std	Y+1, r22	; 0x01
     380:	7a 83       	std	Y+2, r23	; 0x02
     382:	8b 83       	std	Y+3, r24	; 0x03
     384:	9c 83       	std	Y+4, r25	; 0x04
     386:	2d 83       	std	Y+5, r18	; 0x05
     388:	3e 83       	std	Y+6, r19	; 0x06
     38a:	4f 83       	std	Y+7, r20	; 0x07
     38c:	58 87       	std	Y+8, r21	; 0x08
     38e:	e9 e0       	ldi	r30, 0x09	; 9
     390:	ee 2e       	mov	r14, r30
     392:	f1 2c       	mov	r15, r1
     394:	ec 0e       	add	r14, r28
     396:	fd 1e       	adc	r15, r29
     398:	ce 01       	movw	r24, r28
     39a:	01 96       	adiw	r24, 0x01	; 1
     39c:	b7 01       	movw	r22, r14
     39e:	0e 94 76 05 	call	0xaec	; 0xaec <__unpack_f>
     3a2:	8e 01       	movw	r16, r28
     3a4:	0f 5e       	subi	r16, 0xEF	; 239
     3a6:	1f 4f       	sbci	r17, 0xFF	; 255
     3a8:	ce 01       	movw	r24, r28
     3aa:	05 96       	adiw	r24, 0x05	; 5
     3ac:	b8 01       	movw	r22, r16
     3ae:	0e 94 76 05 	call	0xaec	; 0xaec <__unpack_f>
     3b2:	8a 89       	ldd	r24, Y+18	; 0x12
     3b4:	91 e0       	ldi	r25, 0x01	; 1
     3b6:	89 27       	eor	r24, r25
     3b8:	8a 8b       	std	Y+18, r24	; 0x12
     3ba:	c7 01       	movw	r24, r14
     3bc:	b8 01       	movw	r22, r16
     3be:	ae 01       	movw	r20, r28
     3c0:	47 5e       	subi	r20, 0xE7	; 231
     3c2:	5f 4f       	sbci	r21, 0xFF	; 255
     3c4:	0e 94 6d 00 	call	0xda	; 0xda <_fpadd_parts>
     3c8:	0e 94 a1 04 	call	0x942	; 0x942 <__pack_f>
     3cc:	a0 96       	adiw	r28, 0x20	; 32
     3ce:	e6 e0       	ldi	r30, 0x06	; 6
     3d0:	0c 94 34 13 	jmp	0x2668	; 0x2668 <__epilogue_restores__+0x18>

000003d4 <__addsf3>:
     3d4:	a0 e2       	ldi	r26, 0x20	; 32
     3d6:	b0 e0       	ldi	r27, 0x00	; 0
     3d8:	e0 ef       	ldi	r30, 0xF0	; 240
     3da:	f1 e0       	ldi	r31, 0x01	; 1
     3dc:	0c 94 18 13 	jmp	0x2630	; 0x2630 <__prologue_saves__+0x18>
     3e0:	69 83       	std	Y+1, r22	; 0x01
     3e2:	7a 83       	std	Y+2, r23	; 0x02
     3e4:	8b 83       	std	Y+3, r24	; 0x03
     3e6:	9c 83       	std	Y+4, r25	; 0x04
     3e8:	2d 83       	std	Y+5, r18	; 0x05
     3ea:	3e 83       	std	Y+6, r19	; 0x06
     3ec:	4f 83       	std	Y+7, r20	; 0x07
     3ee:	58 87       	std	Y+8, r21	; 0x08
     3f0:	f9 e0       	ldi	r31, 0x09	; 9
     3f2:	ef 2e       	mov	r14, r31
     3f4:	f1 2c       	mov	r15, r1
     3f6:	ec 0e       	add	r14, r28
     3f8:	fd 1e       	adc	r15, r29
     3fa:	ce 01       	movw	r24, r28
     3fc:	01 96       	adiw	r24, 0x01	; 1
     3fe:	b7 01       	movw	r22, r14
     400:	0e 94 76 05 	call	0xaec	; 0xaec <__unpack_f>
     404:	8e 01       	movw	r16, r28
     406:	0f 5e       	subi	r16, 0xEF	; 239
     408:	1f 4f       	sbci	r17, 0xFF	; 255
     40a:	ce 01       	movw	r24, r28
     40c:	05 96       	adiw	r24, 0x05	; 5
     40e:	b8 01       	movw	r22, r16
     410:	0e 94 76 05 	call	0xaec	; 0xaec <__unpack_f>
     414:	c7 01       	movw	r24, r14
     416:	b8 01       	movw	r22, r16
     418:	ae 01       	movw	r20, r28
     41a:	47 5e       	subi	r20, 0xE7	; 231
     41c:	5f 4f       	sbci	r21, 0xFF	; 255
     41e:	0e 94 6d 00 	call	0xda	; 0xda <_fpadd_parts>
     422:	0e 94 a1 04 	call	0x942	; 0x942 <__pack_f>
     426:	a0 96       	adiw	r28, 0x20	; 32
     428:	e6 e0       	ldi	r30, 0x06	; 6
     42a:	0c 94 34 13 	jmp	0x2668	; 0x2668 <__epilogue_restores__+0x18>

0000042e <__mulsf3>:
     42e:	a0 e2       	ldi	r26, 0x20	; 32
     430:	b0 e0       	ldi	r27, 0x00	; 0
     432:	ed e1       	ldi	r30, 0x1D	; 29
     434:	f2 e0       	ldi	r31, 0x02	; 2
     436:	0c 94 0c 13 	jmp	0x2618	; 0x2618 <__prologue_saves__>
     43a:	69 83       	std	Y+1, r22	; 0x01
     43c:	7a 83       	std	Y+2, r23	; 0x02
     43e:	8b 83       	std	Y+3, r24	; 0x03
     440:	9c 83       	std	Y+4, r25	; 0x04
     442:	2d 83       	std	Y+5, r18	; 0x05
     444:	3e 83       	std	Y+6, r19	; 0x06
     446:	4f 83       	std	Y+7, r20	; 0x07
     448:	58 87       	std	Y+8, r21	; 0x08
     44a:	ce 01       	movw	r24, r28
     44c:	01 96       	adiw	r24, 0x01	; 1
     44e:	be 01       	movw	r22, r28
     450:	67 5f       	subi	r22, 0xF7	; 247
     452:	7f 4f       	sbci	r23, 0xFF	; 255
     454:	0e 94 76 05 	call	0xaec	; 0xaec <__unpack_f>
     458:	ce 01       	movw	r24, r28
     45a:	05 96       	adiw	r24, 0x05	; 5
     45c:	be 01       	movw	r22, r28
     45e:	6f 5e       	subi	r22, 0xEF	; 239
     460:	7f 4f       	sbci	r23, 0xFF	; 255
     462:	0e 94 76 05 	call	0xaec	; 0xaec <__unpack_f>
     466:	99 85       	ldd	r25, Y+9	; 0x09
     468:	92 30       	cpi	r25, 0x02	; 2
     46a:	88 f0       	brcs	.+34     	; 0x48e <__mulsf3+0x60>
     46c:	89 89       	ldd	r24, Y+17	; 0x11
     46e:	82 30       	cpi	r24, 0x02	; 2
     470:	c8 f0       	brcs	.+50     	; 0x4a4 <__mulsf3+0x76>
     472:	94 30       	cpi	r25, 0x04	; 4
     474:	19 f4       	brne	.+6      	; 0x47c <__mulsf3+0x4e>
     476:	82 30       	cpi	r24, 0x02	; 2
     478:	51 f4       	brne	.+20     	; 0x48e <__mulsf3+0x60>
     47a:	04 c0       	rjmp	.+8      	; 0x484 <__mulsf3+0x56>
     47c:	84 30       	cpi	r24, 0x04	; 4
     47e:	29 f4       	brne	.+10     	; 0x48a <__mulsf3+0x5c>
     480:	92 30       	cpi	r25, 0x02	; 2
     482:	81 f4       	brne	.+32     	; 0x4a4 <__mulsf3+0x76>
     484:	8c e7       	ldi	r24, 0x7C	; 124
     486:	90 e0       	ldi	r25, 0x00	; 0
     488:	c6 c0       	rjmp	.+396    	; 0x616 <__mulsf3+0x1e8>
     48a:	92 30       	cpi	r25, 0x02	; 2
     48c:	49 f4       	brne	.+18     	; 0x4a0 <__mulsf3+0x72>
     48e:	20 e0       	ldi	r18, 0x00	; 0
     490:	9a 85       	ldd	r25, Y+10	; 0x0a
     492:	8a 89       	ldd	r24, Y+18	; 0x12
     494:	98 13       	cpse	r25, r24
     496:	21 e0       	ldi	r18, 0x01	; 1
     498:	2a 87       	std	Y+10, r18	; 0x0a
     49a:	ce 01       	movw	r24, r28
     49c:	09 96       	adiw	r24, 0x09	; 9
     49e:	bb c0       	rjmp	.+374    	; 0x616 <__mulsf3+0x1e8>
     4a0:	82 30       	cpi	r24, 0x02	; 2
     4a2:	49 f4       	brne	.+18     	; 0x4b6 <__mulsf3+0x88>
     4a4:	20 e0       	ldi	r18, 0x00	; 0
     4a6:	9a 85       	ldd	r25, Y+10	; 0x0a
     4a8:	8a 89       	ldd	r24, Y+18	; 0x12
     4aa:	98 13       	cpse	r25, r24
     4ac:	21 e0       	ldi	r18, 0x01	; 1
     4ae:	2a 8b       	std	Y+18, r18	; 0x12
     4b0:	ce 01       	movw	r24, r28
     4b2:	41 96       	adiw	r24, 0x11	; 17
     4b4:	b0 c0       	rjmp	.+352    	; 0x616 <__mulsf3+0x1e8>
     4b6:	2d 84       	ldd	r2, Y+13	; 0x0d
     4b8:	3e 84       	ldd	r3, Y+14	; 0x0e
     4ba:	4f 84       	ldd	r4, Y+15	; 0x0f
     4bc:	58 88       	ldd	r5, Y+16	; 0x10
     4be:	6d 88       	ldd	r6, Y+21	; 0x15
     4c0:	7e 88       	ldd	r7, Y+22	; 0x16
     4c2:	8f 88       	ldd	r8, Y+23	; 0x17
     4c4:	98 8c       	ldd	r9, Y+24	; 0x18
     4c6:	ee 24       	eor	r14, r14
     4c8:	ff 24       	eor	r15, r15
     4ca:	87 01       	movw	r16, r14
     4cc:	aa 24       	eor	r10, r10
     4ce:	bb 24       	eor	r11, r11
     4d0:	65 01       	movw	r12, r10
     4d2:	40 e0       	ldi	r20, 0x00	; 0
     4d4:	50 e0       	ldi	r21, 0x00	; 0
     4d6:	60 e0       	ldi	r22, 0x00	; 0
     4d8:	70 e0       	ldi	r23, 0x00	; 0
     4da:	e0 e0       	ldi	r30, 0x00	; 0
     4dc:	f0 e0       	ldi	r31, 0x00	; 0
     4de:	c1 01       	movw	r24, r2
     4e0:	81 70       	andi	r24, 0x01	; 1
     4e2:	90 70       	andi	r25, 0x00	; 0
     4e4:	89 2b       	or	r24, r25
     4e6:	e9 f0       	breq	.+58     	; 0x522 <__mulsf3+0xf4>
     4e8:	e6 0c       	add	r14, r6
     4ea:	f7 1c       	adc	r15, r7
     4ec:	08 1d       	adc	r16, r8
     4ee:	19 1d       	adc	r17, r9
     4f0:	9a 01       	movw	r18, r20
     4f2:	ab 01       	movw	r20, r22
     4f4:	2a 0d       	add	r18, r10
     4f6:	3b 1d       	adc	r19, r11
     4f8:	4c 1d       	adc	r20, r12
     4fa:	5d 1d       	adc	r21, r13
     4fc:	80 e0       	ldi	r24, 0x00	; 0
     4fe:	90 e0       	ldi	r25, 0x00	; 0
     500:	a0 e0       	ldi	r26, 0x00	; 0
     502:	b0 e0       	ldi	r27, 0x00	; 0
     504:	e6 14       	cp	r14, r6
     506:	f7 04       	cpc	r15, r7
     508:	08 05       	cpc	r16, r8
     50a:	19 05       	cpc	r17, r9
     50c:	20 f4       	brcc	.+8      	; 0x516 <__mulsf3+0xe8>
     50e:	81 e0       	ldi	r24, 0x01	; 1
     510:	90 e0       	ldi	r25, 0x00	; 0
     512:	a0 e0       	ldi	r26, 0x00	; 0
     514:	b0 e0       	ldi	r27, 0x00	; 0
     516:	ba 01       	movw	r22, r20
     518:	a9 01       	movw	r20, r18
     51a:	48 0f       	add	r20, r24
     51c:	59 1f       	adc	r21, r25
     51e:	6a 1f       	adc	r22, r26
     520:	7b 1f       	adc	r23, r27
     522:	aa 0c       	add	r10, r10
     524:	bb 1c       	adc	r11, r11
     526:	cc 1c       	adc	r12, r12
     528:	dd 1c       	adc	r13, r13
     52a:	97 fe       	sbrs	r9, 7
     52c:	08 c0       	rjmp	.+16     	; 0x53e <__mulsf3+0x110>
     52e:	81 e0       	ldi	r24, 0x01	; 1
     530:	90 e0       	ldi	r25, 0x00	; 0
     532:	a0 e0       	ldi	r26, 0x00	; 0
     534:	b0 e0       	ldi	r27, 0x00	; 0
     536:	a8 2a       	or	r10, r24
     538:	b9 2a       	or	r11, r25
     53a:	ca 2a       	or	r12, r26
     53c:	db 2a       	or	r13, r27
     53e:	31 96       	adiw	r30, 0x01	; 1
     540:	e0 32       	cpi	r30, 0x20	; 32
     542:	f1 05       	cpc	r31, r1
     544:	49 f0       	breq	.+18     	; 0x558 <__mulsf3+0x12a>
     546:	66 0c       	add	r6, r6
     548:	77 1c       	adc	r7, r7
     54a:	88 1c       	adc	r8, r8
     54c:	99 1c       	adc	r9, r9
     54e:	56 94       	lsr	r5
     550:	47 94       	ror	r4
     552:	37 94       	ror	r3
     554:	27 94       	ror	r2
     556:	c3 cf       	rjmp	.-122    	; 0x4de <__mulsf3+0xb0>
     558:	fa 85       	ldd	r31, Y+10	; 0x0a
     55a:	ea 89       	ldd	r30, Y+18	; 0x12
     55c:	2b 89       	ldd	r18, Y+19	; 0x13
     55e:	3c 89       	ldd	r19, Y+20	; 0x14
     560:	8b 85       	ldd	r24, Y+11	; 0x0b
     562:	9c 85       	ldd	r25, Y+12	; 0x0c
     564:	28 0f       	add	r18, r24
     566:	39 1f       	adc	r19, r25
     568:	2e 5f       	subi	r18, 0xFE	; 254
     56a:	3f 4f       	sbci	r19, 0xFF	; 255
     56c:	17 c0       	rjmp	.+46     	; 0x59c <__mulsf3+0x16e>
     56e:	ca 01       	movw	r24, r20
     570:	81 70       	andi	r24, 0x01	; 1
     572:	90 70       	andi	r25, 0x00	; 0
     574:	89 2b       	or	r24, r25
     576:	61 f0       	breq	.+24     	; 0x590 <__mulsf3+0x162>
     578:	16 95       	lsr	r17
     57a:	07 95       	ror	r16
     57c:	f7 94       	ror	r15
     57e:	e7 94       	ror	r14
     580:	80 e0       	ldi	r24, 0x00	; 0
     582:	90 e0       	ldi	r25, 0x00	; 0
     584:	a0 e0       	ldi	r26, 0x00	; 0
     586:	b0 e8       	ldi	r27, 0x80	; 128
     588:	e8 2a       	or	r14, r24
     58a:	f9 2a       	or	r15, r25
     58c:	0a 2b       	or	r16, r26
     58e:	1b 2b       	or	r17, r27
     590:	76 95       	lsr	r23
     592:	67 95       	ror	r22
     594:	57 95       	ror	r21
     596:	47 95       	ror	r20
     598:	2f 5f       	subi	r18, 0xFF	; 255
     59a:	3f 4f       	sbci	r19, 0xFF	; 255
     59c:	77 fd       	sbrc	r23, 7
     59e:	e7 cf       	rjmp	.-50     	; 0x56e <__mulsf3+0x140>
     5a0:	0c c0       	rjmp	.+24     	; 0x5ba <__mulsf3+0x18c>
     5a2:	44 0f       	add	r20, r20
     5a4:	55 1f       	adc	r21, r21
     5a6:	66 1f       	adc	r22, r22
     5a8:	77 1f       	adc	r23, r23
     5aa:	17 fd       	sbrc	r17, 7
     5ac:	41 60       	ori	r20, 0x01	; 1
     5ae:	ee 0c       	add	r14, r14
     5b0:	ff 1c       	adc	r15, r15
     5b2:	00 1f       	adc	r16, r16
     5b4:	11 1f       	adc	r17, r17
     5b6:	21 50       	subi	r18, 0x01	; 1
     5b8:	30 40       	sbci	r19, 0x00	; 0
     5ba:	40 30       	cpi	r20, 0x00	; 0
     5bc:	90 e0       	ldi	r25, 0x00	; 0
     5be:	59 07       	cpc	r21, r25
     5c0:	90 e0       	ldi	r25, 0x00	; 0
     5c2:	69 07       	cpc	r22, r25
     5c4:	90 e4       	ldi	r25, 0x40	; 64
     5c6:	79 07       	cpc	r23, r25
     5c8:	60 f3       	brcs	.-40     	; 0x5a2 <__mulsf3+0x174>
     5ca:	2b 8f       	std	Y+27, r18	; 0x1b
     5cc:	3c 8f       	std	Y+28, r19	; 0x1c
     5ce:	db 01       	movw	r26, r22
     5d0:	ca 01       	movw	r24, r20
     5d2:	8f 77       	andi	r24, 0x7F	; 127
     5d4:	90 70       	andi	r25, 0x00	; 0
     5d6:	a0 70       	andi	r26, 0x00	; 0
     5d8:	b0 70       	andi	r27, 0x00	; 0
     5da:	80 34       	cpi	r24, 0x40	; 64
     5dc:	91 05       	cpc	r25, r1
     5de:	a1 05       	cpc	r26, r1
     5e0:	b1 05       	cpc	r27, r1
     5e2:	61 f4       	brne	.+24     	; 0x5fc <__mulsf3+0x1ce>
     5e4:	47 fd       	sbrc	r20, 7
     5e6:	0a c0       	rjmp	.+20     	; 0x5fc <__mulsf3+0x1ce>
     5e8:	e1 14       	cp	r14, r1
     5ea:	f1 04       	cpc	r15, r1
     5ec:	01 05       	cpc	r16, r1
     5ee:	11 05       	cpc	r17, r1
     5f0:	29 f0       	breq	.+10     	; 0x5fc <__mulsf3+0x1ce>
     5f2:	40 5c       	subi	r20, 0xC0	; 192
     5f4:	5f 4f       	sbci	r21, 0xFF	; 255
     5f6:	6f 4f       	sbci	r22, 0xFF	; 255
     5f8:	7f 4f       	sbci	r23, 0xFF	; 255
     5fa:	40 78       	andi	r20, 0x80	; 128
     5fc:	1a 8e       	std	Y+26, r1	; 0x1a
     5fe:	fe 17       	cp	r31, r30
     600:	11 f0       	breq	.+4      	; 0x606 <__mulsf3+0x1d8>
     602:	81 e0       	ldi	r24, 0x01	; 1
     604:	8a 8f       	std	Y+26, r24	; 0x1a
     606:	4d 8f       	std	Y+29, r20	; 0x1d
     608:	5e 8f       	std	Y+30, r21	; 0x1e
     60a:	6f 8f       	std	Y+31, r22	; 0x1f
     60c:	78 a3       	std	Y+32, r23	; 0x20
     60e:	83 e0       	ldi	r24, 0x03	; 3
     610:	89 8f       	std	Y+25, r24	; 0x19
     612:	ce 01       	movw	r24, r28
     614:	49 96       	adiw	r24, 0x19	; 25
     616:	0e 94 a1 04 	call	0x942	; 0x942 <__pack_f>
     61a:	a0 96       	adiw	r28, 0x20	; 32
     61c:	e2 e1       	ldi	r30, 0x12	; 18
     61e:	0c 94 28 13 	jmp	0x2650	; 0x2650 <__epilogue_restores__>

00000622 <__divsf3>:
     622:	a8 e1       	ldi	r26, 0x18	; 24
     624:	b0 e0       	ldi	r27, 0x00	; 0
     626:	e7 e1       	ldi	r30, 0x17	; 23
     628:	f3 e0       	ldi	r31, 0x03	; 3
     62a:	0c 94 14 13 	jmp	0x2628	; 0x2628 <__prologue_saves__+0x10>
     62e:	69 83       	std	Y+1, r22	; 0x01
     630:	7a 83       	std	Y+2, r23	; 0x02
     632:	8b 83       	std	Y+3, r24	; 0x03
     634:	9c 83       	std	Y+4, r25	; 0x04
     636:	2d 83       	std	Y+5, r18	; 0x05
     638:	3e 83       	std	Y+6, r19	; 0x06
     63a:	4f 83       	std	Y+7, r20	; 0x07
     63c:	58 87       	std	Y+8, r21	; 0x08
     63e:	b9 e0       	ldi	r27, 0x09	; 9
     640:	eb 2e       	mov	r14, r27
     642:	f1 2c       	mov	r15, r1
     644:	ec 0e       	add	r14, r28
     646:	fd 1e       	adc	r15, r29
     648:	ce 01       	movw	r24, r28
     64a:	01 96       	adiw	r24, 0x01	; 1
     64c:	b7 01       	movw	r22, r14
     64e:	0e 94 76 05 	call	0xaec	; 0xaec <__unpack_f>
     652:	8e 01       	movw	r16, r28
     654:	0f 5e       	subi	r16, 0xEF	; 239
     656:	1f 4f       	sbci	r17, 0xFF	; 255
     658:	ce 01       	movw	r24, r28
     65a:	05 96       	adiw	r24, 0x05	; 5
     65c:	b8 01       	movw	r22, r16
     65e:	0e 94 76 05 	call	0xaec	; 0xaec <__unpack_f>
     662:	29 85       	ldd	r18, Y+9	; 0x09
     664:	22 30       	cpi	r18, 0x02	; 2
     666:	08 f4       	brcc	.+2      	; 0x66a <__divsf3+0x48>
     668:	7e c0       	rjmp	.+252    	; 0x766 <__divsf3+0x144>
     66a:	39 89       	ldd	r19, Y+17	; 0x11
     66c:	32 30       	cpi	r19, 0x02	; 2
     66e:	10 f4       	brcc	.+4      	; 0x674 <__divsf3+0x52>
     670:	b8 01       	movw	r22, r16
     672:	7c c0       	rjmp	.+248    	; 0x76c <__divsf3+0x14a>
     674:	8a 85       	ldd	r24, Y+10	; 0x0a
     676:	9a 89       	ldd	r25, Y+18	; 0x12
     678:	89 27       	eor	r24, r25
     67a:	8a 87       	std	Y+10, r24	; 0x0a
     67c:	24 30       	cpi	r18, 0x04	; 4
     67e:	11 f0       	breq	.+4      	; 0x684 <__divsf3+0x62>
     680:	22 30       	cpi	r18, 0x02	; 2
     682:	31 f4       	brne	.+12     	; 0x690 <__divsf3+0x6e>
     684:	23 17       	cp	r18, r19
     686:	09 f0       	breq	.+2      	; 0x68a <__divsf3+0x68>
     688:	6e c0       	rjmp	.+220    	; 0x766 <__divsf3+0x144>
     68a:	6c e7       	ldi	r22, 0x7C	; 124
     68c:	70 e0       	ldi	r23, 0x00	; 0
     68e:	6e c0       	rjmp	.+220    	; 0x76c <__divsf3+0x14a>
     690:	34 30       	cpi	r19, 0x04	; 4
     692:	39 f4       	brne	.+14     	; 0x6a2 <__divsf3+0x80>
     694:	1d 86       	std	Y+13, r1	; 0x0d
     696:	1e 86       	std	Y+14, r1	; 0x0e
     698:	1f 86       	std	Y+15, r1	; 0x0f
     69a:	18 8a       	std	Y+16, r1	; 0x10
     69c:	1c 86       	std	Y+12, r1	; 0x0c
     69e:	1b 86       	std	Y+11, r1	; 0x0b
     6a0:	04 c0       	rjmp	.+8      	; 0x6aa <__divsf3+0x88>
     6a2:	32 30       	cpi	r19, 0x02	; 2
     6a4:	21 f4       	brne	.+8      	; 0x6ae <__divsf3+0x8c>
     6a6:	84 e0       	ldi	r24, 0x04	; 4
     6a8:	89 87       	std	Y+9, r24	; 0x09
     6aa:	b7 01       	movw	r22, r14
     6ac:	5f c0       	rjmp	.+190    	; 0x76c <__divsf3+0x14a>
     6ae:	2b 85       	ldd	r18, Y+11	; 0x0b
     6b0:	3c 85       	ldd	r19, Y+12	; 0x0c
     6b2:	8b 89       	ldd	r24, Y+19	; 0x13
     6b4:	9c 89       	ldd	r25, Y+20	; 0x14
     6b6:	28 1b       	sub	r18, r24
     6b8:	39 0b       	sbc	r19, r25
     6ba:	3c 87       	std	Y+12, r19	; 0x0c
     6bc:	2b 87       	std	Y+11, r18	; 0x0b
     6be:	ed 84       	ldd	r14, Y+13	; 0x0d
     6c0:	fe 84       	ldd	r15, Y+14	; 0x0e
     6c2:	0f 85       	ldd	r16, Y+15	; 0x0f
     6c4:	18 89       	ldd	r17, Y+16	; 0x10
     6c6:	ad 88       	ldd	r10, Y+21	; 0x15
     6c8:	be 88       	ldd	r11, Y+22	; 0x16
     6ca:	cf 88       	ldd	r12, Y+23	; 0x17
     6cc:	d8 8c       	ldd	r13, Y+24	; 0x18
     6ce:	ea 14       	cp	r14, r10
     6d0:	fb 04       	cpc	r15, r11
     6d2:	0c 05       	cpc	r16, r12
     6d4:	1d 05       	cpc	r17, r13
     6d6:	40 f4       	brcc	.+16     	; 0x6e8 <__divsf3+0xc6>
     6d8:	ee 0c       	add	r14, r14
     6da:	ff 1c       	adc	r15, r15
     6dc:	00 1f       	adc	r16, r16
     6de:	11 1f       	adc	r17, r17
     6e0:	21 50       	subi	r18, 0x01	; 1
     6e2:	30 40       	sbci	r19, 0x00	; 0
     6e4:	3c 87       	std	Y+12, r19	; 0x0c
     6e6:	2b 87       	std	Y+11, r18	; 0x0b
     6e8:	20 e0       	ldi	r18, 0x00	; 0
     6ea:	30 e0       	ldi	r19, 0x00	; 0
     6ec:	40 e0       	ldi	r20, 0x00	; 0
     6ee:	50 e0       	ldi	r21, 0x00	; 0
     6f0:	80 e0       	ldi	r24, 0x00	; 0
     6f2:	90 e0       	ldi	r25, 0x00	; 0
     6f4:	a0 e0       	ldi	r26, 0x00	; 0
     6f6:	b0 e4       	ldi	r27, 0x40	; 64
     6f8:	60 e0       	ldi	r22, 0x00	; 0
     6fa:	70 e0       	ldi	r23, 0x00	; 0
     6fc:	ea 14       	cp	r14, r10
     6fe:	fb 04       	cpc	r15, r11
     700:	0c 05       	cpc	r16, r12
     702:	1d 05       	cpc	r17, r13
     704:	40 f0       	brcs	.+16     	; 0x716 <__divsf3+0xf4>
     706:	28 2b       	or	r18, r24
     708:	39 2b       	or	r19, r25
     70a:	4a 2b       	or	r20, r26
     70c:	5b 2b       	or	r21, r27
     70e:	ea 18       	sub	r14, r10
     710:	fb 08       	sbc	r15, r11
     712:	0c 09       	sbc	r16, r12
     714:	1d 09       	sbc	r17, r13
     716:	b6 95       	lsr	r27
     718:	a7 95       	ror	r26
     71a:	97 95       	ror	r25
     71c:	87 95       	ror	r24
     71e:	ee 0c       	add	r14, r14
     720:	ff 1c       	adc	r15, r15
     722:	00 1f       	adc	r16, r16
     724:	11 1f       	adc	r17, r17
     726:	6f 5f       	subi	r22, 0xFF	; 255
     728:	7f 4f       	sbci	r23, 0xFF	; 255
     72a:	6f 31       	cpi	r22, 0x1F	; 31
     72c:	71 05       	cpc	r23, r1
     72e:	31 f7       	brne	.-52     	; 0x6fc <__divsf3+0xda>
     730:	da 01       	movw	r26, r20
     732:	c9 01       	movw	r24, r18
     734:	8f 77       	andi	r24, 0x7F	; 127
     736:	90 70       	andi	r25, 0x00	; 0
     738:	a0 70       	andi	r26, 0x00	; 0
     73a:	b0 70       	andi	r27, 0x00	; 0
     73c:	80 34       	cpi	r24, 0x40	; 64
     73e:	91 05       	cpc	r25, r1
     740:	a1 05       	cpc	r26, r1
     742:	b1 05       	cpc	r27, r1
     744:	61 f4       	brne	.+24     	; 0x75e <__divsf3+0x13c>
     746:	27 fd       	sbrc	r18, 7
     748:	0a c0       	rjmp	.+20     	; 0x75e <__divsf3+0x13c>
     74a:	e1 14       	cp	r14, r1
     74c:	f1 04       	cpc	r15, r1
     74e:	01 05       	cpc	r16, r1
     750:	11 05       	cpc	r17, r1
     752:	29 f0       	breq	.+10     	; 0x75e <__divsf3+0x13c>
     754:	20 5c       	subi	r18, 0xC0	; 192
     756:	3f 4f       	sbci	r19, 0xFF	; 255
     758:	4f 4f       	sbci	r20, 0xFF	; 255
     75a:	5f 4f       	sbci	r21, 0xFF	; 255
     75c:	20 78       	andi	r18, 0x80	; 128
     75e:	2d 87       	std	Y+13, r18	; 0x0d
     760:	3e 87       	std	Y+14, r19	; 0x0e
     762:	4f 87       	std	Y+15, r20	; 0x0f
     764:	58 8b       	std	Y+16, r21	; 0x10
     766:	be 01       	movw	r22, r28
     768:	67 5f       	subi	r22, 0xF7	; 247
     76a:	7f 4f       	sbci	r23, 0xFF	; 255
     76c:	cb 01       	movw	r24, r22
     76e:	0e 94 a1 04 	call	0x942	; 0x942 <__pack_f>
     772:	68 96       	adiw	r28, 0x18	; 24
     774:	ea e0       	ldi	r30, 0x0A	; 10
     776:	0c 94 30 13 	jmp	0x2660	; 0x2660 <__epilogue_restores__+0x10>

0000077a <__gtsf2>:
     77a:	a8 e1       	ldi	r26, 0x18	; 24
     77c:	b0 e0       	ldi	r27, 0x00	; 0
     77e:	e3 ec       	ldi	r30, 0xC3	; 195
     780:	f3 e0       	ldi	r31, 0x03	; 3
     782:	0c 94 18 13 	jmp	0x2630	; 0x2630 <__prologue_saves__+0x18>
     786:	69 83       	std	Y+1, r22	; 0x01
     788:	7a 83       	std	Y+2, r23	; 0x02
     78a:	8b 83       	std	Y+3, r24	; 0x03
     78c:	9c 83       	std	Y+4, r25	; 0x04
     78e:	2d 83       	std	Y+5, r18	; 0x05
     790:	3e 83       	std	Y+6, r19	; 0x06
     792:	4f 83       	std	Y+7, r20	; 0x07
     794:	58 87       	std	Y+8, r21	; 0x08
     796:	89 e0       	ldi	r24, 0x09	; 9
     798:	e8 2e       	mov	r14, r24
     79a:	f1 2c       	mov	r15, r1
     79c:	ec 0e       	add	r14, r28
     79e:	fd 1e       	adc	r15, r29
     7a0:	ce 01       	movw	r24, r28
     7a2:	01 96       	adiw	r24, 0x01	; 1
     7a4:	b7 01       	movw	r22, r14
     7a6:	0e 94 76 05 	call	0xaec	; 0xaec <__unpack_f>
     7aa:	8e 01       	movw	r16, r28
     7ac:	0f 5e       	subi	r16, 0xEF	; 239
     7ae:	1f 4f       	sbci	r17, 0xFF	; 255
     7b0:	ce 01       	movw	r24, r28
     7b2:	05 96       	adiw	r24, 0x05	; 5
     7b4:	b8 01       	movw	r22, r16
     7b6:	0e 94 76 05 	call	0xaec	; 0xaec <__unpack_f>
     7ba:	89 85       	ldd	r24, Y+9	; 0x09
     7bc:	82 30       	cpi	r24, 0x02	; 2
     7be:	40 f0       	brcs	.+16     	; 0x7d0 <__gtsf2+0x56>
     7c0:	89 89       	ldd	r24, Y+17	; 0x11
     7c2:	82 30       	cpi	r24, 0x02	; 2
     7c4:	28 f0       	brcs	.+10     	; 0x7d0 <__gtsf2+0x56>
     7c6:	c7 01       	movw	r24, r14
     7c8:	b8 01       	movw	r22, r16
     7ca:	0e 94 ee 05 	call	0xbdc	; 0xbdc <__fpcmp_parts_f>
     7ce:	01 c0       	rjmp	.+2      	; 0x7d2 <__gtsf2+0x58>
     7d0:	8f ef       	ldi	r24, 0xFF	; 255
     7d2:	68 96       	adiw	r28, 0x18	; 24
     7d4:	e6 e0       	ldi	r30, 0x06	; 6
     7d6:	0c 94 34 13 	jmp	0x2668	; 0x2668 <__epilogue_restores__+0x18>

000007da <__gesf2>:
     7da:	a8 e1       	ldi	r26, 0x18	; 24
     7dc:	b0 e0       	ldi	r27, 0x00	; 0
     7de:	e3 ef       	ldi	r30, 0xF3	; 243
     7e0:	f3 e0       	ldi	r31, 0x03	; 3
     7e2:	0c 94 18 13 	jmp	0x2630	; 0x2630 <__prologue_saves__+0x18>
     7e6:	69 83       	std	Y+1, r22	; 0x01
     7e8:	7a 83       	std	Y+2, r23	; 0x02
     7ea:	8b 83       	std	Y+3, r24	; 0x03
     7ec:	9c 83       	std	Y+4, r25	; 0x04
     7ee:	2d 83       	std	Y+5, r18	; 0x05
     7f0:	3e 83       	std	Y+6, r19	; 0x06
     7f2:	4f 83       	std	Y+7, r20	; 0x07
     7f4:	58 87       	std	Y+8, r21	; 0x08
     7f6:	89 e0       	ldi	r24, 0x09	; 9
     7f8:	e8 2e       	mov	r14, r24
     7fa:	f1 2c       	mov	r15, r1
     7fc:	ec 0e       	add	r14, r28
     7fe:	fd 1e       	adc	r15, r29
     800:	ce 01       	movw	r24, r28
     802:	01 96       	adiw	r24, 0x01	; 1
     804:	b7 01       	movw	r22, r14
     806:	0e 94 76 05 	call	0xaec	; 0xaec <__unpack_f>
     80a:	8e 01       	movw	r16, r28
     80c:	0f 5e       	subi	r16, 0xEF	; 239
     80e:	1f 4f       	sbci	r17, 0xFF	; 255
     810:	ce 01       	movw	r24, r28
     812:	05 96       	adiw	r24, 0x05	; 5
     814:	b8 01       	movw	r22, r16
     816:	0e 94 76 05 	call	0xaec	; 0xaec <__unpack_f>
     81a:	89 85       	ldd	r24, Y+9	; 0x09
     81c:	82 30       	cpi	r24, 0x02	; 2
     81e:	40 f0       	brcs	.+16     	; 0x830 <__gesf2+0x56>
     820:	89 89       	ldd	r24, Y+17	; 0x11
     822:	82 30       	cpi	r24, 0x02	; 2
     824:	28 f0       	brcs	.+10     	; 0x830 <__gesf2+0x56>
     826:	c7 01       	movw	r24, r14
     828:	b8 01       	movw	r22, r16
     82a:	0e 94 ee 05 	call	0xbdc	; 0xbdc <__fpcmp_parts_f>
     82e:	01 c0       	rjmp	.+2      	; 0x832 <__gesf2+0x58>
     830:	8f ef       	ldi	r24, 0xFF	; 255
     832:	68 96       	adiw	r28, 0x18	; 24
     834:	e6 e0       	ldi	r30, 0x06	; 6
     836:	0c 94 34 13 	jmp	0x2668	; 0x2668 <__epilogue_restores__+0x18>

0000083a <__ltsf2>:
     83a:	a8 e1       	ldi	r26, 0x18	; 24
     83c:	b0 e0       	ldi	r27, 0x00	; 0
     83e:	e3 e2       	ldi	r30, 0x23	; 35
     840:	f4 e0       	ldi	r31, 0x04	; 4
     842:	0c 94 18 13 	jmp	0x2630	; 0x2630 <__prologue_saves__+0x18>
     846:	69 83       	std	Y+1, r22	; 0x01
     848:	7a 83       	std	Y+2, r23	; 0x02
     84a:	8b 83       	std	Y+3, r24	; 0x03
     84c:	9c 83       	std	Y+4, r25	; 0x04
     84e:	2d 83       	std	Y+5, r18	; 0x05
     850:	3e 83       	std	Y+6, r19	; 0x06
     852:	4f 83       	std	Y+7, r20	; 0x07
     854:	58 87       	std	Y+8, r21	; 0x08
     856:	89 e0       	ldi	r24, 0x09	; 9
     858:	e8 2e       	mov	r14, r24
     85a:	f1 2c       	mov	r15, r1
     85c:	ec 0e       	add	r14, r28
     85e:	fd 1e       	adc	r15, r29
     860:	ce 01       	movw	r24, r28
     862:	01 96       	adiw	r24, 0x01	; 1
     864:	b7 01       	movw	r22, r14
     866:	0e 94 76 05 	call	0xaec	; 0xaec <__unpack_f>
     86a:	8e 01       	movw	r16, r28
     86c:	0f 5e       	subi	r16, 0xEF	; 239
     86e:	1f 4f       	sbci	r17, 0xFF	; 255
     870:	ce 01       	movw	r24, r28
     872:	05 96       	adiw	r24, 0x05	; 5
     874:	b8 01       	movw	r22, r16
     876:	0e 94 76 05 	call	0xaec	; 0xaec <__unpack_f>
     87a:	89 85       	ldd	r24, Y+9	; 0x09
     87c:	82 30       	cpi	r24, 0x02	; 2
     87e:	40 f0       	brcs	.+16     	; 0x890 <__stack+0x31>
     880:	89 89       	ldd	r24, Y+17	; 0x11
     882:	82 30       	cpi	r24, 0x02	; 2
     884:	28 f0       	brcs	.+10     	; 0x890 <__stack+0x31>
     886:	c7 01       	movw	r24, r14
     888:	b8 01       	movw	r22, r16
     88a:	0e 94 ee 05 	call	0xbdc	; 0xbdc <__fpcmp_parts_f>
     88e:	01 c0       	rjmp	.+2      	; 0x892 <__stack+0x33>
     890:	81 e0       	ldi	r24, 0x01	; 1
     892:	68 96       	adiw	r28, 0x18	; 24
     894:	e6 e0       	ldi	r30, 0x06	; 6
     896:	0c 94 34 13 	jmp	0x2668	; 0x2668 <__epilogue_restores__+0x18>

0000089a <__fixsfsi>:
     89a:	ac e0       	ldi	r26, 0x0C	; 12
     89c:	b0 e0       	ldi	r27, 0x00	; 0
     89e:	e3 e5       	ldi	r30, 0x53	; 83
     8a0:	f4 e0       	ldi	r31, 0x04	; 4
     8a2:	0c 94 1c 13 	jmp	0x2638	; 0x2638 <__prologue_saves__+0x20>
     8a6:	69 83       	std	Y+1, r22	; 0x01
     8a8:	7a 83       	std	Y+2, r23	; 0x02
     8aa:	8b 83       	std	Y+3, r24	; 0x03
     8ac:	9c 83       	std	Y+4, r25	; 0x04
     8ae:	ce 01       	movw	r24, r28
     8b0:	01 96       	adiw	r24, 0x01	; 1
     8b2:	be 01       	movw	r22, r28
     8b4:	6b 5f       	subi	r22, 0xFB	; 251
     8b6:	7f 4f       	sbci	r23, 0xFF	; 255
     8b8:	0e 94 76 05 	call	0xaec	; 0xaec <__unpack_f>
     8bc:	8d 81       	ldd	r24, Y+5	; 0x05
     8be:	82 30       	cpi	r24, 0x02	; 2
     8c0:	61 f1       	breq	.+88     	; 0x91a <__fixsfsi+0x80>
     8c2:	82 30       	cpi	r24, 0x02	; 2
     8c4:	50 f1       	brcs	.+84     	; 0x91a <__fixsfsi+0x80>
     8c6:	84 30       	cpi	r24, 0x04	; 4
     8c8:	21 f4       	brne	.+8      	; 0x8d2 <__fixsfsi+0x38>
     8ca:	8e 81       	ldd	r24, Y+6	; 0x06
     8cc:	88 23       	and	r24, r24
     8ce:	51 f1       	breq	.+84     	; 0x924 <__fixsfsi+0x8a>
     8d0:	2e c0       	rjmp	.+92     	; 0x92e <__fixsfsi+0x94>
     8d2:	2f 81       	ldd	r18, Y+7	; 0x07
     8d4:	38 85       	ldd	r19, Y+8	; 0x08
     8d6:	37 fd       	sbrc	r19, 7
     8d8:	20 c0       	rjmp	.+64     	; 0x91a <__fixsfsi+0x80>
     8da:	6e 81       	ldd	r22, Y+6	; 0x06
     8dc:	2f 31       	cpi	r18, 0x1F	; 31
     8de:	31 05       	cpc	r19, r1
     8e0:	1c f0       	brlt	.+6      	; 0x8e8 <__fixsfsi+0x4e>
     8e2:	66 23       	and	r22, r22
     8e4:	f9 f0       	breq	.+62     	; 0x924 <__fixsfsi+0x8a>
     8e6:	23 c0       	rjmp	.+70     	; 0x92e <__fixsfsi+0x94>
     8e8:	8e e1       	ldi	r24, 0x1E	; 30
     8ea:	90 e0       	ldi	r25, 0x00	; 0
     8ec:	82 1b       	sub	r24, r18
     8ee:	93 0b       	sbc	r25, r19
     8f0:	29 85       	ldd	r18, Y+9	; 0x09
     8f2:	3a 85       	ldd	r19, Y+10	; 0x0a
     8f4:	4b 85       	ldd	r20, Y+11	; 0x0b
     8f6:	5c 85       	ldd	r21, Y+12	; 0x0c
     8f8:	04 c0       	rjmp	.+8      	; 0x902 <__fixsfsi+0x68>
     8fa:	56 95       	lsr	r21
     8fc:	47 95       	ror	r20
     8fe:	37 95       	ror	r19
     900:	27 95       	ror	r18
     902:	8a 95       	dec	r24
     904:	d2 f7       	brpl	.-12     	; 0x8fa <__fixsfsi+0x60>
     906:	66 23       	and	r22, r22
     908:	b1 f0       	breq	.+44     	; 0x936 <__fixsfsi+0x9c>
     90a:	50 95       	com	r21
     90c:	40 95       	com	r20
     90e:	30 95       	com	r19
     910:	21 95       	neg	r18
     912:	3f 4f       	sbci	r19, 0xFF	; 255
     914:	4f 4f       	sbci	r20, 0xFF	; 255
     916:	5f 4f       	sbci	r21, 0xFF	; 255
     918:	0e c0       	rjmp	.+28     	; 0x936 <__fixsfsi+0x9c>
     91a:	20 e0       	ldi	r18, 0x00	; 0
     91c:	30 e0       	ldi	r19, 0x00	; 0
     91e:	40 e0       	ldi	r20, 0x00	; 0
     920:	50 e0       	ldi	r21, 0x00	; 0
     922:	09 c0       	rjmp	.+18     	; 0x936 <__fixsfsi+0x9c>
     924:	2f ef       	ldi	r18, 0xFF	; 255
     926:	3f ef       	ldi	r19, 0xFF	; 255
     928:	4f ef       	ldi	r20, 0xFF	; 255
     92a:	5f e7       	ldi	r21, 0x7F	; 127
     92c:	04 c0       	rjmp	.+8      	; 0x936 <__fixsfsi+0x9c>
     92e:	20 e0       	ldi	r18, 0x00	; 0
     930:	30 e0       	ldi	r19, 0x00	; 0
     932:	40 e0       	ldi	r20, 0x00	; 0
     934:	50 e8       	ldi	r21, 0x80	; 128
     936:	b9 01       	movw	r22, r18
     938:	ca 01       	movw	r24, r20
     93a:	2c 96       	adiw	r28, 0x0c	; 12
     93c:	e2 e0       	ldi	r30, 0x02	; 2
     93e:	0c 94 38 13 	jmp	0x2670	; 0x2670 <__epilogue_restores__+0x20>

00000942 <__pack_f>:
     942:	df 92       	push	r13
     944:	ef 92       	push	r14
     946:	ff 92       	push	r15
     948:	0f 93       	push	r16
     94a:	1f 93       	push	r17
     94c:	fc 01       	movw	r30, r24
     94e:	e4 80       	ldd	r14, Z+4	; 0x04
     950:	f5 80       	ldd	r15, Z+5	; 0x05
     952:	06 81       	ldd	r16, Z+6	; 0x06
     954:	17 81       	ldd	r17, Z+7	; 0x07
     956:	d1 80       	ldd	r13, Z+1	; 0x01
     958:	80 81       	ld	r24, Z
     95a:	82 30       	cpi	r24, 0x02	; 2
     95c:	48 f4       	brcc	.+18     	; 0x970 <__pack_f+0x2e>
     95e:	80 e0       	ldi	r24, 0x00	; 0
     960:	90 e0       	ldi	r25, 0x00	; 0
     962:	a0 e1       	ldi	r26, 0x10	; 16
     964:	b0 e0       	ldi	r27, 0x00	; 0
     966:	e8 2a       	or	r14, r24
     968:	f9 2a       	or	r15, r25
     96a:	0a 2b       	or	r16, r26
     96c:	1b 2b       	or	r17, r27
     96e:	a5 c0       	rjmp	.+330    	; 0xaba <__pack_f+0x178>
     970:	84 30       	cpi	r24, 0x04	; 4
     972:	09 f4       	brne	.+2      	; 0x976 <__pack_f+0x34>
     974:	9f c0       	rjmp	.+318    	; 0xab4 <__pack_f+0x172>
     976:	82 30       	cpi	r24, 0x02	; 2
     978:	21 f4       	brne	.+8      	; 0x982 <__pack_f+0x40>
     97a:	ee 24       	eor	r14, r14
     97c:	ff 24       	eor	r15, r15
     97e:	87 01       	movw	r16, r14
     980:	05 c0       	rjmp	.+10     	; 0x98c <__pack_f+0x4a>
     982:	e1 14       	cp	r14, r1
     984:	f1 04       	cpc	r15, r1
     986:	01 05       	cpc	r16, r1
     988:	11 05       	cpc	r17, r1
     98a:	19 f4       	brne	.+6      	; 0x992 <__pack_f+0x50>
     98c:	e0 e0       	ldi	r30, 0x00	; 0
     98e:	f0 e0       	ldi	r31, 0x00	; 0
     990:	96 c0       	rjmp	.+300    	; 0xabe <__pack_f+0x17c>
     992:	62 81       	ldd	r22, Z+2	; 0x02
     994:	73 81       	ldd	r23, Z+3	; 0x03
     996:	9f ef       	ldi	r25, 0xFF	; 255
     998:	62 38       	cpi	r22, 0x82	; 130
     99a:	79 07       	cpc	r23, r25
     99c:	0c f0       	brlt	.+2      	; 0x9a0 <__pack_f+0x5e>
     99e:	5b c0       	rjmp	.+182    	; 0xa56 <__pack_f+0x114>
     9a0:	22 e8       	ldi	r18, 0x82	; 130
     9a2:	3f ef       	ldi	r19, 0xFF	; 255
     9a4:	26 1b       	sub	r18, r22
     9a6:	37 0b       	sbc	r19, r23
     9a8:	2a 31       	cpi	r18, 0x1A	; 26
     9aa:	31 05       	cpc	r19, r1
     9ac:	2c f0       	brlt	.+10     	; 0x9b8 <__pack_f+0x76>
     9ae:	20 e0       	ldi	r18, 0x00	; 0
     9b0:	30 e0       	ldi	r19, 0x00	; 0
     9b2:	40 e0       	ldi	r20, 0x00	; 0
     9b4:	50 e0       	ldi	r21, 0x00	; 0
     9b6:	2a c0       	rjmp	.+84     	; 0xa0c <__pack_f+0xca>
     9b8:	b8 01       	movw	r22, r16
     9ba:	a7 01       	movw	r20, r14
     9bc:	02 2e       	mov	r0, r18
     9be:	04 c0       	rjmp	.+8      	; 0x9c8 <__pack_f+0x86>
     9c0:	76 95       	lsr	r23
     9c2:	67 95       	ror	r22
     9c4:	57 95       	ror	r21
     9c6:	47 95       	ror	r20
     9c8:	0a 94       	dec	r0
     9ca:	d2 f7       	brpl	.-12     	; 0x9c0 <__pack_f+0x7e>
     9cc:	81 e0       	ldi	r24, 0x01	; 1
     9ce:	90 e0       	ldi	r25, 0x00	; 0
     9d0:	a0 e0       	ldi	r26, 0x00	; 0
     9d2:	b0 e0       	ldi	r27, 0x00	; 0
     9d4:	04 c0       	rjmp	.+8      	; 0x9de <__pack_f+0x9c>
     9d6:	88 0f       	add	r24, r24
     9d8:	99 1f       	adc	r25, r25
     9da:	aa 1f       	adc	r26, r26
     9dc:	bb 1f       	adc	r27, r27
     9de:	2a 95       	dec	r18
     9e0:	d2 f7       	brpl	.-12     	; 0x9d6 <__pack_f+0x94>
     9e2:	01 97       	sbiw	r24, 0x01	; 1
     9e4:	a1 09       	sbc	r26, r1
     9e6:	b1 09       	sbc	r27, r1
     9e8:	8e 21       	and	r24, r14
     9ea:	9f 21       	and	r25, r15
     9ec:	a0 23       	and	r26, r16
     9ee:	b1 23       	and	r27, r17
     9f0:	00 97       	sbiw	r24, 0x00	; 0
     9f2:	a1 05       	cpc	r26, r1
     9f4:	b1 05       	cpc	r27, r1
     9f6:	21 f0       	breq	.+8      	; 0xa00 <__pack_f+0xbe>
     9f8:	81 e0       	ldi	r24, 0x01	; 1
     9fa:	90 e0       	ldi	r25, 0x00	; 0
     9fc:	a0 e0       	ldi	r26, 0x00	; 0
     9fe:	b0 e0       	ldi	r27, 0x00	; 0
     a00:	9a 01       	movw	r18, r20
     a02:	ab 01       	movw	r20, r22
     a04:	28 2b       	or	r18, r24
     a06:	39 2b       	or	r19, r25
     a08:	4a 2b       	or	r20, r26
     a0a:	5b 2b       	or	r21, r27
     a0c:	da 01       	movw	r26, r20
     a0e:	c9 01       	movw	r24, r18
     a10:	8f 77       	andi	r24, 0x7F	; 127
     a12:	90 70       	andi	r25, 0x00	; 0
     a14:	a0 70       	andi	r26, 0x00	; 0
     a16:	b0 70       	andi	r27, 0x00	; 0
     a18:	80 34       	cpi	r24, 0x40	; 64
     a1a:	91 05       	cpc	r25, r1
     a1c:	a1 05       	cpc	r26, r1
     a1e:	b1 05       	cpc	r27, r1
     a20:	39 f4       	brne	.+14     	; 0xa30 <__pack_f+0xee>
     a22:	27 ff       	sbrs	r18, 7
     a24:	09 c0       	rjmp	.+18     	; 0xa38 <__pack_f+0xf6>
     a26:	20 5c       	subi	r18, 0xC0	; 192
     a28:	3f 4f       	sbci	r19, 0xFF	; 255
     a2a:	4f 4f       	sbci	r20, 0xFF	; 255
     a2c:	5f 4f       	sbci	r21, 0xFF	; 255
     a2e:	04 c0       	rjmp	.+8      	; 0xa38 <__pack_f+0xf6>
     a30:	21 5c       	subi	r18, 0xC1	; 193
     a32:	3f 4f       	sbci	r19, 0xFF	; 255
     a34:	4f 4f       	sbci	r20, 0xFF	; 255
     a36:	5f 4f       	sbci	r21, 0xFF	; 255
     a38:	e0 e0       	ldi	r30, 0x00	; 0
     a3a:	f0 e0       	ldi	r31, 0x00	; 0
     a3c:	20 30       	cpi	r18, 0x00	; 0
     a3e:	a0 e0       	ldi	r26, 0x00	; 0
     a40:	3a 07       	cpc	r19, r26
     a42:	a0 e0       	ldi	r26, 0x00	; 0
     a44:	4a 07       	cpc	r20, r26
     a46:	a0 e4       	ldi	r26, 0x40	; 64
     a48:	5a 07       	cpc	r21, r26
     a4a:	10 f0       	brcs	.+4      	; 0xa50 <__pack_f+0x10e>
     a4c:	e1 e0       	ldi	r30, 0x01	; 1
     a4e:	f0 e0       	ldi	r31, 0x00	; 0
     a50:	79 01       	movw	r14, r18
     a52:	8a 01       	movw	r16, r20
     a54:	27 c0       	rjmp	.+78     	; 0xaa4 <__pack_f+0x162>
     a56:	60 38       	cpi	r22, 0x80	; 128
     a58:	71 05       	cpc	r23, r1
     a5a:	64 f5       	brge	.+88     	; 0xab4 <__pack_f+0x172>
     a5c:	fb 01       	movw	r30, r22
     a5e:	e1 58       	subi	r30, 0x81	; 129
     a60:	ff 4f       	sbci	r31, 0xFF	; 255
     a62:	d8 01       	movw	r26, r16
     a64:	c7 01       	movw	r24, r14
     a66:	8f 77       	andi	r24, 0x7F	; 127
     a68:	90 70       	andi	r25, 0x00	; 0
     a6a:	a0 70       	andi	r26, 0x00	; 0
     a6c:	b0 70       	andi	r27, 0x00	; 0
     a6e:	80 34       	cpi	r24, 0x40	; 64
     a70:	91 05       	cpc	r25, r1
     a72:	a1 05       	cpc	r26, r1
     a74:	b1 05       	cpc	r27, r1
     a76:	39 f4       	brne	.+14     	; 0xa86 <__pack_f+0x144>
     a78:	e7 fe       	sbrs	r14, 7
     a7a:	0d c0       	rjmp	.+26     	; 0xa96 <__pack_f+0x154>
     a7c:	80 e4       	ldi	r24, 0x40	; 64
     a7e:	90 e0       	ldi	r25, 0x00	; 0
     a80:	a0 e0       	ldi	r26, 0x00	; 0
     a82:	b0 e0       	ldi	r27, 0x00	; 0
     a84:	04 c0       	rjmp	.+8      	; 0xa8e <__pack_f+0x14c>
     a86:	8f e3       	ldi	r24, 0x3F	; 63
     a88:	90 e0       	ldi	r25, 0x00	; 0
     a8a:	a0 e0       	ldi	r26, 0x00	; 0
     a8c:	b0 e0       	ldi	r27, 0x00	; 0
     a8e:	e8 0e       	add	r14, r24
     a90:	f9 1e       	adc	r15, r25
     a92:	0a 1f       	adc	r16, r26
     a94:	1b 1f       	adc	r17, r27
     a96:	17 ff       	sbrs	r17, 7
     a98:	05 c0       	rjmp	.+10     	; 0xaa4 <__pack_f+0x162>
     a9a:	16 95       	lsr	r17
     a9c:	07 95       	ror	r16
     a9e:	f7 94       	ror	r15
     aa0:	e7 94       	ror	r14
     aa2:	31 96       	adiw	r30, 0x01	; 1
     aa4:	87 e0       	ldi	r24, 0x07	; 7
     aa6:	16 95       	lsr	r17
     aa8:	07 95       	ror	r16
     aaa:	f7 94       	ror	r15
     aac:	e7 94       	ror	r14
     aae:	8a 95       	dec	r24
     ab0:	d1 f7       	brne	.-12     	; 0xaa6 <__pack_f+0x164>
     ab2:	05 c0       	rjmp	.+10     	; 0xabe <__pack_f+0x17c>
     ab4:	ee 24       	eor	r14, r14
     ab6:	ff 24       	eor	r15, r15
     ab8:	87 01       	movw	r16, r14
     aba:	ef ef       	ldi	r30, 0xFF	; 255
     abc:	f0 e0       	ldi	r31, 0x00	; 0
     abe:	6e 2f       	mov	r22, r30
     ac0:	67 95       	ror	r22
     ac2:	66 27       	eor	r22, r22
     ac4:	67 95       	ror	r22
     ac6:	90 2f       	mov	r25, r16
     ac8:	9f 77       	andi	r25, 0x7F	; 127
     aca:	d7 94       	ror	r13
     acc:	dd 24       	eor	r13, r13
     ace:	d7 94       	ror	r13
     ad0:	8e 2f       	mov	r24, r30
     ad2:	86 95       	lsr	r24
     ad4:	49 2f       	mov	r20, r25
     ad6:	46 2b       	or	r20, r22
     ad8:	58 2f       	mov	r21, r24
     ada:	5d 29       	or	r21, r13
     adc:	b7 01       	movw	r22, r14
     ade:	ca 01       	movw	r24, r20
     ae0:	1f 91       	pop	r17
     ae2:	0f 91       	pop	r16
     ae4:	ff 90       	pop	r15
     ae6:	ef 90       	pop	r14
     ae8:	df 90       	pop	r13
     aea:	08 95       	ret

00000aec <__unpack_f>:
     aec:	fc 01       	movw	r30, r24
     aee:	db 01       	movw	r26, r22
     af0:	40 81       	ld	r20, Z
     af2:	51 81       	ldd	r21, Z+1	; 0x01
     af4:	22 81       	ldd	r18, Z+2	; 0x02
     af6:	62 2f       	mov	r22, r18
     af8:	6f 77       	andi	r22, 0x7F	; 127
     afa:	70 e0       	ldi	r23, 0x00	; 0
     afc:	22 1f       	adc	r18, r18
     afe:	22 27       	eor	r18, r18
     b00:	22 1f       	adc	r18, r18
     b02:	93 81       	ldd	r25, Z+3	; 0x03
     b04:	89 2f       	mov	r24, r25
     b06:	88 0f       	add	r24, r24
     b08:	82 2b       	or	r24, r18
     b0a:	28 2f       	mov	r18, r24
     b0c:	30 e0       	ldi	r19, 0x00	; 0
     b0e:	99 1f       	adc	r25, r25
     b10:	99 27       	eor	r25, r25
     b12:	99 1f       	adc	r25, r25
     b14:	11 96       	adiw	r26, 0x01	; 1
     b16:	9c 93       	st	X, r25
     b18:	11 97       	sbiw	r26, 0x01	; 1
     b1a:	21 15       	cp	r18, r1
     b1c:	31 05       	cpc	r19, r1
     b1e:	a9 f5       	brne	.+106    	; 0xb8a <__unpack_f+0x9e>
     b20:	41 15       	cp	r20, r1
     b22:	51 05       	cpc	r21, r1
     b24:	61 05       	cpc	r22, r1
     b26:	71 05       	cpc	r23, r1
     b28:	11 f4       	brne	.+4      	; 0xb2e <__unpack_f+0x42>
     b2a:	82 e0       	ldi	r24, 0x02	; 2
     b2c:	37 c0       	rjmp	.+110    	; 0xb9c <__unpack_f+0xb0>
     b2e:	82 e8       	ldi	r24, 0x82	; 130
     b30:	9f ef       	ldi	r25, 0xFF	; 255
     b32:	13 96       	adiw	r26, 0x03	; 3
     b34:	9c 93       	st	X, r25
     b36:	8e 93       	st	-X, r24
     b38:	12 97       	sbiw	r26, 0x02	; 2
     b3a:	9a 01       	movw	r18, r20
     b3c:	ab 01       	movw	r20, r22
     b3e:	67 e0       	ldi	r22, 0x07	; 7
     b40:	22 0f       	add	r18, r18
     b42:	33 1f       	adc	r19, r19
     b44:	44 1f       	adc	r20, r20
     b46:	55 1f       	adc	r21, r21
     b48:	6a 95       	dec	r22
     b4a:	d1 f7       	brne	.-12     	; 0xb40 <__unpack_f+0x54>
     b4c:	83 e0       	ldi	r24, 0x03	; 3
     b4e:	8c 93       	st	X, r24
     b50:	0d c0       	rjmp	.+26     	; 0xb6c <__unpack_f+0x80>
     b52:	22 0f       	add	r18, r18
     b54:	33 1f       	adc	r19, r19
     b56:	44 1f       	adc	r20, r20
     b58:	55 1f       	adc	r21, r21
     b5a:	12 96       	adiw	r26, 0x02	; 2
     b5c:	8d 91       	ld	r24, X+
     b5e:	9c 91       	ld	r25, X
     b60:	13 97       	sbiw	r26, 0x03	; 3
     b62:	01 97       	sbiw	r24, 0x01	; 1
     b64:	13 96       	adiw	r26, 0x03	; 3
     b66:	9c 93       	st	X, r25
     b68:	8e 93       	st	-X, r24
     b6a:	12 97       	sbiw	r26, 0x02	; 2
     b6c:	20 30       	cpi	r18, 0x00	; 0
     b6e:	80 e0       	ldi	r24, 0x00	; 0
     b70:	38 07       	cpc	r19, r24
     b72:	80 e0       	ldi	r24, 0x00	; 0
     b74:	48 07       	cpc	r20, r24
     b76:	80 e4       	ldi	r24, 0x40	; 64
     b78:	58 07       	cpc	r21, r24
     b7a:	58 f3       	brcs	.-42     	; 0xb52 <__unpack_f+0x66>
     b7c:	14 96       	adiw	r26, 0x04	; 4
     b7e:	2d 93       	st	X+, r18
     b80:	3d 93       	st	X+, r19
     b82:	4d 93       	st	X+, r20
     b84:	5c 93       	st	X, r21
     b86:	17 97       	sbiw	r26, 0x07	; 7
     b88:	08 95       	ret
     b8a:	2f 3f       	cpi	r18, 0xFF	; 255
     b8c:	31 05       	cpc	r19, r1
     b8e:	79 f4       	brne	.+30     	; 0xbae <__unpack_f+0xc2>
     b90:	41 15       	cp	r20, r1
     b92:	51 05       	cpc	r21, r1
     b94:	61 05       	cpc	r22, r1
     b96:	71 05       	cpc	r23, r1
     b98:	19 f4       	brne	.+6      	; 0xba0 <__unpack_f+0xb4>
     b9a:	84 e0       	ldi	r24, 0x04	; 4
     b9c:	8c 93       	st	X, r24
     b9e:	08 95       	ret
     ba0:	64 ff       	sbrs	r22, 4
     ba2:	03 c0       	rjmp	.+6      	; 0xbaa <__unpack_f+0xbe>
     ba4:	81 e0       	ldi	r24, 0x01	; 1
     ba6:	8c 93       	st	X, r24
     ba8:	12 c0       	rjmp	.+36     	; 0xbce <__unpack_f+0xe2>
     baa:	1c 92       	st	X, r1
     bac:	10 c0       	rjmp	.+32     	; 0xbce <__unpack_f+0xe2>
     bae:	2f 57       	subi	r18, 0x7F	; 127
     bb0:	30 40       	sbci	r19, 0x00	; 0
     bb2:	13 96       	adiw	r26, 0x03	; 3
     bb4:	3c 93       	st	X, r19
     bb6:	2e 93       	st	-X, r18
     bb8:	12 97       	sbiw	r26, 0x02	; 2
     bba:	83 e0       	ldi	r24, 0x03	; 3
     bbc:	8c 93       	st	X, r24
     bbe:	87 e0       	ldi	r24, 0x07	; 7
     bc0:	44 0f       	add	r20, r20
     bc2:	55 1f       	adc	r21, r21
     bc4:	66 1f       	adc	r22, r22
     bc6:	77 1f       	adc	r23, r23
     bc8:	8a 95       	dec	r24
     bca:	d1 f7       	brne	.-12     	; 0xbc0 <__unpack_f+0xd4>
     bcc:	70 64       	ori	r23, 0x40	; 64
     bce:	14 96       	adiw	r26, 0x04	; 4
     bd0:	4d 93       	st	X+, r20
     bd2:	5d 93       	st	X+, r21
     bd4:	6d 93       	st	X+, r22
     bd6:	7c 93       	st	X, r23
     bd8:	17 97       	sbiw	r26, 0x07	; 7
     bda:	08 95       	ret

00000bdc <__fpcmp_parts_f>:
     bdc:	1f 93       	push	r17
     bde:	dc 01       	movw	r26, r24
     be0:	fb 01       	movw	r30, r22
     be2:	9c 91       	ld	r25, X
     be4:	92 30       	cpi	r25, 0x02	; 2
     be6:	08 f4       	brcc	.+2      	; 0xbea <__fpcmp_parts_f+0xe>
     be8:	47 c0       	rjmp	.+142    	; 0xc78 <__fpcmp_parts_f+0x9c>
     bea:	80 81       	ld	r24, Z
     bec:	82 30       	cpi	r24, 0x02	; 2
     bee:	08 f4       	brcc	.+2      	; 0xbf2 <__fpcmp_parts_f+0x16>
     bf0:	43 c0       	rjmp	.+134    	; 0xc78 <__fpcmp_parts_f+0x9c>
     bf2:	94 30       	cpi	r25, 0x04	; 4
     bf4:	51 f4       	brne	.+20     	; 0xc0a <__fpcmp_parts_f+0x2e>
     bf6:	11 96       	adiw	r26, 0x01	; 1
     bf8:	1c 91       	ld	r17, X
     bfa:	84 30       	cpi	r24, 0x04	; 4
     bfc:	99 f5       	brne	.+102    	; 0xc64 <__fpcmp_parts_f+0x88>
     bfe:	81 81       	ldd	r24, Z+1	; 0x01
     c00:	68 2f       	mov	r22, r24
     c02:	70 e0       	ldi	r23, 0x00	; 0
     c04:	61 1b       	sub	r22, r17
     c06:	71 09       	sbc	r23, r1
     c08:	3f c0       	rjmp	.+126    	; 0xc88 <__fpcmp_parts_f+0xac>
     c0a:	84 30       	cpi	r24, 0x04	; 4
     c0c:	21 f0       	breq	.+8      	; 0xc16 <__fpcmp_parts_f+0x3a>
     c0e:	92 30       	cpi	r25, 0x02	; 2
     c10:	31 f4       	brne	.+12     	; 0xc1e <__fpcmp_parts_f+0x42>
     c12:	82 30       	cpi	r24, 0x02	; 2
     c14:	b9 f1       	breq	.+110    	; 0xc84 <__fpcmp_parts_f+0xa8>
     c16:	81 81       	ldd	r24, Z+1	; 0x01
     c18:	88 23       	and	r24, r24
     c1a:	89 f1       	breq	.+98     	; 0xc7e <__fpcmp_parts_f+0xa2>
     c1c:	2d c0       	rjmp	.+90     	; 0xc78 <__fpcmp_parts_f+0x9c>
     c1e:	11 96       	adiw	r26, 0x01	; 1
     c20:	1c 91       	ld	r17, X
     c22:	11 97       	sbiw	r26, 0x01	; 1
     c24:	82 30       	cpi	r24, 0x02	; 2
     c26:	f1 f0       	breq	.+60     	; 0xc64 <__fpcmp_parts_f+0x88>
     c28:	81 81       	ldd	r24, Z+1	; 0x01
     c2a:	18 17       	cp	r17, r24
     c2c:	d9 f4       	brne	.+54     	; 0xc64 <__fpcmp_parts_f+0x88>
     c2e:	12 96       	adiw	r26, 0x02	; 2
     c30:	2d 91       	ld	r18, X+
     c32:	3c 91       	ld	r19, X
     c34:	13 97       	sbiw	r26, 0x03	; 3
     c36:	82 81       	ldd	r24, Z+2	; 0x02
     c38:	93 81       	ldd	r25, Z+3	; 0x03
     c3a:	82 17       	cp	r24, r18
     c3c:	93 07       	cpc	r25, r19
     c3e:	94 f0       	brlt	.+36     	; 0xc64 <__fpcmp_parts_f+0x88>
     c40:	28 17       	cp	r18, r24
     c42:	39 07       	cpc	r19, r25
     c44:	bc f0       	brlt	.+46     	; 0xc74 <__fpcmp_parts_f+0x98>
     c46:	14 96       	adiw	r26, 0x04	; 4
     c48:	8d 91       	ld	r24, X+
     c4a:	9d 91       	ld	r25, X+
     c4c:	0d 90       	ld	r0, X+
     c4e:	bc 91       	ld	r27, X
     c50:	a0 2d       	mov	r26, r0
     c52:	24 81       	ldd	r18, Z+4	; 0x04
     c54:	35 81       	ldd	r19, Z+5	; 0x05
     c56:	46 81       	ldd	r20, Z+6	; 0x06
     c58:	57 81       	ldd	r21, Z+7	; 0x07
     c5a:	28 17       	cp	r18, r24
     c5c:	39 07       	cpc	r19, r25
     c5e:	4a 07       	cpc	r20, r26
     c60:	5b 07       	cpc	r21, r27
     c62:	18 f4       	brcc	.+6      	; 0xc6a <__fpcmp_parts_f+0x8e>
     c64:	11 23       	and	r17, r17
     c66:	41 f0       	breq	.+16     	; 0xc78 <__fpcmp_parts_f+0x9c>
     c68:	0a c0       	rjmp	.+20     	; 0xc7e <__fpcmp_parts_f+0xa2>
     c6a:	82 17       	cp	r24, r18
     c6c:	93 07       	cpc	r25, r19
     c6e:	a4 07       	cpc	r26, r20
     c70:	b5 07       	cpc	r27, r21
     c72:	40 f4       	brcc	.+16     	; 0xc84 <__fpcmp_parts_f+0xa8>
     c74:	11 23       	and	r17, r17
     c76:	19 f0       	breq	.+6      	; 0xc7e <__fpcmp_parts_f+0xa2>
     c78:	61 e0       	ldi	r22, 0x01	; 1
     c7a:	70 e0       	ldi	r23, 0x00	; 0
     c7c:	05 c0       	rjmp	.+10     	; 0xc88 <__fpcmp_parts_f+0xac>
     c7e:	6f ef       	ldi	r22, 0xFF	; 255
     c80:	7f ef       	ldi	r23, 0xFF	; 255
     c82:	02 c0       	rjmp	.+4      	; 0xc88 <__fpcmp_parts_f+0xac>
     c84:	60 e0       	ldi	r22, 0x00	; 0
     c86:	70 e0       	ldi	r23, 0x00	; 0
     c88:	cb 01       	movw	r24, r22
     c8a:	1f 91       	pop	r17
     c8c:	08 95       	ret

00000c8e <HLCD_voidInit>:
#include "HLCD_private.h"
#include "HLCD_interface.h"



void HLCD_voidInit(void){
     c8e:	0f 93       	push	r16
     c90:	1f 93       	push	r17
     c92:	df 93       	push	r29
     c94:	cf 93       	push	r28
     c96:	cd b7       	in	r28, 0x3d	; 61
     c98:	de b7       	in	r29, 0x3e	; 62
     c9a:	c6 55       	subi	r28, 0x56	; 86
     c9c:	d0 40       	sbci	r29, 0x00	; 0
     c9e:	0f b6       	in	r0, 0x3f	; 63
     ca0:	f8 94       	cli
     ca2:	de bf       	out	0x3e, r29	; 62
     ca4:	0f be       	out	0x3f, r0	; 63
     ca6:	cd bf       	out	0x3d, r28	; 61
	
	/* init direction */
	HLCD_DATA_PORT_INIT();
     ca8:	81 e0       	ldi	r24, 0x01	; 1
     caa:	6f ef       	ldi	r22, 0xFF	; 255
     cac:	0e 94 16 0d 	call	0x1a2c	; 0x1a2c <MDIO_stderrSetPortDirection>
	HLCD_CTRL_INIT(HLCD_RS_PIN);
     cb0:	82 e0       	ldi	r24, 0x02	; 2
     cb2:	60 e0       	ldi	r22, 0x00	; 0
     cb4:	41 e0       	ldi	r20, 0x01	; 1
     cb6:	0e 94 fb 0d 	call	0x1bf6	; 0x1bf6 <MDIO_stderrSetPinDirection>
	HLCD_CTRL_INIT(HLCD_RW_PIN);
     cba:	82 e0       	ldi	r24, 0x02	; 2
     cbc:	61 e0       	ldi	r22, 0x01	; 1
     cbe:	41 e0       	ldi	r20, 0x01	; 1
     cc0:	0e 94 fb 0d 	call	0x1bf6	; 0x1bf6 <MDIO_stderrSetPinDirection>
	HLCD_CTRL_INIT(HLCD_EN_PIN);
     cc4:	82 e0       	ldi	r24, 0x02	; 2
     cc6:	62 e0       	ldi	r22, 0x02	; 2
     cc8:	41 e0       	ldi	r20, 0x01	; 1
     cca:	0e 94 fb 0d 	call	0x1bf6	; 0x1bf6 <MDIO_stderrSetPinDirection>
	
	HLCD_voidSendCmd(HLCD_FUNCTION_SET);
     cce:	8c e3       	ldi	r24, 0x3C	; 60
     cd0:	0e 94 8d 09 	call	0x131a	; 0x131a <HLCD_voidSendCmd>
     cd4:	fe 01       	movw	r30, r28
     cd6:	ed 5a       	subi	r30, 0xAD	; 173
     cd8:	ff 4f       	sbci	r31, 0xFF	; 255
     cda:	80 e0       	ldi	r24, 0x00	; 0
     cdc:	90 e0       	ldi	r25, 0x00	; 0
     cde:	a8 e4       	ldi	r26, 0x48	; 72
     ce0:	b2 e4       	ldi	r27, 0x42	; 66
     ce2:	80 83       	st	Z, r24
     ce4:	91 83       	std	Z+1, r25	; 0x01
     ce6:	a2 83       	std	Z+2, r26	; 0x02
     ce8:	b3 83       	std	Z+3, r27	; 0x03
 */
void
_delay_us(double __us)
{
	uint8_t __ticks;
	double __tmp = ((F_CPU) / 3e6) * __us;
     cea:	8e 01       	movw	r16, r28
     cec:	01 5b       	subi	r16, 0xB1	; 177
     cee:	1f 4f       	sbci	r17, 0xFF	; 255
     cf0:	fe 01       	movw	r30, r28
     cf2:	ed 5a       	subi	r30, 0xAD	; 173
     cf4:	ff 4f       	sbci	r31, 0xFF	; 255
     cf6:	60 81       	ld	r22, Z
     cf8:	71 81       	ldd	r23, Z+1	; 0x01
     cfa:	82 81       	ldd	r24, Z+2	; 0x02
     cfc:	93 81       	ldd	r25, Z+3	; 0x03
     cfe:	2b ea       	ldi	r18, 0xAB	; 171
     d00:	3a ea       	ldi	r19, 0xAA	; 170
     d02:	4a e2       	ldi	r20, 0x2A	; 42
     d04:	50 e4       	ldi	r21, 0x40	; 64
     d06:	0e 94 17 02 	call	0x42e	; 0x42e <__mulsf3>
     d0a:	dc 01       	movw	r26, r24
     d0c:	cb 01       	movw	r24, r22
     d0e:	f8 01       	movw	r30, r16
     d10:	80 83       	st	Z, r24
     d12:	91 83       	std	Z+1, r25	; 0x01
     d14:	a2 83       	std	Z+2, r26	; 0x02
     d16:	b3 83       	std	Z+3, r27	; 0x03
	if (__tmp < 1.0)
     d18:	fe 01       	movw	r30, r28
     d1a:	e1 5b       	subi	r30, 0xB1	; 177
     d1c:	ff 4f       	sbci	r31, 0xFF	; 255
     d1e:	60 81       	ld	r22, Z
     d20:	71 81       	ldd	r23, Z+1	; 0x01
     d22:	82 81       	ldd	r24, Z+2	; 0x02
     d24:	93 81       	ldd	r25, Z+3	; 0x03
     d26:	20 e0       	ldi	r18, 0x00	; 0
     d28:	30 e0       	ldi	r19, 0x00	; 0
     d2a:	40 e8       	ldi	r20, 0x80	; 128
     d2c:	5f e3       	ldi	r21, 0x3F	; 63
     d2e:	0e 94 1d 04 	call	0x83a	; 0x83a <__ltsf2>
     d32:	88 23       	and	r24, r24
     d34:	34 f4       	brge	.+12     	; 0xd42 <HLCD_voidInit+0xb4>
		__ticks = 1;
     d36:	fe 01       	movw	r30, r28
     d38:	e2 5b       	subi	r30, 0xB2	; 178
     d3a:	ff 4f       	sbci	r31, 0xFF	; 255
     d3c:	81 e0       	ldi	r24, 0x01	; 1
     d3e:	80 83       	st	Z, r24
     d40:	e0 c0       	rjmp	.+448    	; 0xf02 <HLCD_voidInit+0x274>
	else if (__tmp > 255)
     d42:	fe 01       	movw	r30, r28
     d44:	e1 5b       	subi	r30, 0xB1	; 177
     d46:	ff 4f       	sbci	r31, 0xFF	; 255
     d48:	60 81       	ld	r22, Z
     d4a:	71 81       	ldd	r23, Z+1	; 0x01
     d4c:	82 81       	ldd	r24, Z+2	; 0x02
     d4e:	93 81       	ldd	r25, Z+3	; 0x03
     d50:	20 e0       	ldi	r18, 0x00	; 0
     d52:	30 e0       	ldi	r19, 0x00	; 0
     d54:	4f e7       	ldi	r20, 0x7F	; 127
     d56:	53 e4       	ldi	r21, 0x43	; 67
     d58:	0e 94 bd 03 	call	0x77a	; 0x77a <__gtsf2>
     d5c:	18 16       	cp	r1, r24
     d5e:	0c f0       	brlt	.+2      	; 0xd62 <HLCD_voidInit+0xd4>
     d60:	c0 c0       	rjmp	.+384    	; 0xee2 <HLCD_voidInit+0x254>
	{
		_delay_ms(__us / 1000.0);
     d62:	fe 01       	movw	r30, r28
     d64:	ed 5a       	subi	r30, 0xAD	; 173
     d66:	ff 4f       	sbci	r31, 0xFF	; 255
     d68:	60 81       	ld	r22, Z
     d6a:	71 81       	ldd	r23, Z+1	; 0x01
     d6c:	82 81       	ldd	r24, Z+2	; 0x02
     d6e:	93 81       	ldd	r25, Z+3	; 0x03
     d70:	20 e0       	ldi	r18, 0x00	; 0
     d72:	30 e0       	ldi	r19, 0x00	; 0
     d74:	4a e7       	ldi	r20, 0x7A	; 122
     d76:	54 e4       	ldi	r21, 0x44	; 68
     d78:	0e 94 11 03 	call	0x622	; 0x622 <__divsf3>
     d7c:	dc 01       	movw	r26, r24
     d7e:	cb 01       	movw	r24, r22
     d80:	fe 01       	movw	r30, r28
     d82:	e6 5b       	subi	r30, 0xB6	; 182
     d84:	ff 4f       	sbci	r31, 0xFF	; 255
     d86:	80 83       	st	Z, r24
     d88:	91 83       	std	Z+1, r25	; 0x01
     d8a:	a2 83       	std	Z+2, r26	; 0x02
     d8c:	b3 83       	std	Z+3, r27	; 0x03
 */
void
_delay_ms(double __ms)
{
	uint16_t __ticks;
	double __tmp = ((F_CPU) / 4e3) * __ms;
     d8e:	8e 01       	movw	r16, r28
     d90:	0a 5b       	subi	r16, 0xBA	; 186
     d92:	1f 4f       	sbci	r17, 0xFF	; 255
     d94:	fe 01       	movw	r30, r28
     d96:	e6 5b       	subi	r30, 0xB6	; 182
     d98:	ff 4f       	sbci	r31, 0xFF	; 255
     d9a:	60 81       	ld	r22, Z
     d9c:	71 81       	ldd	r23, Z+1	; 0x01
     d9e:	82 81       	ldd	r24, Z+2	; 0x02
     da0:	93 81       	ldd	r25, Z+3	; 0x03
     da2:	20 e0       	ldi	r18, 0x00	; 0
     da4:	30 e0       	ldi	r19, 0x00	; 0
     da6:	4a ef       	ldi	r20, 0xFA	; 250
     da8:	54 e4       	ldi	r21, 0x44	; 68
     daa:	0e 94 17 02 	call	0x42e	; 0x42e <__mulsf3>
     dae:	dc 01       	movw	r26, r24
     db0:	cb 01       	movw	r24, r22
     db2:	f8 01       	movw	r30, r16
     db4:	80 83       	st	Z, r24
     db6:	91 83       	std	Z+1, r25	; 0x01
     db8:	a2 83       	std	Z+2, r26	; 0x02
     dba:	b3 83       	std	Z+3, r27	; 0x03
	if (__tmp < 1.0)
     dbc:	fe 01       	movw	r30, r28
     dbe:	ea 5b       	subi	r30, 0xBA	; 186
     dc0:	ff 4f       	sbci	r31, 0xFF	; 255
     dc2:	60 81       	ld	r22, Z
     dc4:	71 81       	ldd	r23, Z+1	; 0x01
     dc6:	82 81       	ldd	r24, Z+2	; 0x02
     dc8:	93 81       	ldd	r25, Z+3	; 0x03
     dca:	20 e0       	ldi	r18, 0x00	; 0
     dcc:	30 e0       	ldi	r19, 0x00	; 0
     dce:	40 e8       	ldi	r20, 0x80	; 128
     dd0:	5f e3       	ldi	r21, 0x3F	; 63
     dd2:	0e 94 1d 04 	call	0x83a	; 0x83a <__ltsf2>
     dd6:	88 23       	and	r24, r24
     dd8:	44 f4       	brge	.+16     	; 0xdea <HLCD_voidInit+0x15c>
		__ticks = 1;
     dda:	fe 01       	movw	r30, r28
     ddc:	ec 5b       	subi	r30, 0xBC	; 188
     dde:	ff 4f       	sbci	r31, 0xFF	; 255
     de0:	81 e0       	ldi	r24, 0x01	; 1
     de2:	90 e0       	ldi	r25, 0x00	; 0
     de4:	91 83       	std	Z+1, r25	; 0x01
     de6:	80 83       	st	Z, r24
     de8:	64 c0       	rjmp	.+200    	; 0xeb2 <HLCD_voidInit+0x224>
	else if (__tmp > 65535)
     dea:	fe 01       	movw	r30, r28
     dec:	ea 5b       	subi	r30, 0xBA	; 186
     dee:	ff 4f       	sbci	r31, 0xFF	; 255
     df0:	60 81       	ld	r22, Z
     df2:	71 81       	ldd	r23, Z+1	; 0x01
     df4:	82 81       	ldd	r24, Z+2	; 0x02
     df6:	93 81       	ldd	r25, Z+3	; 0x03
     df8:	20 e0       	ldi	r18, 0x00	; 0
     dfa:	3f ef       	ldi	r19, 0xFF	; 255
     dfc:	4f e7       	ldi	r20, 0x7F	; 127
     dfe:	57 e4       	ldi	r21, 0x47	; 71
     e00:	0e 94 bd 03 	call	0x77a	; 0x77a <__gtsf2>
     e04:	18 16       	cp	r1, r24
     e06:	0c f0       	brlt	.+2      	; 0xe0a <HLCD_voidInit+0x17c>
     e08:	43 c0       	rjmp	.+134    	; 0xe90 <HLCD_voidInit+0x202>
	{
		//	__ticks = requested delay in 1/10 ms
		__ticks = (uint16_t) (__ms * 10.0);
     e0a:	fe 01       	movw	r30, r28
     e0c:	e6 5b       	subi	r30, 0xB6	; 182
     e0e:	ff 4f       	sbci	r31, 0xFF	; 255
     e10:	60 81       	ld	r22, Z
     e12:	71 81       	ldd	r23, Z+1	; 0x01
     e14:	82 81       	ldd	r24, Z+2	; 0x02
     e16:	93 81       	ldd	r25, Z+3	; 0x03
     e18:	20 e0       	ldi	r18, 0x00	; 0
     e1a:	30 e0       	ldi	r19, 0x00	; 0
     e1c:	40 e2       	ldi	r20, 0x20	; 32
     e1e:	51 e4       	ldi	r21, 0x41	; 65
     e20:	0e 94 17 02 	call	0x42e	; 0x42e <__mulsf3>
     e24:	dc 01       	movw	r26, r24
     e26:	cb 01       	movw	r24, r22
     e28:	8e 01       	movw	r16, r28
     e2a:	0c 5b       	subi	r16, 0xBC	; 188
     e2c:	1f 4f       	sbci	r17, 0xFF	; 255
     e2e:	bc 01       	movw	r22, r24
     e30:	cd 01       	movw	r24, r26
     e32:	0e 94 41 00 	call	0x82	; 0x82 <__fixunssfsi>
     e36:	dc 01       	movw	r26, r24
     e38:	cb 01       	movw	r24, r22
     e3a:	f8 01       	movw	r30, r16
     e3c:	91 83       	std	Z+1, r25	; 0x01
     e3e:	80 83       	st	Z, r24
     e40:	1f c0       	rjmp	.+62     	; 0xe80 <HLCD_voidInit+0x1f2>
     e42:	fe 01       	movw	r30, r28
     e44:	ee 5b       	subi	r30, 0xBE	; 190
     e46:	ff 4f       	sbci	r31, 0xFF	; 255
     e48:	88 ec       	ldi	r24, 0xC8	; 200
     e4a:	90 e0       	ldi	r25, 0x00	; 0
     e4c:	91 83       	std	Z+1, r25	; 0x01
     e4e:	80 83       	st	Z, r24
    milliseconds can be achieved.
 */
void
_delay_loop_2(uint16_t __count)
{
	__asm__ volatile (
     e50:	fe 01       	movw	r30, r28
     e52:	ee 5b       	subi	r30, 0xBE	; 190
     e54:	ff 4f       	sbci	r31, 0xFF	; 255
     e56:	80 81       	ld	r24, Z
     e58:	91 81       	ldd	r25, Z+1	; 0x01
     e5a:	01 97       	sbiw	r24, 0x01	; 1
     e5c:	f1 f7       	brne	.-4      	; 0xe5a <HLCD_voidInit+0x1cc>
     e5e:	fe 01       	movw	r30, r28
     e60:	ee 5b       	subi	r30, 0xBE	; 190
     e62:	ff 4f       	sbci	r31, 0xFF	; 255
     e64:	91 83       	std	Z+1, r25	; 0x01
     e66:	80 83       	st	Z, r24
		while(__ticks)
		{
			// wait 1/10 ms
			_delay_loop_2(((F_CPU) / 4e3) / 10);
			__ticks --;
     e68:	de 01       	movw	r26, r28
     e6a:	ac 5b       	subi	r26, 0xBC	; 188
     e6c:	bf 4f       	sbci	r27, 0xFF	; 255
     e6e:	fe 01       	movw	r30, r28
     e70:	ec 5b       	subi	r30, 0xBC	; 188
     e72:	ff 4f       	sbci	r31, 0xFF	; 255
     e74:	80 81       	ld	r24, Z
     e76:	91 81       	ldd	r25, Z+1	; 0x01
     e78:	01 97       	sbiw	r24, 0x01	; 1
     e7a:	11 96       	adiw	r26, 0x01	; 1
     e7c:	9c 93       	st	X, r25
     e7e:	8e 93       	st	-X, r24
		__ticks = 1;
	else if (__tmp > 65535)
	{
		//	__ticks = requested delay in 1/10 ms
		__ticks = (uint16_t) (__ms * 10.0);
		while(__ticks)
     e80:	fe 01       	movw	r30, r28
     e82:	ec 5b       	subi	r30, 0xBC	; 188
     e84:	ff 4f       	sbci	r31, 0xFF	; 255
     e86:	80 81       	ld	r24, Z
     e88:	91 81       	ldd	r25, Z+1	; 0x01
     e8a:	00 97       	sbiw	r24, 0x00	; 0
     e8c:	d1 f6       	brne	.-76     	; 0xe42 <HLCD_voidInit+0x1b4>
     e8e:	42 c0       	rjmp	.+132    	; 0xf14 <HLCD_voidInit+0x286>
			__ticks --;
		}
		return;
	}
	else
		__ticks = (uint16_t)__tmp;
     e90:	8e 01       	movw	r16, r28
     e92:	0c 5b       	subi	r16, 0xBC	; 188
     e94:	1f 4f       	sbci	r17, 0xFF	; 255
     e96:	fe 01       	movw	r30, r28
     e98:	ea 5b       	subi	r30, 0xBA	; 186
     e9a:	ff 4f       	sbci	r31, 0xFF	; 255
     e9c:	60 81       	ld	r22, Z
     e9e:	71 81       	ldd	r23, Z+1	; 0x01
     ea0:	82 81       	ldd	r24, Z+2	; 0x02
     ea2:	93 81       	ldd	r25, Z+3	; 0x03
     ea4:	0e 94 41 00 	call	0x82	; 0x82 <__fixunssfsi>
     ea8:	dc 01       	movw	r26, r24
     eaa:	cb 01       	movw	r24, r22
     eac:	f8 01       	movw	r30, r16
     eae:	91 83       	std	Z+1, r25	; 0x01
     eb0:	80 83       	st	Z, r24
     eb2:	de 01       	movw	r26, r28
     eb4:	a0 5c       	subi	r26, 0xC0	; 192
     eb6:	bf 4f       	sbci	r27, 0xFF	; 255
     eb8:	fe 01       	movw	r30, r28
     eba:	ec 5b       	subi	r30, 0xBC	; 188
     ebc:	ff 4f       	sbci	r31, 0xFF	; 255
     ebe:	80 81       	ld	r24, Z
     ec0:	91 81       	ldd	r25, Z+1	; 0x01
     ec2:	11 96       	adiw	r26, 0x01	; 1
     ec4:	9c 93       	st	X, r25
     ec6:	8e 93       	st	-X, r24
     ec8:	fe 01       	movw	r30, r28
     eca:	e0 5c       	subi	r30, 0xC0	; 192
     ecc:	ff 4f       	sbci	r31, 0xFF	; 255
     ece:	80 81       	ld	r24, Z
     ed0:	91 81       	ldd	r25, Z+1	; 0x01
     ed2:	01 97       	sbiw	r24, 0x01	; 1
     ed4:	f1 f7       	brne	.-4      	; 0xed2 <HLCD_voidInit+0x244>
     ed6:	fe 01       	movw	r30, r28
     ed8:	e0 5c       	subi	r30, 0xC0	; 192
     eda:	ff 4f       	sbci	r31, 0xFF	; 255
     edc:	91 83       	std	Z+1, r25	; 0x01
     ede:	80 83       	st	Z, r24
     ee0:	19 c0       	rjmp	.+50     	; 0xf14 <HLCD_voidInit+0x286>
	{
		_delay_ms(__us / 1000.0);
		return;
	}
	else
		__ticks = (uint8_t)__tmp;
     ee2:	8e 01       	movw	r16, r28
     ee4:	02 5b       	subi	r16, 0xB2	; 178
     ee6:	1f 4f       	sbci	r17, 0xFF	; 255
     ee8:	fe 01       	movw	r30, r28
     eea:	e1 5b       	subi	r30, 0xB1	; 177
     eec:	ff 4f       	sbci	r31, 0xFF	; 255
     eee:	60 81       	ld	r22, Z
     ef0:	71 81       	ldd	r23, Z+1	; 0x01
     ef2:	82 81       	ldd	r24, Z+2	; 0x02
     ef4:	93 81       	ldd	r25, Z+3	; 0x03
     ef6:	0e 94 41 00 	call	0x82	; 0x82 <__fixunssfsi>
     efa:	dc 01       	movw	r26, r24
     efc:	cb 01       	movw	r24, r22
     efe:	f8 01       	movw	r30, r16
     f00:	80 83       	st	Z, r24
     f02:	fe 01       	movw	r30, r28
     f04:	e2 5b       	subi	r30, 0xB2	; 178
     f06:	ff 4f       	sbci	r31, 0xFF	; 255
     f08:	80 81       	ld	r24, Z
     f0a:	8f af       	std	Y+63, r24	; 0x3f
    can be achieved.
*/
void
_delay_loop_1(uint8_t __count)
{
	__asm__ volatile (
     f0c:	8f ad       	ldd	r24, Y+63	; 0x3f
     f0e:	8a 95       	dec	r24
     f10:	f1 f7       	brne	.-4      	; 0xf0e <HLCD_voidInit+0x280>
     f12:	8f af       	std	Y+63, r24	; 0x3f
	_delay_us(50);
	HLCD_voidSendCmd(HLCD_ENTRY_MODE_SET);
     f14:	86 e0       	ldi	r24, 0x06	; 6
     f16:	0e 94 8d 09 	call	0x131a	; 0x131a <HLCD_voidSendCmd>
     f1a:	80 e0       	ldi	r24, 0x00	; 0
     f1c:	90 e0       	ldi	r25, 0x00	; 0
     f1e:	a8 e4       	ldi	r26, 0x48	; 72
     f20:	b2 e4       	ldi	r27, 0x42	; 66
     f22:	8b af       	std	Y+59, r24	; 0x3b
     f24:	9c af       	std	Y+60, r25	; 0x3c
     f26:	ad af       	std	Y+61, r26	; 0x3d
     f28:	be af       	std	Y+62, r27	; 0x3e
 */
void
_delay_us(double __us)
{
	uint8_t __ticks;
	double __tmp = ((F_CPU) / 3e6) * __us;
     f2a:	6b ad       	ldd	r22, Y+59	; 0x3b
     f2c:	7c ad       	ldd	r23, Y+60	; 0x3c
     f2e:	8d ad       	ldd	r24, Y+61	; 0x3d
     f30:	9e ad       	ldd	r25, Y+62	; 0x3e
     f32:	2b ea       	ldi	r18, 0xAB	; 171
     f34:	3a ea       	ldi	r19, 0xAA	; 170
     f36:	4a e2       	ldi	r20, 0x2A	; 42
     f38:	50 e4       	ldi	r21, 0x40	; 64
     f3a:	0e 94 17 02 	call	0x42e	; 0x42e <__mulsf3>
     f3e:	dc 01       	movw	r26, r24
     f40:	cb 01       	movw	r24, r22
     f42:	8f ab       	std	Y+55, r24	; 0x37
     f44:	98 af       	std	Y+56, r25	; 0x38
     f46:	a9 af       	std	Y+57, r26	; 0x39
     f48:	ba af       	std	Y+58, r27	; 0x3a
	if (__tmp < 1.0)
     f4a:	6f a9       	ldd	r22, Y+55	; 0x37
     f4c:	78 ad       	ldd	r23, Y+56	; 0x38
     f4e:	89 ad       	ldd	r24, Y+57	; 0x39
     f50:	9a ad       	ldd	r25, Y+58	; 0x3a
     f52:	20 e0       	ldi	r18, 0x00	; 0
     f54:	30 e0       	ldi	r19, 0x00	; 0
     f56:	40 e8       	ldi	r20, 0x80	; 128
     f58:	5f e3       	ldi	r21, 0x3F	; 63
     f5a:	0e 94 1d 04 	call	0x83a	; 0x83a <__ltsf2>
     f5e:	88 23       	and	r24, r24
     f60:	1c f4       	brge	.+6      	; 0xf68 <HLCD_voidInit+0x2da>
		__ticks = 1;
     f62:	81 e0       	ldi	r24, 0x01	; 1
     f64:	8e ab       	std	Y+54, r24	; 0x36
     f66:	91 c0       	rjmp	.+290    	; 0x108a <HLCD_voidInit+0x3fc>
	else if (__tmp > 255)
     f68:	6f a9       	ldd	r22, Y+55	; 0x37
     f6a:	78 ad       	ldd	r23, Y+56	; 0x38
     f6c:	89 ad       	ldd	r24, Y+57	; 0x39
     f6e:	9a ad       	ldd	r25, Y+58	; 0x3a
     f70:	20 e0       	ldi	r18, 0x00	; 0
     f72:	30 e0       	ldi	r19, 0x00	; 0
     f74:	4f e7       	ldi	r20, 0x7F	; 127
     f76:	53 e4       	ldi	r21, 0x43	; 67
     f78:	0e 94 bd 03 	call	0x77a	; 0x77a <__gtsf2>
     f7c:	18 16       	cp	r1, r24
     f7e:	0c f0       	brlt	.+2      	; 0xf82 <HLCD_voidInit+0x2f4>
     f80:	7b c0       	rjmp	.+246    	; 0x1078 <HLCD_voidInit+0x3ea>
	{
		_delay_ms(__us / 1000.0);
     f82:	6b ad       	ldd	r22, Y+59	; 0x3b
     f84:	7c ad       	ldd	r23, Y+60	; 0x3c
     f86:	8d ad       	ldd	r24, Y+61	; 0x3d
     f88:	9e ad       	ldd	r25, Y+62	; 0x3e
     f8a:	20 e0       	ldi	r18, 0x00	; 0
     f8c:	30 e0       	ldi	r19, 0x00	; 0
     f8e:	4a e7       	ldi	r20, 0x7A	; 122
     f90:	54 e4       	ldi	r21, 0x44	; 68
     f92:	0e 94 11 03 	call	0x622	; 0x622 <__divsf3>
     f96:	dc 01       	movw	r26, r24
     f98:	cb 01       	movw	r24, r22
     f9a:	8a ab       	std	Y+50, r24	; 0x32
     f9c:	9b ab       	std	Y+51, r25	; 0x33
     f9e:	ac ab       	std	Y+52, r26	; 0x34
     fa0:	bd ab       	std	Y+53, r27	; 0x35
 */
void
_delay_ms(double __ms)
{
	uint16_t __ticks;
	double __tmp = ((F_CPU) / 4e3) * __ms;
     fa2:	6a a9       	ldd	r22, Y+50	; 0x32
     fa4:	7b a9       	ldd	r23, Y+51	; 0x33
     fa6:	8c a9       	ldd	r24, Y+52	; 0x34
     fa8:	9d a9       	ldd	r25, Y+53	; 0x35
     faa:	20 e0       	ldi	r18, 0x00	; 0
     fac:	30 e0       	ldi	r19, 0x00	; 0
     fae:	4a ef       	ldi	r20, 0xFA	; 250
     fb0:	54 e4       	ldi	r21, 0x44	; 68
     fb2:	0e 94 17 02 	call	0x42e	; 0x42e <__mulsf3>
     fb6:	dc 01       	movw	r26, r24
     fb8:	cb 01       	movw	r24, r22
     fba:	8e a7       	std	Y+46, r24	; 0x2e
     fbc:	9f a7       	std	Y+47, r25	; 0x2f
     fbe:	a8 ab       	std	Y+48, r26	; 0x30
     fc0:	b9 ab       	std	Y+49, r27	; 0x31
	if (__tmp < 1.0)
     fc2:	6e a5       	ldd	r22, Y+46	; 0x2e
     fc4:	7f a5       	ldd	r23, Y+47	; 0x2f
     fc6:	88 a9       	ldd	r24, Y+48	; 0x30
     fc8:	99 a9       	ldd	r25, Y+49	; 0x31
     fca:	20 e0       	ldi	r18, 0x00	; 0
     fcc:	30 e0       	ldi	r19, 0x00	; 0
     fce:	40 e8       	ldi	r20, 0x80	; 128
     fd0:	5f e3       	ldi	r21, 0x3F	; 63
     fd2:	0e 94 1d 04 	call	0x83a	; 0x83a <__ltsf2>
     fd6:	88 23       	and	r24, r24
     fd8:	2c f4       	brge	.+10     	; 0xfe4 <HLCD_voidInit+0x356>
		__ticks = 1;
     fda:	81 e0       	ldi	r24, 0x01	; 1
     fdc:	90 e0       	ldi	r25, 0x00	; 0
     fde:	9d a7       	std	Y+45, r25	; 0x2d
     fe0:	8c a7       	std	Y+44, r24	; 0x2c
     fe2:	3f c0       	rjmp	.+126    	; 0x1062 <HLCD_voidInit+0x3d4>
	else if (__tmp > 65535)
     fe4:	6e a5       	ldd	r22, Y+46	; 0x2e
     fe6:	7f a5       	ldd	r23, Y+47	; 0x2f
     fe8:	88 a9       	ldd	r24, Y+48	; 0x30
     fea:	99 a9       	ldd	r25, Y+49	; 0x31
     fec:	20 e0       	ldi	r18, 0x00	; 0
     fee:	3f ef       	ldi	r19, 0xFF	; 255
     ff0:	4f e7       	ldi	r20, 0x7F	; 127
     ff2:	57 e4       	ldi	r21, 0x47	; 71
     ff4:	0e 94 bd 03 	call	0x77a	; 0x77a <__gtsf2>
     ff8:	18 16       	cp	r1, r24
     ffa:	4c f5       	brge	.+82     	; 0x104e <HLCD_voidInit+0x3c0>
	{
		//	__ticks = requested delay in 1/10 ms
		__ticks = (uint16_t) (__ms * 10.0);
     ffc:	6a a9       	ldd	r22, Y+50	; 0x32
     ffe:	7b a9       	ldd	r23, Y+51	; 0x33
    1000:	8c a9       	ldd	r24, Y+52	; 0x34
    1002:	9d a9       	ldd	r25, Y+53	; 0x35
    1004:	20 e0       	ldi	r18, 0x00	; 0
    1006:	30 e0       	ldi	r19, 0x00	; 0
    1008:	40 e2       	ldi	r20, 0x20	; 32
    100a:	51 e4       	ldi	r21, 0x41	; 65
    100c:	0e 94 17 02 	call	0x42e	; 0x42e <__mulsf3>
    1010:	dc 01       	movw	r26, r24
    1012:	cb 01       	movw	r24, r22
    1014:	bc 01       	movw	r22, r24
    1016:	cd 01       	movw	r24, r26
    1018:	0e 94 41 00 	call	0x82	; 0x82 <__fixunssfsi>
    101c:	dc 01       	movw	r26, r24
    101e:	cb 01       	movw	r24, r22
    1020:	9d a7       	std	Y+45, r25	; 0x2d
    1022:	8c a7       	std	Y+44, r24	; 0x2c
    1024:	0f c0       	rjmp	.+30     	; 0x1044 <HLCD_voidInit+0x3b6>
    1026:	88 ec       	ldi	r24, 0xC8	; 200
    1028:	90 e0       	ldi	r25, 0x00	; 0
    102a:	9b a7       	std	Y+43, r25	; 0x2b
    102c:	8a a7       	std	Y+42, r24	; 0x2a
    milliseconds can be achieved.
 */
void
_delay_loop_2(uint16_t __count)
{
	__asm__ volatile (
    102e:	8a a5       	ldd	r24, Y+42	; 0x2a
    1030:	9b a5       	ldd	r25, Y+43	; 0x2b
    1032:	01 97       	sbiw	r24, 0x01	; 1
    1034:	f1 f7       	brne	.-4      	; 0x1032 <HLCD_voidInit+0x3a4>
    1036:	9b a7       	std	Y+43, r25	; 0x2b
    1038:	8a a7       	std	Y+42, r24	; 0x2a
		while(__ticks)
		{
			// wait 1/10 ms
			_delay_loop_2(((F_CPU) / 4e3) / 10);
			__ticks --;
    103a:	8c a5       	ldd	r24, Y+44	; 0x2c
    103c:	9d a5       	ldd	r25, Y+45	; 0x2d
    103e:	01 97       	sbiw	r24, 0x01	; 1
    1040:	9d a7       	std	Y+45, r25	; 0x2d
    1042:	8c a7       	std	Y+44, r24	; 0x2c
		__ticks = 1;
	else if (__tmp > 65535)
	{
		//	__ticks = requested delay in 1/10 ms
		__ticks = (uint16_t) (__ms * 10.0);
		while(__ticks)
    1044:	8c a5       	ldd	r24, Y+44	; 0x2c
    1046:	9d a5       	ldd	r25, Y+45	; 0x2d
    1048:	00 97       	sbiw	r24, 0x00	; 0
    104a:	69 f7       	brne	.-38     	; 0x1026 <HLCD_voidInit+0x398>
    104c:	24 c0       	rjmp	.+72     	; 0x1096 <HLCD_voidInit+0x408>
			__ticks --;
		}
		return;
	}
	else
		__ticks = (uint16_t)__tmp;
    104e:	6e a5       	ldd	r22, Y+46	; 0x2e
    1050:	7f a5       	ldd	r23, Y+47	; 0x2f
    1052:	88 a9       	ldd	r24, Y+48	; 0x30
    1054:	99 a9       	ldd	r25, Y+49	; 0x31
    1056:	0e 94 41 00 	call	0x82	; 0x82 <__fixunssfsi>
    105a:	dc 01       	movw	r26, r24
    105c:	cb 01       	movw	r24, r22
    105e:	9d a7       	std	Y+45, r25	; 0x2d
    1060:	8c a7       	std	Y+44, r24	; 0x2c
    1062:	8c a5       	ldd	r24, Y+44	; 0x2c
    1064:	9d a5       	ldd	r25, Y+45	; 0x2d
    1066:	99 a7       	std	Y+41, r25	; 0x29
    1068:	88 a7       	std	Y+40, r24	; 0x28
    106a:	88 a5       	ldd	r24, Y+40	; 0x28
    106c:	99 a5       	ldd	r25, Y+41	; 0x29
    106e:	01 97       	sbiw	r24, 0x01	; 1
    1070:	f1 f7       	brne	.-4      	; 0x106e <HLCD_voidInit+0x3e0>
    1072:	99 a7       	std	Y+41, r25	; 0x29
    1074:	88 a7       	std	Y+40, r24	; 0x28
    1076:	0f c0       	rjmp	.+30     	; 0x1096 <HLCD_voidInit+0x408>
	{
		_delay_ms(__us / 1000.0);
		return;
	}
	else
		__ticks = (uint8_t)__tmp;
    1078:	6f a9       	ldd	r22, Y+55	; 0x37
    107a:	78 ad       	ldd	r23, Y+56	; 0x38
    107c:	89 ad       	ldd	r24, Y+57	; 0x39
    107e:	9a ad       	ldd	r25, Y+58	; 0x3a
    1080:	0e 94 41 00 	call	0x82	; 0x82 <__fixunssfsi>
    1084:	dc 01       	movw	r26, r24
    1086:	cb 01       	movw	r24, r22
    1088:	8e ab       	std	Y+54, r24	; 0x36
    108a:	8e a9       	ldd	r24, Y+54	; 0x36
    108c:	8f a3       	std	Y+39, r24	; 0x27
    can be achieved.
*/
void
_delay_loop_1(uint8_t __count)
{
	__asm__ volatile (
    108e:	8f a1       	ldd	r24, Y+39	; 0x27
    1090:	8a 95       	dec	r24
    1092:	f1 f7       	brne	.-4      	; 0x1090 <HLCD_voidInit+0x402>
    1094:	8f a3       	std	Y+39, r24	; 0x27
	_delay_us(50);
	HLCD_voidSendCmd(HLCD_DISPLAY_ON);
    1096:	8f e0       	ldi	r24, 0x0F	; 15
    1098:	0e 94 8d 09 	call	0x131a	; 0x131a <HLCD_voidSendCmd>
    109c:	80 e0       	ldi	r24, 0x00	; 0
    109e:	90 e0       	ldi	r25, 0x00	; 0
    10a0:	a8 e4       	ldi	r26, 0x48	; 72
    10a2:	b2 e4       	ldi	r27, 0x42	; 66
    10a4:	8b a3       	std	Y+35, r24	; 0x23
    10a6:	9c a3       	std	Y+36, r25	; 0x24
    10a8:	ad a3       	std	Y+37, r26	; 0x25
    10aa:	be a3       	std	Y+38, r27	; 0x26
 */
void
_delay_us(double __us)
{
	uint8_t __ticks;
	double __tmp = ((F_CPU) / 3e6) * __us;
    10ac:	6b a1       	ldd	r22, Y+35	; 0x23
    10ae:	7c a1       	ldd	r23, Y+36	; 0x24
    10b0:	8d a1       	ldd	r24, Y+37	; 0x25
    10b2:	9e a1       	ldd	r25, Y+38	; 0x26
    10b4:	2b ea       	ldi	r18, 0xAB	; 171
    10b6:	3a ea       	ldi	r19, 0xAA	; 170
    10b8:	4a e2       	ldi	r20, 0x2A	; 42
    10ba:	50 e4       	ldi	r21, 0x40	; 64
    10bc:	0e 94 17 02 	call	0x42e	; 0x42e <__mulsf3>
    10c0:	dc 01       	movw	r26, r24
    10c2:	cb 01       	movw	r24, r22
    10c4:	8f 8f       	std	Y+31, r24	; 0x1f
    10c6:	98 a3       	std	Y+32, r25	; 0x20
    10c8:	a9 a3       	std	Y+33, r26	; 0x21
    10ca:	ba a3       	std	Y+34, r27	; 0x22
	if (__tmp < 1.0)
    10cc:	6f 8d       	ldd	r22, Y+31	; 0x1f
    10ce:	78 a1       	ldd	r23, Y+32	; 0x20
    10d0:	89 a1       	ldd	r24, Y+33	; 0x21
    10d2:	9a a1       	ldd	r25, Y+34	; 0x22
    10d4:	20 e0       	ldi	r18, 0x00	; 0
    10d6:	30 e0       	ldi	r19, 0x00	; 0
    10d8:	40 e8       	ldi	r20, 0x80	; 128
    10da:	5f e3       	ldi	r21, 0x3F	; 63
    10dc:	0e 94 1d 04 	call	0x83a	; 0x83a <__ltsf2>
    10e0:	88 23       	and	r24, r24
    10e2:	1c f4       	brge	.+6      	; 0x10ea <HLCD_voidInit+0x45c>
		__ticks = 1;
    10e4:	81 e0       	ldi	r24, 0x01	; 1
    10e6:	8e 8f       	std	Y+30, r24	; 0x1e
    10e8:	91 c0       	rjmp	.+290    	; 0x120c <HLCD_voidInit+0x57e>
	else if (__tmp > 255)
    10ea:	6f 8d       	ldd	r22, Y+31	; 0x1f
    10ec:	78 a1       	ldd	r23, Y+32	; 0x20
    10ee:	89 a1       	ldd	r24, Y+33	; 0x21
    10f0:	9a a1       	ldd	r25, Y+34	; 0x22
    10f2:	20 e0       	ldi	r18, 0x00	; 0
    10f4:	30 e0       	ldi	r19, 0x00	; 0
    10f6:	4f e7       	ldi	r20, 0x7F	; 127
    10f8:	53 e4       	ldi	r21, 0x43	; 67
    10fa:	0e 94 bd 03 	call	0x77a	; 0x77a <__gtsf2>
    10fe:	18 16       	cp	r1, r24
    1100:	0c f0       	brlt	.+2      	; 0x1104 <HLCD_voidInit+0x476>
    1102:	7b c0       	rjmp	.+246    	; 0x11fa <HLCD_voidInit+0x56c>
	{
		_delay_ms(__us / 1000.0);
    1104:	6b a1       	ldd	r22, Y+35	; 0x23
    1106:	7c a1       	ldd	r23, Y+36	; 0x24
    1108:	8d a1       	ldd	r24, Y+37	; 0x25
    110a:	9e a1       	ldd	r25, Y+38	; 0x26
    110c:	20 e0       	ldi	r18, 0x00	; 0
    110e:	30 e0       	ldi	r19, 0x00	; 0
    1110:	4a e7       	ldi	r20, 0x7A	; 122
    1112:	54 e4       	ldi	r21, 0x44	; 68
    1114:	0e 94 11 03 	call	0x622	; 0x622 <__divsf3>
    1118:	dc 01       	movw	r26, r24
    111a:	cb 01       	movw	r24, r22
    111c:	8a 8f       	std	Y+26, r24	; 0x1a
    111e:	9b 8f       	std	Y+27, r25	; 0x1b
    1120:	ac 8f       	std	Y+28, r26	; 0x1c
    1122:	bd 8f       	std	Y+29, r27	; 0x1d
 */
void
_delay_ms(double __ms)
{
	uint16_t __ticks;
	double __tmp = ((F_CPU) / 4e3) * __ms;
    1124:	6a 8d       	ldd	r22, Y+26	; 0x1a
    1126:	7b 8d       	ldd	r23, Y+27	; 0x1b
    1128:	8c 8d       	ldd	r24, Y+28	; 0x1c
    112a:	9d 8d       	ldd	r25, Y+29	; 0x1d
    112c:	20 e0       	ldi	r18, 0x00	; 0
    112e:	30 e0       	ldi	r19, 0x00	; 0
    1130:	4a ef       	ldi	r20, 0xFA	; 250
    1132:	54 e4       	ldi	r21, 0x44	; 68
    1134:	0e 94 17 02 	call	0x42e	; 0x42e <__mulsf3>
    1138:	dc 01       	movw	r26, r24
    113a:	cb 01       	movw	r24, r22
    113c:	8e 8b       	std	Y+22, r24	; 0x16
    113e:	9f 8b       	std	Y+23, r25	; 0x17
    1140:	a8 8f       	std	Y+24, r26	; 0x18
    1142:	b9 8f       	std	Y+25, r27	; 0x19
	if (__tmp < 1.0)
    1144:	6e 89       	ldd	r22, Y+22	; 0x16
    1146:	7f 89       	ldd	r23, Y+23	; 0x17
    1148:	88 8d       	ldd	r24, Y+24	; 0x18
    114a:	99 8d       	ldd	r25, Y+25	; 0x19
    114c:	20 e0       	ldi	r18, 0x00	; 0
    114e:	30 e0       	ldi	r19, 0x00	; 0
    1150:	40 e8       	ldi	r20, 0x80	; 128
    1152:	5f e3       	ldi	r21, 0x3F	; 63
    1154:	0e 94 1d 04 	call	0x83a	; 0x83a <__ltsf2>
    1158:	88 23       	and	r24, r24
    115a:	2c f4       	brge	.+10     	; 0x1166 <HLCD_voidInit+0x4d8>
		__ticks = 1;
    115c:	81 e0       	ldi	r24, 0x01	; 1
    115e:	90 e0       	ldi	r25, 0x00	; 0
    1160:	9d 8b       	std	Y+21, r25	; 0x15
    1162:	8c 8b       	std	Y+20, r24	; 0x14
    1164:	3f c0       	rjmp	.+126    	; 0x11e4 <HLCD_voidInit+0x556>
	else if (__tmp > 65535)
    1166:	6e 89       	ldd	r22, Y+22	; 0x16
    1168:	7f 89       	ldd	r23, Y+23	; 0x17
    116a:	88 8d       	ldd	r24, Y+24	; 0x18
    116c:	99 8d       	ldd	r25, Y+25	; 0x19
    116e:	20 e0       	ldi	r18, 0x00	; 0
    1170:	3f ef       	ldi	r19, 0xFF	; 255
    1172:	4f e7       	ldi	r20, 0x7F	; 127
    1174:	57 e4       	ldi	r21, 0x47	; 71
    1176:	0e 94 bd 03 	call	0x77a	; 0x77a <__gtsf2>
    117a:	18 16       	cp	r1, r24
    117c:	4c f5       	brge	.+82     	; 0x11d0 <HLCD_voidInit+0x542>
	{
		//	__ticks = requested delay in 1/10 ms
		__ticks = (uint16_t) (__ms * 10.0);
    117e:	6a 8d       	ldd	r22, Y+26	; 0x1a
    1180:	7b 8d       	ldd	r23, Y+27	; 0x1b
    1182:	8c 8d       	ldd	r24, Y+28	; 0x1c
    1184:	9d 8d       	ldd	r25, Y+29	; 0x1d
    1186:	20 e0       	ldi	r18, 0x00	; 0
    1188:	30 e0       	ldi	r19, 0x00	; 0
    118a:	40 e2       	ldi	r20, 0x20	; 32
    118c:	51 e4       	ldi	r21, 0x41	; 65
    118e:	0e 94 17 02 	call	0x42e	; 0x42e <__mulsf3>
    1192:	dc 01       	movw	r26, r24
    1194:	cb 01       	movw	r24, r22
    1196:	bc 01       	movw	r22, r24
    1198:	cd 01       	movw	r24, r26
    119a:	0e 94 41 00 	call	0x82	; 0x82 <__fixunssfsi>
    119e:	dc 01       	movw	r26, r24
    11a0:	cb 01       	movw	r24, r22
    11a2:	9d 8b       	std	Y+21, r25	; 0x15
    11a4:	8c 8b       	std	Y+20, r24	; 0x14
    11a6:	0f c0       	rjmp	.+30     	; 0x11c6 <HLCD_voidInit+0x538>
    11a8:	88 ec       	ldi	r24, 0xC8	; 200
    11aa:	90 e0       	ldi	r25, 0x00	; 0
    11ac:	9b 8b       	std	Y+19, r25	; 0x13
    11ae:	8a 8b       	std	Y+18, r24	; 0x12
    milliseconds can be achieved.
 */
void
_delay_loop_2(uint16_t __count)
{
	__asm__ volatile (
    11b0:	8a 89       	ldd	r24, Y+18	; 0x12
    11b2:	9b 89       	ldd	r25, Y+19	; 0x13
    11b4:	01 97       	sbiw	r24, 0x01	; 1
    11b6:	f1 f7       	brne	.-4      	; 0x11b4 <HLCD_voidInit+0x526>
    11b8:	9b 8b       	std	Y+19, r25	; 0x13
    11ba:	8a 8b       	std	Y+18, r24	; 0x12
		while(__ticks)
		{
			// wait 1/10 ms
			_delay_loop_2(((F_CPU) / 4e3) / 10);
			__ticks --;
    11bc:	8c 89       	ldd	r24, Y+20	; 0x14
    11be:	9d 89       	ldd	r25, Y+21	; 0x15
    11c0:	01 97       	sbiw	r24, 0x01	; 1
    11c2:	9d 8b       	std	Y+21, r25	; 0x15
    11c4:	8c 8b       	std	Y+20, r24	; 0x14
		__ticks = 1;
	else if (__tmp > 65535)
	{
		//	__ticks = requested delay in 1/10 ms
		__ticks = (uint16_t) (__ms * 10.0);
		while(__ticks)
    11c6:	8c 89       	ldd	r24, Y+20	; 0x14
    11c8:	9d 89       	ldd	r25, Y+21	; 0x15
    11ca:	00 97       	sbiw	r24, 0x00	; 0
    11cc:	69 f7       	brne	.-38     	; 0x11a8 <HLCD_voidInit+0x51a>
    11ce:	24 c0       	rjmp	.+72     	; 0x1218 <HLCD_voidInit+0x58a>
			__ticks --;
		}
		return;
	}
	else
		__ticks = (uint16_t)__tmp;
    11d0:	6e 89       	ldd	r22, Y+22	; 0x16
    11d2:	7f 89       	ldd	r23, Y+23	; 0x17
    11d4:	88 8d       	ldd	r24, Y+24	; 0x18
    11d6:	99 8d       	ldd	r25, Y+25	; 0x19
    11d8:	0e 94 41 00 	call	0x82	; 0x82 <__fixunssfsi>
    11dc:	dc 01       	movw	r26, r24
    11de:	cb 01       	movw	r24, r22
    11e0:	9d 8b       	std	Y+21, r25	; 0x15
    11e2:	8c 8b       	std	Y+20, r24	; 0x14
    11e4:	8c 89       	ldd	r24, Y+20	; 0x14
    11e6:	9d 89       	ldd	r25, Y+21	; 0x15
    11e8:	99 8b       	std	Y+17, r25	; 0x11
    11ea:	88 8b       	std	Y+16, r24	; 0x10
    11ec:	88 89       	ldd	r24, Y+16	; 0x10
    11ee:	99 89       	ldd	r25, Y+17	; 0x11
    11f0:	01 97       	sbiw	r24, 0x01	; 1
    11f2:	f1 f7       	brne	.-4      	; 0x11f0 <HLCD_voidInit+0x562>
    11f4:	99 8b       	std	Y+17, r25	; 0x11
    11f6:	88 8b       	std	Y+16, r24	; 0x10
    11f8:	0f c0       	rjmp	.+30     	; 0x1218 <HLCD_voidInit+0x58a>
	{
		_delay_ms(__us / 1000.0);
		return;
	}
	else
		__ticks = (uint8_t)__tmp;
    11fa:	6f 8d       	ldd	r22, Y+31	; 0x1f
    11fc:	78 a1       	ldd	r23, Y+32	; 0x20
    11fe:	89 a1       	ldd	r24, Y+33	; 0x21
    1200:	9a a1       	ldd	r25, Y+34	; 0x22
    1202:	0e 94 41 00 	call	0x82	; 0x82 <__fixunssfsi>
    1206:	dc 01       	movw	r26, r24
    1208:	cb 01       	movw	r24, r22
    120a:	8e 8f       	std	Y+30, r24	; 0x1e
    120c:	8e 8d       	ldd	r24, Y+30	; 0x1e
    120e:	8f 87       	std	Y+15, r24	; 0x0f
    can be achieved.
*/
void
_delay_loop_1(uint8_t __count)
{
	__asm__ volatile (
    1210:	8f 85       	ldd	r24, Y+15	; 0x0f
    1212:	8a 95       	dec	r24
    1214:	f1 f7       	brne	.-4      	; 0x1212 <HLCD_voidInit+0x584>
    1216:	8f 87       	std	Y+15, r24	; 0x0f
	_delay_us(50);
	HLCD_voidSendCmd(HLCD_CLEAR_DISPLAY);
    1218:	81 e0       	ldi	r24, 0x01	; 1
    121a:	0e 94 8d 09 	call	0x131a	; 0x131a <HLCD_voidSendCmd>
    121e:	80 e0       	ldi	r24, 0x00	; 0
    1220:	90 e0       	ldi	r25, 0x00	; 0
    1222:	a0 e0       	ldi	r26, 0x00	; 0
    1224:	b0 e4       	ldi	r27, 0x40	; 64
    1226:	8b 87       	std	Y+11, r24	; 0x0b
    1228:	9c 87       	std	Y+12, r25	; 0x0c
    122a:	ad 87       	std	Y+13, r26	; 0x0d
    122c:	be 87       	std	Y+14, r27	; 0x0e
 */
void
_delay_ms(double __ms)
{
	uint16_t __ticks;
	double __tmp = ((F_CPU) / 4e3) * __ms;
    122e:	6b 85       	ldd	r22, Y+11	; 0x0b
    1230:	7c 85       	ldd	r23, Y+12	; 0x0c
    1232:	8d 85       	ldd	r24, Y+13	; 0x0d
    1234:	9e 85       	ldd	r25, Y+14	; 0x0e
    1236:	20 e0       	ldi	r18, 0x00	; 0
    1238:	30 e0       	ldi	r19, 0x00	; 0
    123a:	4a ef       	ldi	r20, 0xFA	; 250
    123c:	54 e4       	ldi	r21, 0x44	; 68
    123e:	0e 94 17 02 	call	0x42e	; 0x42e <__mulsf3>
    1242:	dc 01       	movw	r26, r24
    1244:	cb 01       	movw	r24, r22
    1246:	8f 83       	std	Y+7, r24	; 0x07
    1248:	98 87       	std	Y+8, r25	; 0x08
    124a:	a9 87       	std	Y+9, r26	; 0x09
    124c:	ba 87       	std	Y+10, r27	; 0x0a
	if (__tmp < 1.0)
    124e:	6f 81       	ldd	r22, Y+7	; 0x07
    1250:	78 85       	ldd	r23, Y+8	; 0x08
    1252:	89 85       	ldd	r24, Y+9	; 0x09
    1254:	9a 85       	ldd	r25, Y+10	; 0x0a
    1256:	20 e0       	ldi	r18, 0x00	; 0
    1258:	30 e0       	ldi	r19, 0x00	; 0
    125a:	40 e8       	ldi	r20, 0x80	; 128
    125c:	5f e3       	ldi	r21, 0x3F	; 63
    125e:	0e 94 1d 04 	call	0x83a	; 0x83a <__ltsf2>
    1262:	88 23       	and	r24, r24
    1264:	2c f4       	brge	.+10     	; 0x1270 <HLCD_voidInit+0x5e2>
		__ticks = 1;
    1266:	81 e0       	ldi	r24, 0x01	; 1
    1268:	90 e0       	ldi	r25, 0x00	; 0
    126a:	9e 83       	std	Y+6, r25	; 0x06
    126c:	8d 83       	std	Y+5, r24	; 0x05
    126e:	3f c0       	rjmp	.+126    	; 0x12ee <HLCD_voidInit+0x660>
	else if (__tmp > 65535)
    1270:	6f 81       	ldd	r22, Y+7	; 0x07
    1272:	78 85       	ldd	r23, Y+8	; 0x08
    1274:	89 85       	ldd	r24, Y+9	; 0x09
    1276:	9a 85       	ldd	r25, Y+10	; 0x0a
    1278:	20 e0       	ldi	r18, 0x00	; 0
    127a:	3f ef       	ldi	r19, 0xFF	; 255
    127c:	4f e7       	ldi	r20, 0x7F	; 127
    127e:	57 e4       	ldi	r21, 0x47	; 71
    1280:	0e 94 bd 03 	call	0x77a	; 0x77a <__gtsf2>
    1284:	18 16       	cp	r1, r24
    1286:	4c f5       	brge	.+82     	; 0x12da <HLCD_voidInit+0x64c>
	{
		//	__ticks = requested delay in 1/10 ms
		__ticks = (uint16_t) (__ms * 10.0);
    1288:	6b 85       	ldd	r22, Y+11	; 0x0b
    128a:	7c 85       	ldd	r23, Y+12	; 0x0c
    128c:	8d 85       	ldd	r24, Y+13	; 0x0d
    128e:	9e 85       	ldd	r25, Y+14	; 0x0e
    1290:	20 e0       	ldi	r18, 0x00	; 0
    1292:	30 e0       	ldi	r19, 0x00	; 0
    1294:	40 e2       	ldi	r20, 0x20	; 32
    1296:	51 e4       	ldi	r21, 0x41	; 65
    1298:	0e 94 17 02 	call	0x42e	; 0x42e <__mulsf3>
    129c:	dc 01       	movw	r26, r24
    129e:	cb 01       	movw	r24, r22
    12a0:	bc 01       	movw	r22, r24
    12a2:	cd 01       	movw	r24, r26
    12a4:	0e 94 41 00 	call	0x82	; 0x82 <__fixunssfsi>
    12a8:	dc 01       	movw	r26, r24
    12aa:	cb 01       	movw	r24, r22
    12ac:	9e 83       	std	Y+6, r25	; 0x06
    12ae:	8d 83       	std	Y+5, r24	; 0x05
    12b0:	0f c0       	rjmp	.+30     	; 0x12d0 <HLCD_voidInit+0x642>
    12b2:	88 ec       	ldi	r24, 0xC8	; 200
    12b4:	90 e0       	ldi	r25, 0x00	; 0
    12b6:	9c 83       	std	Y+4, r25	; 0x04
    12b8:	8b 83       	std	Y+3, r24	; 0x03
    milliseconds can be achieved.
 */
void
_delay_loop_2(uint16_t __count)
{
	__asm__ volatile (
    12ba:	8b 81       	ldd	r24, Y+3	; 0x03
    12bc:	9c 81       	ldd	r25, Y+4	; 0x04
    12be:	01 97       	sbiw	r24, 0x01	; 1
    12c0:	f1 f7       	brne	.-4      	; 0x12be <HLCD_voidInit+0x630>
    12c2:	9c 83       	std	Y+4, r25	; 0x04
    12c4:	8b 83       	std	Y+3, r24	; 0x03
		while(__ticks)
		{
			// wait 1/10 ms
			_delay_loop_2(((F_CPU) / 4e3) / 10);
			__ticks --;
    12c6:	8d 81       	ldd	r24, Y+5	; 0x05
    12c8:	9e 81       	ldd	r25, Y+6	; 0x06
    12ca:	01 97       	sbiw	r24, 0x01	; 1
    12cc:	9e 83       	std	Y+6, r25	; 0x06
    12ce:	8d 83       	std	Y+5, r24	; 0x05
		__ticks = 1;
	else if (__tmp > 65535)
	{
		//	__ticks = requested delay in 1/10 ms
		__ticks = (uint16_t) (__ms * 10.0);
		while(__ticks)
    12d0:	8d 81       	ldd	r24, Y+5	; 0x05
    12d2:	9e 81       	ldd	r25, Y+6	; 0x06
    12d4:	00 97       	sbiw	r24, 0x00	; 0
    12d6:	69 f7       	brne	.-38     	; 0x12b2 <HLCD_voidInit+0x624>
    12d8:	14 c0       	rjmp	.+40     	; 0x1302 <HLCD_voidInit+0x674>
			__ticks --;
		}
		return;
	}
	else
		__ticks = (uint16_t)__tmp;
    12da:	6f 81       	ldd	r22, Y+7	; 0x07
    12dc:	78 85       	ldd	r23, Y+8	; 0x08
    12de:	89 85       	ldd	r24, Y+9	; 0x09
    12e0:	9a 85       	ldd	r25, Y+10	; 0x0a
    12e2:	0e 94 41 00 	call	0x82	; 0x82 <__fixunssfsi>
    12e6:	dc 01       	movw	r26, r24
    12e8:	cb 01       	movw	r24, r22
    12ea:	9e 83       	std	Y+6, r25	; 0x06
    12ec:	8d 83       	std	Y+5, r24	; 0x05
    12ee:	8d 81       	ldd	r24, Y+5	; 0x05
    12f0:	9e 81       	ldd	r25, Y+6	; 0x06
    12f2:	9a 83       	std	Y+2, r25	; 0x02
    12f4:	89 83       	std	Y+1, r24	; 0x01
    12f6:	89 81       	ldd	r24, Y+1	; 0x01
    12f8:	9a 81       	ldd	r25, Y+2	; 0x02
    12fa:	01 97       	sbiw	r24, 0x01	; 1
    12fc:	f1 f7       	brne	.-4      	; 0x12fa <HLCD_voidInit+0x66c>
    12fe:	9a 83       	std	Y+2, r25	; 0x02
    1300:	89 83       	std	Y+1, r24	; 0x01
	_delay_ms(2);
	
}
    1302:	ca 5a       	subi	r28, 0xAA	; 170
    1304:	df 4f       	sbci	r29, 0xFF	; 255
    1306:	0f b6       	in	r0, 0x3f	; 63
    1308:	f8 94       	cli
    130a:	de bf       	out	0x3e, r29	; 62
    130c:	0f be       	out	0x3f, r0	; 63
    130e:	cd bf       	out	0x3d, r28	; 61
    1310:	cf 91       	pop	r28
    1312:	df 91       	pop	r29
    1314:	1f 91       	pop	r17
    1316:	0f 91       	pop	r16
    1318:	08 95       	ret

0000131a <HLCD_voidSendCmd>:
* Purpose      : send a specific command to LCD
* Parameters   : uint8_t: the value of command
* Return value : void
*****************************************************************************/

void HLCD_voidSendCmd(u8 ARG_u8Cmd){
    131a:	df 93       	push	r29
    131c:	cf 93       	push	r28
    131e:	cd b7       	in	r28, 0x3d	; 61
    1320:	de b7       	in	r29, 0x3e	; 62
    1322:	69 97       	sbiw	r28, 0x19	; 25
    1324:	0f b6       	in	r0, 0x3f	; 63
    1326:	f8 94       	cli
    1328:	de bf       	out	0x3e, r29	; 62
    132a:	0f be       	out	0x3f, r0	; 63
    132c:	cd bf       	out	0x3d, r28	; 61
    132e:	89 8f       	std	Y+25, r24	; 0x19

	HLCD_RS(MDIO_LOW);
    1330:	82 e0       	ldi	r24, 0x02	; 2
    1332:	60 e0       	ldi	r22, 0x00	; 0
    1334:	41 e0       	ldi	r20, 0x01	; 1
    1336:	0e 94 f2 0f 	call	0x1fe4	; 0x1fe4 <MDIO_stderrSetPinValue>
	HLCD_RW(MDIO_LOW);
    133a:	82 e0       	ldi	r24, 0x02	; 2
    133c:	61 e0       	ldi	r22, 0x01	; 1
    133e:	41 e0       	ldi	r20, 0x01	; 1
    1340:	0e 94 f2 0f 	call	0x1fe4	; 0x1fe4 <MDIO_stderrSetPinValue>
	HLCD_EN(MDIO_LOW);
    1344:	82 e0       	ldi	r24, 0x02	; 2
    1346:	62 e0       	ldi	r22, 0x02	; 2
    1348:	41 e0       	ldi	r20, 0x01	; 1
    134a:	0e 94 f2 0f 	call	0x1fe4	; 0x1fe4 <MDIO_stderrSetPinValue>
	HLCD_EN(MDIO_HIGH);
    134e:	82 e0       	ldi	r24, 0x02	; 2
    1350:	62 e0       	ldi	r22, 0x02	; 2
    1352:	42 e0       	ldi	r20, 0x02	; 2
    1354:	0e 94 f2 0f 	call	0x1fe4	; 0x1fe4 <MDIO_stderrSetPinValue>

	HLCD_SEND_DATA_PORT(ARG_u8Cmd);	
    1358:	81 e0       	ldi	r24, 0x01	; 1
    135a:	69 8d       	ldd	r22, Y+25	; 0x19
    135c:	0e 94 5f 0d 	call	0x1abe	; 0x1abe <MDIO_stderrSetPortValue>
    1360:	80 e0       	ldi	r24, 0x00	; 0
    1362:	90 e0       	ldi	r25, 0x00	; 0
    1364:	a0 e0       	ldi	r26, 0x00	; 0
    1366:	b0 e4       	ldi	r27, 0x40	; 64
    1368:	8d 8b       	std	Y+21, r24	; 0x15
    136a:	9e 8b       	std	Y+22, r25	; 0x16
    136c:	af 8b       	std	Y+23, r26	; 0x17
    136e:	b8 8f       	std	Y+24, r27	; 0x18
 */
void
_delay_us(double __us)
{
	uint8_t __ticks;
	double __tmp = ((F_CPU) / 3e6) * __us;
    1370:	6d 89       	ldd	r22, Y+21	; 0x15
    1372:	7e 89       	ldd	r23, Y+22	; 0x16
    1374:	8f 89       	ldd	r24, Y+23	; 0x17
    1376:	98 8d       	ldd	r25, Y+24	; 0x18
    1378:	2b ea       	ldi	r18, 0xAB	; 171
    137a:	3a ea       	ldi	r19, 0xAA	; 170
    137c:	4a e2       	ldi	r20, 0x2A	; 42
    137e:	50 e4       	ldi	r21, 0x40	; 64
    1380:	0e 94 17 02 	call	0x42e	; 0x42e <__mulsf3>
    1384:	dc 01       	movw	r26, r24
    1386:	cb 01       	movw	r24, r22
    1388:	89 8b       	std	Y+17, r24	; 0x11
    138a:	9a 8b       	std	Y+18, r25	; 0x12
    138c:	ab 8b       	std	Y+19, r26	; 0x13
    138e:	bc 8b       	std	Y+20, r27	; 0x14
	if (__tmp < 1.0)
    1390:	69 89       	ldd	r22, Y+17	; 0x11
    1392:	7a 89       	ldd	r23, Y+18	; 0x12
    1394:	8b 89       	ldd	r24, Y+19	; 0x13
    1396:	9c 89       	ldd	r25, Y+20	; 0x14
    1398:	20 e0       	ldi	r18, 0x00	; 0
    139a:	30 e0       	ldi	r19, 0x00	; 0
    139c:	40 e8       	ldi	r20, 0x80	; 128
    139e:	5f e3       	ldi	r21, 0x3F	; 63
    13a0:	0e 94 1d 04 	call	0x83a	; 0x83a <__ltsf2>
    13a4:	88 23       	and	r24, r24
    13a6:	1c f4       	brge	.+6      	; 0x13ae <HLCD_voidSendCmd+0x94>
		__ticks = 1;
    13a8:	81 e0       	ldi	r24, 0x01	; 1
    13aa:	88 8b       	std	Y+16, r24	; 0x10
    13ac:	91 c0       	rjmp	.+290    	; 0x14d0 <HLCD_voidSendCmd+0x1b6>
	else if (__tmp > 255)
    13ae:	69 89       	ldd	r22, Y+17	; 0x11
    13b0:	7a 89       	ldd	r23, Y+18	; 0x12
    13b2:	8b 89       	ldd	r24, Y+19	; 0x13
    13b4:	9c 89       	ldd	r25, Y+20	; 0x14
    13b6:	20 e0       	ldi	r18, 0x00	; 0
    13b8:	30 e0       	ldi	r19, 0x00	; 0
    13ba:	4f e7       	ldi	r20, 0x7F	; 127
    13bc:	53 e4       	ldi	r21, 0x43	; 67
    13be:	0e 94 bd 03 	call	0x77a	; 0x77a <__gtsf2>
    13c2:	18 16       	cp	r1, r24
    13c4:	0c f0       	brlt	.+2      	; 0x13c8 <HLCD_voidSendCmd+0xae>
    13c6:	7b c0       	rjmp	.+246    	; 0x14be <HLCD_voidSendCmd+0x1a4>
	{
		_delay_ms(__us / 1000.0);
    13c8:	6d 89       	ldd	r22, Y+21	; 0x15
    13ca:	7e 89       	ldd	r23, Y+22	; 0x16
    13cc:	8f 89       	ldd	r24, Y+23	; 0x17
    13ce:	98 8d       	ldd	r25, Y+24	; 0x18
    13d0:	20 e0       	ldi	r18, 0x00	; 0
    13d2:	30 e0       	ldi	r19, 0x00	; 0
    13d4:	4a e7       	ldi	r20, 0x7A	; 122
    13d6:	54 e4       	ldi	r21, 0x44	; 68
    13d8:	0e 94 11 03 	call	0x622	; 0x622 <__divsf3>
    13dc:	dc 01       	movw	r26, r24
    13de:	cb 01       	movw	r24, r22
    13e0:	8c 87       	std	Y+12, r24	; 0x0c
    13e2:	9d 87       	std	Y+13, r25	; 0x0d
    13e4:	ae 87       	std	Y+14, r26	; 0x0e
    13e6:	bf 87       	std	Y+15, r27	; 0x0f
 */
void
_delay_ms(double __ms)
{
	uint16_t __ticks;
	double __tmp = ((F_CPU) / 4e3) * __ms;
    13e8:	6c 85       	ldd	r22, Y+12	; 0x0c
    13ea:	7d 85       	ldd	r23, Y+13	; 0x0d
    13ec:	8e 85       	ldd	r24, Y+14	; 0x0e
    13ee:	9f 85       	ldd	r25, Y+15	; 0x0f
    13f0:	20 e0       	ldi	r18, 0x00	; 0
    13f2:	30 e0       	ldi	r19, 0x00	; 0
    13f4:	4a ef       	ldi	r20, 0xFA	; 250
    13f6:	54 e4       	ldi	r21, 0x44	; 68
    13f8:	0e 94 17 02 	call	0x42e	; 0x42e <__mulsf3>
    13fc:	dc 01       	movw	r26, r24
    13fe:	cb 01       	movw	r24, r22
    1400:	88 87       	std	Y+8, r24	; 0x08
    1402:	99 87       	std	Y+9, r25	; 0x09
    1404:	aa 87       	std	Y+10, r26	; 0x0a
    1406:	bb 87       	std	Y+11, r27	; 0x0b
	if (__tmp < 1.0)
    1408:	68 85       	ldd	r22, Y+8	; 0x08
    140a:	79 85       	ldd	r23, Y+9	; 0x09
    140c:	8a 85       	ldd	r24, Y+10	; 0x0a
    140e:	9b 85       	ldd	r25, Y+11	; 0x0b
    1410:	20 e0       	ldi	r18, 0x00	; 0
    1412:	30 e0       	ldi	r19, 0x00	; 0
    1414:	40 e8       	ldi	r20, 0x80	; 128
    1416:	5f e3       	ldi	r21, 0x3F	; 63
    1418:	0e 94 1d 04 	call	0x83a	; 0x83a <__ltsf2>
    141c:	88 23       	and	r24, r24
    141e:	2c f4       	brge	.+10     	; 0x142a <HLCD_voidSendCmd+0x110>
		__ticks = 1;
    1420:	81 e0       	ldi	r24, 0x01	; 1
    1422:	90 e0       	ldi	r25, 0x00	; 0
    1424:	9f 83       	std	Y+7, r25	; 0x07
    1426:	8e 83       	std	Y+6, r24	; 0x06
    1428:	3f c0       	rjmp	.+126    	; 0x14a8 <HLCD_voidSendCmd+0x18e>
	else if (__tmp > 65535)
    142a:	68 85       	ldd	r22, Y+8	; 0x08
    142c:	79 85       	ldd	r23, Y+9	; 0x09
    142e:	8a 85       	ldd	r24, Y+10	; 0x0a
    1430:	9b 85       	ldd	r25, Y+11	; 0x0b
    1432:	20 e0       	ldi	r18, 0x00	; 0
    1434:	3f ef       	ldi	r19, 0xFF	; 255
    1436:	4f e7       	ldi	r20, 0x7F	; 127
    1438:	57 e4       	ldi	r21, 0x47	; 71
    143a:	0e 94 bd 03 	call	0x77a	; 0x77a <__gtsf2>
    143e:	18 16       	cp	r1, r24
    1440:	4c f5       	brge	.+82     	; 0x1494 <HLCD_voidSendCmd+0x17a>
	{
		//	__ticks = requested delay in 1/10 ms
		__ticks = (uint16_t) (__ms * 10.0);
    1442:	6c 85       	ldd	r22, Y+12	; 0x0c
    1444:	7d 85       	ldd	r23, Y+13	; 0x0d
    1446:	8e 85       	ldd	r24, Y+14	; 0x0e
    1448:	9f 85       	ldd	r25, Y+15	; 0x0f
    144a:	20 e0       	ldi	r18, 0x00	; 0
    144c:	30 e0       	ldi	r19, 0x00	; 0
    144e:	40 e2       	ldi	r20, 0x20	; 32
    1450:	51 e4       	ldi	r21, 0x41	; 65
    1452:	0e 94 17 02 	call	0x42e	; 0x42e <__mulsf3>
    1456:	dc 01       	movw	r26, r24
    1458:	cb 01       	movw	r24, r22
    145a:	bc 01       	movw	r22, r24
    145c:	cd 01       	movw	r24, r26
    145e:	0e 94 41 00 	call	0x82	; 0x82 <__fixunssfsi>
    1462:	dc 01       	movw	r26, r24
    1464:	cb 01       	movw	r24, r22
    1466:	9f 83       	std	Y+7, r25	; 0x07
    1468:	8e 83       	std	Y+6, r24	; 0x06
    146a:	0f c0       	rjmp	.+30     	; 0x148a <HLCD_voidSendCmd+0x170>
    146c:	88 ec       	ldi	r24, 0xC8	; 200
    146e:	90 e0       	ldi	r25, 0x00	; 0
    1470:	9d 83       	std	Y+5, r25	; 0x05
    1472:	8c 83       	std	Y+4, r24	; 0x04
    1474:	8c 81       	ldd	r24, Y+4	; 0x04
    1476:	9d 81       	ldd	r25, Y+5	; 0x05
    1478:	01 97       	sbiw	r24, 0x01	; 1
    147a:	f1 f7       	brne	.-4      	; 0x1478 <HLCD_voidSendCmd+0x15e>
    147c:	9d 83       	std	Y+5, r25	; 0x05
    147e:	8c 83       	std	Y+4, r24	; 0x04
		while(__ticks)
		{
			// wait 1/10 ms
			_delay_loop_2(((F_CPU) / 4e3) / 10);
			__ticks --;
    1480:	8e 81       	ldd	r24, Y+6	; 0x06
    1482:	9f 81       	ldd	r25, Y+7	; 0x07
    1484:	01 97       	sbiw	r24, 0x01	; 1
    1486:	9f 83       	std	Y+7, r25	; 0x07
    1488:	8e 83       	std	Y+6, r24	; 0x06
		__ticks = 1;
	else if (__tmp > 65535)
	{
		//	__ticks = requested delay in 1/10 ms
		__ticks = (uint16_t) (__ms * 10.0);
		while(__ticks)
    148a:	8e 81       	ldd	r24, Y+6	; 0x06
    148c:	9f 81       	ldd	r25, Y+7	; 0x07
    148e:	00 97       	sbiw	r24, 0x00	; 0
    1490:	69 f7       	brne	.-38     	; 0x146c <HLCD_voidSendCmd+0x152>
    1492:	24 c0       	rjmp	.+72     	; 0x14dc <HLCD_voidSendCmd+0x1c2>
			__ticks --;
		}
		return;
	}
	else
		__ticks = (uint16_t)__tmp;
    1494:	68 85       	ldd	r22, Y+8	; 0x08
    1496:	79 85       	ldd	r23, Y+9	; 0x09
    1498:	8a 85       	ldd	r24, Y+10	; 0x0a
    149a:	9b 85       	ldd	r25, Y+11	; 0x0b
    149c:	0e 94 41 00 	call	0x82	; 0x82 <__fixunssfsi>
    14a0:	dc 01       	movw	r26, r24
    14a2:	cb 01       	movw	r24, r22
    14a4:	9f 83       	std	Y+7, r25	; 0x07
    14a6:	8e 83       	std	Y+6, r24	; 0x06
    14a8:	8e 81       	ldd	r24, Y+6	; 0x06
    14aa:	9f 81       	ldd	r25, Y+7	; 0x07
    14ac:	9b 83       	std	Y+3, r25	; 0x03
    14ae:	8a 83       	std	Y+2, r24	; 0x02
    14b0:	8a 81       	ldd	r24, Y+2	; 0x02
    14b2:	9b 81       	ldd	r25, Y+3	; 0x03
    14b4:	01 97       	sbiw	r24, 0x01	; 1
    14b6:	f1 f7       	brne	.-4      	; 0x14b4 <HLCD_voidSendCmd+0x19a>
    14b8:	9b 83       	std	Y+3, r25	; 0x03
    14ba:	8a 83       	std	Y+2, r24	; 0x02
    14bc:	0f c0       	rjmp	.+30     	; 0x14dc <HLCD_voidSendCmd+0x1c2>
	{
		_delay_ms(__us / 1000.0);
		return;
	}
	else
		__ticks = (uint8_t)__tmp;
    14be:	69 89       	ldd	r22, Y+17	; 0x11
    14c0:	7a 89       	ldd	r23, Y+18	; 0x12
    14c2:	8b 89       	ldd	r24, Y+19	; 0x13
    14c4:	9c 89       	ldd	r25, Y+20	; 0x14
    14c6:	0e 94 41 00 	call	0x82	; 0x82 <__fixunssfsi>
    14ca:	dc 01       	movw	r26, r24
    14cc:	cb 01       	movw	r24, r22
    14ce:	88 8b       	std	Y+16, r24	; 0x10
    14d0:	88 89       	ldd	r24, Y+16	; 0x10
    14d2:	89 83       	std	Y+1, r24	; 0x01
    can be achieved.
*/
void
_delay_loop_1(uint8_t __count)
{
	__asm__ volatile (
    14d4:	89 81       	ldd	r24, Y+1	; 0x01
    14d6:	8a 95       	dec	r24
    14d8:	f1 f7       	brne	.-4      	; 0x14d6 <HLCD_voidSendCmd+0x1bc>
    14da:	89 83       	std	Y+1, r24	; 0x01
	_delay_us(2);
	HLCD_EN(MDIO_LOW);
    14dc:	82 e0       	ldi	r24, 0x02	; 2
    14de:	62 e0       	ldi	r22, 0x02	; 2
    14e0:	41 e0       	ldi	r20, 0x01	; 1
    14e2:	0e 94 f2 0f 	call	0x1fe4	; 0x1fe4 <MDIO_stderrSetPinValue>
	
}
    14e6:	69 96       	adiw	r28, 0x19	; 25
    14e8:	0f b6       	in	r0, 0x3f	; 63
    14ea:	f8 94       	cli
    14ec:	de bf       	out	0x3e, r29	; 62
    14ee:	0f be       	out	0x3f, r0	; 63
    14f0:	cd bf       	out	0x3d, r28	; 61
    14f2:	cf 91       	pop	r28
    14f4:	df 91       	pop	r29
    14f6:	08 95       	ret

000014f8 <HLCD_voidSendData>:
* Purpose      : write a char (by ascii) on LCD
* Parameters   : uint8_t: the value of ascii of the char
* Return value : void
*****************************************************************************/

void HLCD_voidSendData(u8 ARG_u8Data){
    14f8:	df 93       	push	r29
    14fa:	cf 93       	push	r28
    14fc:	cd b7       	in	r28, 0x3d	; 61
    14fe:	de b7       	in	r29, 0x3e	; 62
    1500:	69 97       	sbiw	r28, 0x19	; 25
    1502:	0f b6       	in	r0, 0x3f	; 63
    1504:	f8 94       	cli
    1506:	de bf       	out	0x3e, r29	; 62
    1508:	0f be       	out	0x3f, r0	; 63
    150a:	cd bf       	out	0x3d, r28	; 61
    150c:	89 8f       	std	Y+25, r24	; 0x19
	
	HLCD_RS(MDIO_HIGH);
    150e:	82 e0       	ldi	r24, 0x02	; 2
    1510:	60 e0       	ldi	r22, 0x00	; 0
    1512:	42 e0       	ldi	r20, 0x02	; 2
    1514:	0e 94 f2 0f 	call	0x1fe4	; 0x1fe4 <MDIO_stderrSetPinValue>
	HLCD_RW(MDIO_LOW);
    1518:	82 e0       	ldi	r24, 0x02	; 2
    151a:	61 e0       	ldi	r22, 0x01	; 1
    151c:	41 e0       	ldi	r20, 0x01	; 1
    151e:	0e 94 f2 0f 	call	0x1fe4	; 0x1fe4 <MDIO_stderrSetPinValue>
	HLCD_EN(MDIO_LOW);
    1522:	82 e0       	ldi	r24, 0x02	; 2
    1524:	62 e0       	ldi	r22, 0x02	; 2
    1526:	41 e0       	ldi	r20, 0x01	; 1
    1528:	0e 94 f2 0f 	call	0x1fe4	; 0x1fe4 <MDIO_stderrSetPinValue>
	HLCD_EN(MDIO_HIGH);
    152c:	82 e0       	ldi	r24, 0x02	; 2
    152e:	62 e0       	ldi	r22, 0x02	; 2
    1530:	42 e0       	ldi	r20, 0x02	; 2
    1532:	0e 94 f2 0f 	call	0x1fe4	; 0x1fe4 <MDIO_stderrSetPinValue>

	HLCD_SEND_DATA_PORT(ARG_u8Data);	
    1536:	81 e0       	ldi	r24, 0x01	; 1
    1538:	69 8d       	ldd	r22, Y+25	; 0x19
    153a:	0e 94 5f 0d 	call	0x1abe	; 0x1abe <MDIO_stderrSetPortValue>
    153e:	80 e0       	ldi	r24, 0x00	; 0
    1540:	90 e0       	ldi	r25, 0x00	; 0
    1542:	a0 e0       	ldi	r26, 0x00	; 0
    1544:	b0 e4       	ldi	r27, 0x40	; 64
    1546:	8d 8b       	std	Y+21, r24	; 0x15
    1548:	9e 8b       	std	Y+22, r25	; 0x16
    154a:	af 8b       	std	Y+23, r26	; 0x17
    154c:	b8 8f       	std	Y+24, r27	; 0x18
 */
void
_delay_us(double __us)
{
	uint8_t __ticks;
	double __tmp = ((F_CPU) / 3e6) * __us;
    154e:	6d 89       	ldd	r22, Y+21	; 0x15
    1550:	7e 89       	ldd	r23, Y+22	; 0x16
    1552:	8f 89       	ldd	r24, Y+23	; 0x17
    1554:	98 8d       	ldd	r25, Y+24	; 0x18
    1556:	2b ea       	ldi	r18, 0xAB	; 171
    1558:	3a ea       	ldi	r19, 0xAA	; 170
    155a:	4a e2       	ldi	r20, 0x2A	; 42
    155c:	50 e4       	ldi	r21, 0x40	; 64
    155e:	0e 94 17 02 	call	0x42e	; 0x42e <__mulsf3>
    1562:	dc 01       	movw	r26, r24
    1564:	cb 01       	movw	r24, r22
    1566:	89 8b       	std	Y+17, r24	; 0x11
    1568:	9a 8b       	std	Y+18, r25	; 0x12
    156a:	ab 8b       	std	Y+19, r26	; 0x13
    156c:	bc 8b       	std	Y+20, r27	; 0x14
	if (__tmp < 1.0)
    156e:	69 89       	ldd	r22, Y+17	; 0x11
    1570:	7a 89       	ldd	r23, Y+18	; 0x12
    1572:	8b 89       	ldd	r24, Y+19	; 0x13
    1574:	9c 89       	ldd	r25, Y+20	; 0x14
    1576:	20 e0       	ldi	r18, 0x00	; 0
    1578:	30 e0       	ldi	r19, 0x00	; 0
    157a:	40 e8       	ldi	r20, 0x80	; 128
    157c:	5f e3       	ldi	r21, 0x3F	; 63
    157e:	0e 94 1d 04 	call	0x83a	; 0x83a <__ltsf2>
    1582:	88 23       	and	r24, r24
    1584:	1c f4       	brge	.+6      	; 0x158c <HLCD_voidSendData+0x94>
		__ticks = 1;
    1586:	81 e0       	ldi	r24, 0x01	; 1
    1588:	88 8b       	std	Y+16, r24	; 0x10
    158a:	91 c0       	rjmp	.+290    	; 0x16ae <HLCD_voidSendData+0x1b6>
	else if (__tmp > 255)
    158c:	69 89       	ldd	r22, Y+17	; 0x11
    158e:	7a 89       	ldd	r23, Y+18	; 0x12
    1590:	8b 89       	ldd	r24, Y+19	; 0x13
    1592:	9c 89       	ldd	r25, Y+20	; 0x14
    1594:	20 e0       	ldi	r18, 0x00	; 0
    1596:	30 e0       	ldi	r19, 0x00	; 0
    1598:	4f e7       	ldi	r20, 0x7F	; 127
    159a:	53 e4       	ldi	r21, 0x43	; 67
    159c:	0e 94 bd 03 	call	0x77a	; 0x77a <__gtsf2>
    15a0:	18 16       	cp	r1, r24
    15a2:	0c f0       	brlt	.+2      	; 0x15a6 <HLCD_voidSendData+0xae>
    15a4:	7b c0       	rjmp	.+246    	; 0x169c <HLCD_voidSendData+0x1a4>
	{
		_delay_ms(__us / 1000.0);
    15a6:	6d 89       	ldd	r22, Y+21	; 0x15
    15a8:	7e 89       	ldd	r23, Y+22	; 0x16
    15aa:	8f 89       	ldd	r24, Y+23	; 0x17
    15ac:	98 8d       	ldd	r25, Y+24	; 0x18
    15ae:	20 e0       	ldi	r18, 0x00	; 0
    15b0:	30 e0       	ldi	r19, 0x00	; 0
    15b2:	4a e7       	ldi	r20, 0x7A	; 122
    15b4:	54 e4       	ldi	r21, 0x44	; 68
    15b6:	0e 94 11 03 	call	0x622	; 0x622 <__divsf3>
    15ba:	dc 01       	movw	r26, r24
    15bc:	cb 01       	movw	r24, r22
    15be:	8c 87       	std	Y+12, r24	; 0x0c
    15c0:	9d 87       	std	Y+13, r25	; 0x0d
    15c2:	ae 87       	std	Y+14, r26	; 0x0e
    15c4:	bf 87       	std	Y+15, r27	; 0x0f
 */
void
_delay_ms(double __ms)
{
	uint16_t __ticks;
	double __tmp = ((F_CPU) / 4e3) * __ms;
    15c6:	6c 85       	ldd	r22, Y+12	; 0x0c
    15c8:	7d 85       	ldd	r23, Y+13	; 0x0d
    15ca:	8e 85       	ldd	r24, Y+14	; 0x0e
    15cc:	9f 85       	ldd	r25, Y+15	; 0x0f
    15ce:	20 e0       	ldi	r18, 0x00	; 0
    15d0:	30 e0       	ldi	r19, 0x00	; 0
    15d2:	4a ef       	ldi	r20, 0xFA	; 250
    15d4:	54 e4       	ldi	r21, 0x44	; 68
    15d6:	0e 94 17 02 	call	0x42e	; 0x42e <__mulsf3>
    15da:	dc 01       	movw	r26, r24
    15dc:	cb 01       	movw	r24, r22
    15de:	88 87       	std	Y+8, r24	; 0x08
    15e0:	99 87       	std	Y+9, r25	; 0x09
    15e2:	aa 87       	std	Y+10, r26	; 0x0a
    15e4:	bb 87       	std	Y+11, r27	; 0x0b
	if (__tmp < 1.0)
    15e6:	68 85       	ldd	r22, Y+8	; 0x08
    15e8:	79 85       	ldd	r23, Y+9	; 0x09
    15ea:	8a 85       	ldd	r24, Y+10	; 0x0a
    15ec:	9b 85       	ldd	r25, Y+11	; 0x0b
    15ee:	20 e0       	ldi	r18, 0x00	; 0
    15f0:	30 e0       	ldi	r19, 0x00	; 0
    15f2:	40 e8       	ldi	r20, 0x80	; 128
    15f4:	5f e3       	ldi	r21, 0x3F	; 63
    15f6:	0e 94 1d 04 	call	0x83a	; 0x83a <__ltsf2>
    15fa:	88 23       	and	r24, r24
    15fc:	2c f4       	brge	.+10     	; 0x1608 <HLCD_voidSendData+0x110>
		__ticks = 1;
    15fe:	81 e0       	ldi	r24, 0x01	; 1
    1600:	90 e0       	ldi	r25, 0x00	; 0
    1602:	9f 83       	std	Y+7, r25	; 0x07
    1604:	8e 83       	std	Y+6, r24	; 0x06
    1606:	3f c0       	rjmp	.+126    	; 0x1686 <HLCD_voidSendData+0x18e>
	else if (__tmp > 65535)
    1608:	68 85       	ldd	r22, Y+8	; 0x08
    160a:	79 85       	ldd	r23, Y+9	; 0x09
    160c:	8a 85       	ldd	r24, Y+10	; 0x0a
    160e:	9b 85       	ldd	r25, Y+11	; 0x0b
    1610:	20 e0       	ldi	r18, 0x00	; 0
    1612:	3f ef       	ldi	r19, 0xFF	; 255
    1614:	4f e7       	ldi	r20, 0x7F	; 127
    1616:	57 e4       	ldi	r21, 0x47	; 71
    1618:	0e 94 bd 03 	call	0x77a	; 0x77a <__gtsf2>
    161c:	18 16       	cp	r1, r24
    161e:	4c f5       	brge	.+82     	; 0x1672 <HLCD_voidSendData+0x17a>
	{
		//	__ticks = requested delay in 1/10 ms
		__ticks = (uint16_t) (__ms * 10.0);
    1620:	6c 85       	ldd	r22, Y+12	; 0x0c
    1622:	7d 85       	ldd	r23, Y+13	; 0x0d
    1624:	8e 85       	ldd	r24, Y+14	; 0x0e
    1626:	9f 85       	ldd	r25, Y+15	; 0x0f
    1628:	20 e0       	ldi	r18, 0x00	; 0
    162a:	30 e0       	ldi	r19, 0x00	; 0
    162c:	40 e2       	ldi	r20, 0x20	; 32
    162e:	51 e4       	ldi	r21, 0x41	; 65
    1630:	0e 94 17 02 	call	0x42e	; 0x42e <__mulsf3>
    1634:	dc 01       	movw	r26, r24
    1636:	cb 01       	movw	r24, r22
    1638:	bc 01       	movw	r22, r24
    163a:	cd 01       	movw	r24, r26
    163c:	0e 94 41 00 	call	0x82	; 0x82 <__fixunssfsi>
    1640:	dc 01       	movw	r26, r24
    1642:	cb 01       	movw	r24, r22
    1644:	9f 83       	std	Y+7, r25	; 0x07
    1646:	8e 83       	std	Y+6, r24	; 0x06
    1648:	0f c0       	rjmp	.+30     	; 0x1668 <HLCD_voidSendData+0x170>
    164a:	88 ec       	ldi	r24, 0xC8	; 200
    164c:	90 e0       	ldi	r25, 0x00	; 0
    164e:	9d 83       	std	Y+5, r25	; 0x05
    1650:	8c 83       	std	Y+4, r24	; 0x04
    milliseconds can be achieved.
 */
void
_delay_loop_2(uint16_t __count)
{
	__asm__ volatile (
    1652:	8c 81       	ldd	r24, Y+4	; 0x04
    1654:	9d 81       	ldd	r25, Y+5	; 0x05
    1656:	01 97       	sbiw	r24, 0x01	; 1
    1658:	f1 f7       	brne	.-4      	; 0x1656 <HLCD_voidSendData+0x15e>
    165a:	9d 83       	std	Y+5, r25	; 0x05
    165c:	8c 83       	std	Y+4, r24	; 0x04
		while(__ticks)
		{
			// wait 1/10 ms
			_delay_loop_2(((F_CPU) / 4e3) / 10);
			__ticks --;
    165e:	8e 81       	ldd	r24, Y+6	; 0x06
    1660:	9f 81       	ldd	r25, Y+7	; 0x07
    1662:	01 97       	sbiw	r24, 0x01	; 1
    1664:	9f 83       	std	Y+7, r25	; 0x07
    1666:	8e 83       	std	Y+6, r24	; 0x06
		__ticks = 1;
	else if (__tmp > 65535)
	{
		//	__ticks = requested delay in 1/10 ms
		__ticks = (uint16_t) (__ms * 10.0);
		while(__ticks)
    1668:	8e 81       	ldd	r24, Y+6	; 0x06
    166a:	9f 81       	ldd	r25, Y+7	; 0x07
    166c:	00 97       	sbiw	r24, 0x00	; 0
    166e:	69 f7       	brne	.-38     	; 0x164a <HLCD_voidSendData+0x152>
    1670:	24 c0       	rjmp	.+72     	; 0x16ba <HLCD_voidSendData+0x1c2>
			__ticks --;
		}
		return;
	}
	else
		__ticks = (uint16_t)__tmp;
    1672:	68 85       	ldd	r22, Y+8	; 0x08
    1674:	79 85       	ldd	r23, Y+9	; 0x09
    1676:	8a 85       	ldd	r24, Y+10	; 0x0a
    1678:	9b 85       	ldd	r25, Y+11	; 0x0b
    167a:	0e 94 41 00 	call	0x82	; 0x82 <__fixunssfsi>
    167e:	dc 01       	movw	r26, r24
    1680:	cb 01       	movw	r24, r22
    1682:	9f 83       	std	Y+7, r25	; 0x07
    1684:	8e 83       	std	Y+6, r24	; 0x06
    1686:	8e 81       	ldd	r24, Y+6	; 0x06
    1688:	9f 81       	ldd	r25, Y+7	; 0x07
    168a:	9b 83       	std	Y+3, r25	; 0x03
    168c:	8a 83       	std	Y+2, r24	; 0x02
    168e:	8a 81       	ldd	r24, Y+2	; 0x02
    1690:	9b 81       	ldd	r25, Y+3	; 0x03
    1692:	01 97       	sbiw	r24, 0x01	; 1
    1694:	f1 f7       	brne	.-4      	; 0x1692 <HLCD_voidSendData+0x19a>
    1696:	9b 83       	std	Y+3, r25	; 0x03
    1698:	8a 83       	std	Y+2, r24	; 0x02
    169a:	0f c0       	rjmp	.+30     	; 0x16ba <HLCD_voidSendData+0x1c2>
	{
		_delay_ms(__us / 1000.0);
		return;
	}
	else
		__ticks = (uint8_t)__tmp;
    169c:	69 89       	ldd	r22, Y+17	; 0x11
    169e:	7a 89       	ldd	r23, Y+18	; 0x12
    16a0:	8b 89       	ldd	r24, Y+19	; 0x13
    16a2:	9c 89       	ldd	r25, Y+20	; 0x14
    16a4:	0e 94 41 00 	call	0x82	; 0x82 <__fixunssfsi>
    16a8:	dc 01       	movw	r26, r24
    16aa:	cb 01       	movw	r24, r22
    16ac:	88 8b       	std	Y+16, r24	; 0x10
    16ae:	88 89       	ldd	r24, Y+16	; 0x10
    16b0:	89 83       	std	Y+1, r24	; 0x01
    can be achieved.
*/
void
_delay_loop_1(uint8_t __count)
{
	__asm__ volatile (
    16b2:	89 81       	ldd	r24, Y+1	; 0x01
    16b4:	8a 95       	dec	r24
    16b6:	f1 f7       	brne	.-4      	; 0x16b4 <HLCD_voidSendData+0x1bc>
    16b8:	89 83       	std	Y+1, r24	; 0x01
	_delay_us(2);
	HLCD_EN(MDIO_LOW);
    16ba:	82 e0       	ldi	r24, 0x02	; 2
    16bc:	62 e0       	ldi	r22, 0x02	; 2
    16be:	41 e0       	ldi	r20, 0x01	; 1
    16c0:	0e 94 f2 0f 	call	0x1fe4	; 0x1fe4 <MDIO_stderrSetPinValue>
	
}
    16c4:	69 96       	adiw	r28, 0x19	; 25
    16c6:	0f b6       	in	r0, 0x3f	; 63
    16c8:	f8 94       	cli
    16ca:	de bf       	out	0x3e, r29	; 62
    16cc:	0f be       	out	0x3f, r0	; 63
    16ce:	cd bf       	out	0x3d, r28	; 61
    16d0:	cf 91       	pop	r28
    16d2:	df 91       	pop	r29
    16d4:	08 95       	ret

000016d6 <HLCD_voidSendNum>:
* Function Name: LCD_write_num
* Purpose      : display a specific number on LCD
* Parameters   : uint16_t: 5 digit number or less
* Return value : void
*************************************************************************/
void HLCD_voidSendNum(u16 ARG_u16Number){
    16d6:	df 93       	push	r29
    16d8:	cf 93       	push	r28
    16da:	cd b7       	in	r28, 0x3d	; 61
    16dc:	de b7       	in	r29, 0x3e	; 62
    16de:	29 97       	sbiw	r28, 0x09	; 9
    16e0:	0f b6       	in	r0, 0x3f	; 63
    16e2:	f8 94       	cli
    16e4:	de bf       	out	0x3e, r29	; 62
    16e6:	0f be       	out	0x3f, r0	; 63
    16e8:	cd bf       	out	0x3d, r28	; 61
    16ea:	99 87       	std	Y+9, r25	; 0x09
    16ec:	88 87       	std	Y+8, r24	; 0x08
	if (0 == ARG_u16Number ) 
    16ee:	88 85       	ldd	r24, Y+8	; 0x08
    16f0:	99 85       	ldd	r25, Y+9	; 0x09
    16f2:	00 97       	sbiw	r24, 0x00	; 0
    16f4:	21 f4       	brne	.+8      	; 0x16fe <HLCD_voidSendNum+0x28>
	{
		HLCD_voidSendData('0');
    16f6:	80 e3       	ldi	r24, 0x30	; 48
    16f8:	0e 94 7c 0a 	call	0x14f8	; 0x14f8 <HLCD_voidSendData>
    16fc:	3d c0       	rjmp	.+122    	; 0x1778 <HLCD_voidSendNum+0xa2>
	}
	else{
		u8 L_u8arrNum[6]; 
		s8	L_s8Iterator=0;
    16fe:	19 82       	std	Y+1, r1	; 0x01
    1700:	20 c0       	rjmp	.+64     	; 0x1742 <HLCD_voidSendNum+0x6c>
		//save every digit of num in our array separately
		for(;ARG_u16Number!=0;L_s8Iterator++)
		{
			L_u8arrNum[L_s8Iterator]=(ARG_u16Number%10) +'0';
    1702:	89 81       	ldd	r24, Y+1	; 0x01
    1704:	e8 2f       	mov	r30, r24
    1706:	ff 27       	eor	r31, r31
    1708:	e7 fd       	sbrc	r30, 7
    170a:	f0 95       	com	r31
    170c:	88 85       	ldd	r24, Y+8	; 0x08
    170e:	99 85       	ldd	r25, Y+9	; 0x09
    1710:	2a e0       	ldi	r18, 0x0A	; 10
    1712:	30 e0       	ldi	r19, 0x00	; 0
    1714:	b9 01       	movw	r22, r18
    1716:	0e 94 f8 12 	call	0x25f0	; 0x25f0 <__udivmodhi4>
    171a:	28 2f       	mov	r18, r24
    171c:	20 5d       	subi	r18, 0xD0	; 208
    171e:	ce 01       	movw	r24, r28
    1720:	02 96       	adiw	r24, 0x02	; 2
    1722:	e8 0f       	add	r30, r24
    1724:	f9 1f       	adc	r31, r25
    1726:	20 83       	st	Z, r18
			ARG_u16Number/=10;
    1728:	88 85       	ldd	r24, Y+8	; 0x08
    172a:	99 85       	ldd	r25, Y+9	; 0x09
    172c:	2a e0       	ldi	r18, 0x0A	; 10
    172e:	30 e0       	ldi	r19, 0x00	; 0
    1730:	b9 01       	movw	r22, r18
    1732:	0e 94 f8 12 	call	0x25f0	; 0x25f0 <__udivmodhi4>
    1736:	cb 01       	movw	r24, r22
    1738:	99 87       	std	Y+9, r25	; 0x09
    173a:	88 87       	std	Y+8, r24	; 0x08
	}
	else{
		u8 L_u8arrNum[6]; 
		s8	L_s8Iterator=0;
		//save every digit of num in our array separately
		for(;ARG_u16Number!=0;L_s8Iterator++)
    173c:	89 81       	ldd	r24, Y+1	; 0x01
    173e:	8f 5f       	subi	r24, 0xFF	; 255
    1740:	89 83       	std	Y+1, r24	; 0x01
    1742:	88 85       	ldd	r24, Y+8	; 0x08
    1744:	99 85       	ldd	r25, Y+9	; 0x09
    1746:	00 97       	sbiw	r24, 0x00	; 0
    1748:	e1 f6       	brne	.-72     	; 0x1702 <HLCD_voidSendNum+0x2c>
		{
			L_u8arrNum[L_s8Iterator]=(ARG_u16Number%10) +'0';
			ARG_u16Number/=10;
		}
		L_s8Iterator--;
    174a:	89 81       	ldd	r24, Y+1	; 0x01
    174c:	81 50       	subi	r24, 0x01	; 1
    174e:	89 83       	std	Y+1, r24	; 0x01
    1750:	10 c0       	rjmp	.+32     	; 0x1772 <HLCD_voidSendNum+0x9c>
		while(L_s8Iterator!=-1){
			HLCD_voidSendData(L_u8arrNum[L_s8Iterator]);
    1752:	89 81       	ldd	r24, Y+1	; 0x01
    1754:	28 2f       	mov	r18, r24
    1756:	33 27       	eor	r19, r19
    1758:	27 fd       	sbrc	r18, 7
    175a:	30 95       	com	r19
    175c:	ce 01       	movw	r24, r28
    175e:	02 96       	adiw	r24, 0x02	; 2
    1760:	fc 01       	movw	r30, r24
    1762:	e2 0f       	add	r30, r18
    1764:	f3 1f       	adc	r31, r19
    1766:	80 81       	ld	r24, Z
    1768:	0e 94 7c 0a 	call	0x14f8	; 0x14f8 <HLCD_voidSendData>
			L_s8Iterator--;
    176c:	89 81       	ldd	r24, Y+1	; 0x01
    176e:	81 50       	subi	r24, 0x01	; 1
    1770:	89 83       	std	Y+1, r24	; 0x01
		{
			L_u8arrNum[L_s8Iterator]=(ARG_u16Number%10) +'0';
			ARG_u16Number/=10;
		}
		L_s8Iterator--;
		while(L_s8Iterator!=-1){
    1772:	89 81       	ldd	r24, Y+1	; 0x01
    1774:	8f 3f       	cpi	r24, 0xFF	; 255
    1776:	69 f7       	brne	.-38     	; 0x1752 <HLCD_voidSendNum+0x7c>
			HLCD_voidSendData(L_u8arrNum[L_s8Iterator]);
			L_s8Iterator--;
		}	
	}
}
    1778:	29 96       	adiw	r28, 0x09	; 9
    177a:	0f b6       	in	r0, 0x3f	; 63
    177c:	f8 94       	cli
    177e:	de bf       	out	0x3e, r29	; 62
    1780:	0f be       	out	0x3f, r0	; 63
    1782:	cd bf       	out	0x3d, r28	; 61
    1784:	cf 91       	pop	r28
    1786:	df 91       	pop	r29
    1788:	08 95       	ret

0000178a <HLCD_voidSendString>:

void HLCD_voidSendString(char *ARG_chararrString){
    178a:	df 93       	push	r29
    178c:	cf 93       	push	r28
    178e:	00 d0       	rcall	.+0      	; 0x1790 <HLCD_voidSendString+0x6>
    1790:	0f 92       	push	r0
    1792:	cd b7       	in	r28, 0x3d	; 61
    1794:	de b7       	in	r29, 0x3e	; 62
    1796:	9b 83       	std	Y+3, r25	; 0x03
    1798:	8a 83       	std	Y+2, r24	; 0x02
	uint8_t L_s8Iterator =0;
    179a:	19 82       	std	Y+1, r1	; 0x01
    179c:	0e c0       	rjmp	.+28     	; 0x17ba <HLCD_voidSendString+0x30>
	for(;ARG_chararrString[L_s8Iterator]!='\0';L_s8Iterator++){
		HLCD_voidSendData(ARG_chararrString[L_s8Iterator]);
    179e:	89 81       	ldd	r24, Y+1	; 0x01
    17a0:	28 2f       	mov	r18, r24
    17a2:	30 e0       	ldi	r19, 0x00	; 0
    17a4:	8a 81       	ldd	r24, Y+2	; 0x02
    17a6:	9b 81       	ldd	r25, Y+3	; 0x03
    17a8:	fc 01       	movw	r30, r24
    17aa:	e2 0f       	add	r30, r18
    17ac:	f3 1f       	adc	r31, r19
    17ae:	80 81       	ld	r24, Z
    17b0:	0e 94 7c 0a 	call	0x14f8	; 0x14f8 <HLCD_voidSendData>
	}
}

void HLCD_voidSendString(char *ARG_chararrString){
	uint8_t L_s8Iterator =0;
	for(;ARG_chararrString[L_s8Iterator]!='\0';L_s8Iterator++){
    17b4:	89 81       	ldd	r24, Y+1	; 0x01
    17b6:	8f 5f       	subi	r24, 0xFF	; 255
    17b8:	89 83       	std	Y+1, r24	; 0x01
    17ba:	89 81       	ldd	r24, Y+1	; 0x01
    17bc:	28 2f       	mov	r18, r24
    17be:	30 e0       	ldi	r19, 0x00	; 0
    17c0:	8a 81       	ldd	r24, Y+2	; 0x02
    17c2:	9b 81       	ldd	r25, Y+3	; 0x03
    17c4:	fc 01       	movw	r30, r24
    17c6:	e2 0f       	add	r30, r18
    17c8:	f3 1f       	adc	r31, r19
    17ca:	80 81       	ld	r24, Z
    17cc:	88 23       	and	r24, r24
    17ce:	39 f7       	brne	.-50     	; 0x179e <HLCD_voidSendString+0x14>
		HLCD_voidSendData(ARG_chararrString[L_s8Iterator]);
	}
}
    17d0:	0f 90       	pop	r0
    17d2:	0f 90       	pop	r0
    17d4:	0f 90       	pop	r0
    17d6:	cf 91       	pop	r28
    17d8:	df 91       	pop	r29
    17da:	08 95       	ret

000017dc <HLCD_voidSetCur>:
void HLCD_voidSetCur(u8 ARG_u8Row, u8 ARG_u8Col)
{
    17dc:	df 93       	push	r29
    17de:	cf 93       	push	r28
    17e0:	cd b7       	in	r28, 0x3d	; 61
    17e2:	de b7       	in	r29, 0x3e	; 62
    17e4:	62 97       	sbiw	r28, 0x12	; 18
    17e6:	0f b6       	in	r0, 0x3f	; 63
    17e8:	f8 94       	cli
    17ea:	de bf       	out	0x3e, r29	; 62
    17ec:	0f be       	out	0x3f, r0	; 63
    17ee:	cd bf       	out	0x3d, r28	; 61
    17f0:	8f 87       	std	Y+15, r24	; 0x0f
    17f2:	68 8b       	std	Y+16, r22	; 0x10
    switch (ARG_u8Row)
    17f4:	8f 85       	ldd	r24, Y+15	; 0x0f
    17f6:	28 2f       	mov	r18, r24
    17f8:	30 e0       	ldi	r19, 0x00	; 0
    17fa:	3a 8b       	std	Y+18, r19	; 0x12
    17fc:	29 8b       	std	Y+17, r18	; 0x11
    17fe:	89 89       	ldd	r24, Y+17	; 0x11
    1800:	9a 89       	ldd	r25, Y+18	; 0x12
    1802:	00 97       	sbiw	r24, 0x00	; 0
    1804:	31 f0       	breq	.+12     	; 0x1812 <HLCD_voidSetCur+0x36>
    1806:	29 89       	ldd	r18, Y+17	; 0x11
    1808:	3a 89       	ldd	r19, Y+18	; 0x12
    180a:	21 30       	cpi	r18, 0x01	; 1
    180c:	31 05       	cpc	r19, r1
    180e:	29 f0       	breq	.+10     	; 0x181a <HLCD_voidSetCur+0x3e>
    1810:	07 c0       	rjmp	.+14     	; 0x1820 <HLCD_voidSetCur+0x44>
    {
        case 0:
            ARG_u8Col |= HLCD_START_LINE_1;
    1812:	88 89       	ldd	r24, Y+16	; 0x10
    1814:	80 68       	ori	r24, 0x80	; 128
    1816:	88 8b       	std	Y+16, r24	; 0x10
    1818:	03 c0       	rjmp	.+6      	; 0x1820 <HLCD_voidSetCur+0x44>
            break;
        case 1:
            ARG_u8Col |= HLCD_START_LINE_2;
    181a:	88 89       	ldd	r24, Y+16	; 0x10
    181c:	80 6c       	ori	r24, 0xC0	; 192
    181e:	88 8b       	std	Y+16, r24	; 0x10
            break;
    }

    HLCD_voidSendCmd(ARG_u8Col);
    1820:	88 89       	ldd	r24, Y+16	; 0x10
    1822:	0e 94 8d 09 	call	0x131a	; 0x131a <HLCD_voidSendCmd>
    1826:	80 e0       	ldi	r24, 0x00	; 0
    1828:	90 e0       	ldi	r25, 0x00	; 0
    182a:	a0 e0       	ldi	r26, 0x00	; 0
    182c:	b0 e4       	ldi	r27, 0x40	; 64
    182e:	8b 87       	std	Y+11, r24	; 0x0b
    1830:	9c 87       	std	Y+12, r25	; 0x0c
    1832:	ad 87       	std	Y+13, r26	; 0x0d
    1834:	be 87       	std	Y+14, r27	; 0x0e
 */
void
_delay_ms(double __ms)
{
	uint16_t __ticks;
	double __tmp = ((F_CPU) / 4e3) * __ms;
    1836:	6b 85       	ldd	r22, Y+11	; 0x0b
    1838:	7c 85       	ldd	r23, Y+12	; 0x0c
    183a:	8d 85       	ldd	r24, Y+13	; 0x0d
    183c:	9e 85       	ldd	r25, Y+14	; 0x0e
    183e:	20 e0       	ldi	r18, 0x00	; 0
    1840:	30 e0       	ldi	r19, 0x00	; 0
    1842:	4a ef       	ldi	r20, 0xFA	; 250
    1844:	54 e4       	ldi	r21, 0x44	; 68
    1846:	0e 94 17 02 	call	0x42e	; 0x42e <__mulsf3>
    184a:	dc 01       	movw	r26, r24
    184c:	cb 01       	movw	r24, r22
    184e:	8f 83       	std	Y+7, r24	; 0x07
    1850:	98 87       	std	Y+8, r25	; 0x08
    1852:	a9 87       	std	Y+9, r26	; 0x09
    1854:	ba 87       	std	Y+10, r27	; 0x0a
	if (__tmp < 1.0)
    1856:	6f 81       	ldd	r22, Y+7	; 0x07
    1858:	78 85       	ldd	r23, Y+8	; 0x08
    185a:	89 85       	ldd	r24, Y+9	; 0x09
    185c:	9a 85       	ldd	r25, Y+10	; 0x0a
    185e:	20 e0       	ldi	r18, 0x00	; 0
    1860:	30 e0       	ldi	r19, 0x00	; 0
    1862:	40 e8       	ldi	r20, 0x80	; 128
    1864:	5f e3       	ldi	r21, 0x3F	; 63
    1866:	0e 94 1d 04 	call	0x83a	; 0x83a <__ltsf2>
    186a:	88 23       	and	r24, r24
    186c:	2c f4       	brge	.+10     	; 0x1878 <HLCD_voidSetCur+0x9c>
		__ticks = 1;
    186e:	81 e0       	ldi	r24, 0x01	; 1
    1870:	90 e0       	ldi	r25, 0x00	; 0
    1872:	9e 83       	std	Y+6, r25	; 0x06
    1874:	8d 83       	std	Y+5, r24	; 0x05
    1876:	3f c0       	rjmp	.+126    	; 0x18f6 <HLCD_voidSetCur+0x11a>
	else if (__tmp > 65535)
    1878:	6f 81       	ldd	r22, Y+7	; 0x07
    187a:	78 85       	ldd	r23, Y+8	; 0x08
    187c:	89 85       	ldd	r24, Y+9	; 0x09
    187e:	9a 85       	ldd	r25, Y+10	; 0x0a
    1880:	20 e0       	ldi	r18, 0x00	; 0
    1882:	3f ef       	ldi	r19, 0xFF	; 255
    1884:	4f e7       	ldi	r20, 0x7F	; 127
    1886:	57 e4       	ldi	r21, 0x47	; 71
    1888:	0e 94 bd 03 	call	0x77a	; 0x77a <__gtsf2>
    188c:	18 16       	cp	r1, r24
    188e:	4c f5       	brge	.+82     	; 0x18e2 <HLCD_voidSetCur+0x106>
	{
		//	__ticks = requested delay in 1/10 ms
		__ticks = (uint16_t) (__ms * 10.0);
    1890:	6b 85       	ldd	r22, Y+11	; 0x0b
    1892:	7c 85       	ldd	r23, Y+12	; 0x0c
    1894:	8d 85       	ldd	r24, Y+13	; 0x0d
    1896:	9e 85       	ldd	r25, Y+14	; 0x0e
    1898:	20 e0       	ldi	r18, 0x00	; 0
    189a:	30 e0       	ldi	r19, 0x00	; 0
    189c:	40 e2       	ldi	r20, 0x20	; 32
    189e:	51 e4       	ldi	r21, 0x41	; 65
    18a0:	0e 94 17 02 	call	0x42e	; 0x42e <__mulsf3>
    18a4:	dc 01       	movw	r26, r24
    18a6:	cb 01       	movw	r24, r22
    18a8:	bc 01       	movw	r22, r24
    18aa:	cd 01       	movw	r24, r26
    18ac:	0e 94 41 00 	call	0x82	; 0x82 <__fixunssfsi>
    18b0:	dc 01       	movw	r26, r24
    18b2:	cb 01       	movw	r24, r22
    18b4:	9e 83       	std	Y+6, r25	; 0x06
    18b6:	8d 83       	std	Y+5, r24	; 0x05
    18b8:	0f c0       	rjmp	.+30     	; 0x18d8 <HLCD_voidSetCur+0xfc>
    18ba:	88 ec       	ldi	r24, 0xC8	; 200
    18bc:	90 e0       	ldi	r25, 0x00	; 0
    18be:	9c 83       	std	Y+4, r25	; 0x04
    18c0:	8b 83       	std	Y+3, r24	; 0x03
    milliseconds can be achieved.
 */
void
_delay_loop_2(uint16_t __count)
{
	__asm__ volatile (
    18c2:	8b 81       	ldd	r24, Y+3	; 0x03
    18c4:	9c 81       	ldd	r25, Y+4	; 0x04
    18c6:	01 97       	sbiw	r24, 0x01	; 1
    18c8:	f1 f7       	brne	.-4      	; 0x18c6 <HLCD_voidSetCur+0xea>
    18ca:	9c 83       	std	Y+4, r25	; 0x04
    18cc:	8b 83       	std	Y+3, r24	; 0x03
		while(__ticks)
		{
			// wait 1/10 ms
			_delay_loop_2(((F_CPU) / 4e3) / 10);
			__ticks --;
    18ce:	8d 81       	ldd	r24, Y+5	; 0x05
    18d0:	9e 81       	ldd	r25, Y+6	; 0x06
    18d2:	01 97       	sbiw	r24, 0x01	; 1
    18d4:	9e 83       	std	Y+6, r25	; 0x06
    18d6:	8d 83       	std	Y+5, r24	; 0x05
		__ticks = 1;
	else if (__tmp > 65535)
	{
		//	__ticks = requested delay in 1/10 ms
		__ticks = (uint16_t) (__ms * 10.0);
		while(__ticks)
    18d8:	8d 81       	ldd	r24, Y+5	; 0x05
    18da:	9e 81       	ldd	r25, Y+6	; 0x06
    18dc:	00 97       	sbiw	r24, 0x00	; 0
    18de:	69 f7       	brne	.-38     	; 0x18ba <HLCD_voidSetCur+0xde>
    18e0:	14 c0       	rjmp	.+40     	; 0x190a <HLCD_voidSetCur+0x12e>
			__ticks --;
		}
		return;
	}
	else
		__ticks = (uint16_t)__tmp;
    18e2:	6f 81       	ldd	r22, Y+7	; 0x07
    18e4:	78 85       	ldd	r23, Y+8	; 0x08
    18e6:	89 85       	ldd	r24, Y+9	; 0x09
    18e8:	9a 85       	ldd	r25, Y+10	; 0x0a
    18ea:	0e 94 41 00 	call	0x82	; 0x82 <__fixunssfsi>
    18ee:	dc 01       	movw	r26, r24
    18f0:	cb 01       	movw	r24, r22
    18f2:	9e 83       	std	Y+6, r25	; 0x06
    18f4:	8d 83       	std	Y+5, r24	; 0x05
    18f6:	8d 81       	ldd	r24, Y+5	; 0x05
    18f8:	9e 81       	ldd	r25, Y+6	; 0x06
    18fa:	9a 83       	std	Y+2, r25	; 0x02
    18fc:	89 83       	std	Y+1, r24	; 0x01
    18fe:	89 81       	ldd	r24, Y+1	; 0x01
    1900:	9a 81       	ldd	r25, Y+2	; 0x02
    1902:	01 97       	sbiw	r24, 0x01	; 1
    1904:	f1 f7       	brne	.-4      	; 0x1902 <HLCD_voidSetCur+0x126>
    1906:	9a 83       	std	Y+2, r25	; 0x02
    1908:	89 83       	std	Y+1, r24	; 0x01
    _delay_ms(2);

}
    190a:	62 96       	adiw	r28, 0x12	; 18
    190c:	0f b6       	in	r0, 0x3f	; 63
    190e:	f8 94       	cli
    1910:	de bf       	out	0x3e, r29	; 62
    1912:	0f be       	out	0x3f, r0	; 63
    1914:	cd bf       	out	0x3d, r28	; 61
    1916:	cf 91       	pop	r28
    1918:	df 91       	pop	r29
    191a:	08 95       	ret

0000191c <HLCD_voidClear>:

void HLCD_voidClear(void)
{
    191c:	df 93       	push	r29
    191e:	cf 93       	push	r28
    1920:	cd b7       	in	r28, 0x3d	; 61
    1922:	de b7       	in	r29, 0x3e	; 62
    1924:	2e 97       	sbiw	r28, 0x0e	; 14
    1926:	0f b6       	in	r0, 0x3f	; 63
    1928:	f8 94       	cli
    192a:	de bf       	out	0x3e, r29	; 62
    192c:	0f be       	out	0x3f, r0	; 63
    192e:	cd bf       	out	0x3d, r28	; 61
	HLCD_voidSendCmd(HLCD_CLEAR_DISPLAY);
    1930:	81 e0       	ldi	r24, 0x01	; 1
    1932:	0e 94 8d 09 	call	0x131a	; 0x131a <HLCD_voidSendCmd>
    1936:	80 e0       	ldi	r24, 0x00	; 0
    1938:	90 e0       	ldi	r25, 0x00	; 0
    193a:	a0 e0       	ldi	r26, 0x00	; 0
    193c:	b0 e4       	ldi	r27, 0x40	; 64
    193e:	8b 87       	std	Y+11, r24	; 0x0b
    1940:	9c 87       	std	Y+12, r25	; 0x0c
    1942:	ad 87       	std	Y+13, r26	; 0x0d
    1944:	be 87       	std	Y+14, r27	; 0x0e
 */
void
_delay_ms(double __ms)
{
	uint16_t __ticks;
	double __tmp = ((F_CPU) / 4e3) * __ms;
    1946:	6b 85       	ldd	r22, Y+11	; 0x0b
    1948:	7c 85       	ldd	r23, Y+12	; 0x0c
    194a:	8d 85       	ldd	r24, Y+13	; 0x0d
    194c:	9e 85       	ldd	r25, Y+14	; 0x0e
    194e:	20 e0       	ldi	r18, 0x00	; 0
    1950:	30 e0       	ldi	r19, 0x00	; 0
    1952:	4a ef       	ldi	r20, 0xFA	; 250
    1954:	54 e4       	ldi	r21, 0x44	; 68
    1956:	0e 94 17 02 	call	0x42e	; 0x42e <__mulsf3>
    195a:	dc 01       	movw	r26, r24
    195c:	cb 01       	movw	r24, r22
    195e:	8f 83       	std	Y+7, r24	; 0x07
    1960:	98 87       	std	Y+8, r25	; 0x08
    1962:	a9 87       	std	Y+9, r26	; 0x09
    1964:	ba 87       	std	Y+10, r27	; 0x0a
	if (__tmp < 1.0)
    1966:	6f 81       	ldd	r22, Y+7	; 0x07
    1968:	78 85       	ldd	r23, Y+8	; 0x08
    196a:	89 85       	ldd	r24, Y+9	; 0x09
    196c:	9a 85       	ldd	r25, Y+10	; 0x0a
    196e:	20 e0       	ldi	r18, 0x00	; 0
    1970:	30 e0       	ldi	r19, 0x00	; 0
    1972:	40 e8       	ldi	r20, 0x80	; 128
    1974:	5f e3       	ldi	r21, 0x3F	; 63
    1976:	0e 94 1d 04 	call	0x83a	; 0x83a <__ltsf2>
    197a:	88 23       	and	r24, r24
    197c:	2c f4       	brge	.+10     	; 0x1988 <HLCD_voidClear+0x6c>
		__ticks = 1;
    197e:	81 e0       	ldi	r24, 0x01	; 1
    1980:	90 e0       	ldi	r25, 0x00	; 0
    1982:	9e 83       	std	Y+6, r25	; 0x06
    1984:	8d 83       	std	Y+5, r24	; 0x05
    1986:	3f c0       	rjmp	.+126    	; 0x1a06 <HLCD_voidClear+0xea>
	else if (__tmp > 65535)
    1988:	6f 81       	ldd	r22, Y+7	; 0x07
    198a:	78 85       	ldd	r23, Y+8	; 0x08
    198c:	89 85       	ldd	r24, Y+9	; 0x09
    198e:	9a 85       	ldd	r25, Y+10	; 0x0a
    1990:	20 e0       	ldi	r18, 0x00	; 0
    1992:	3f ef       	ldi	r19, 0xFF	; 255
    1994:	4f e7       	ldi	r20, 0x7F	; 127
    1996:	57 e4       	ldi	r21, 0x47	; 71
    1998:	0e 94 bd 03 	call	0x77a	; 0x77a <__gtsf2>
    199c:	18 16       	cp	r1, r24
    199e:	4c f5       	brge	.+82     	; 0x19f2 <HLCD_voidClear+0xd6>
	{
		//	__ticks = requested delay in 1/10 ms
		__ticks = (uint16_t) (__ms * 10.0);
    19a0:	6b 85       	ldd	r22, Y+11	; 0x0b
    19a2:	7c 85       	ldd	r23, Y+12	; 0x0c
    19a4:	8d 85       	ldd	r24, Y+13	; 0x0d
    19a6:	9e 85       	ldd	r25, Y+14	; 0x0e
    19a8:	20 e0       	ldi	r18, 0x00	; 0
    19aa:	30 e0       	ldi	r19, 0x00	; 0
    19ac:	40 e2       	ldi	r20, 0x20	; 32
    19ae:	51 e4       	ldi	r21, 0x41	; 65
    19b0:	0e 94 17 02 	call	0x42e	; 0x42e <__mulsf3>
    19b4:	dc 01       	movw	r26, r24
    19b6:	cb 01       	movw	r24, r22
    19b8:	bc 01       	movw	r22, r24
    19ba:	cd 01       	movw	r24, r26
    19bc:	0e 94 41 00 	call	0x82	; 0x82 <__fixunssfsi>
    19c0:	dc 01       	movw	r26, r24
    19c2:	cb 01       	movw	r24, r22
    19c4:	9e 83       	std	Y+6, r25	; 0x06
    19c6:	8d 83       	std	Y+5, r24	; 0x05
    19c8:	0f c0       	rjmp	.+30     	; 0x19e8 <HLCD_voidClear+0xcc>
    19ca:	88 ec       	ldi	r24, 0xC8	; 200
    19cc:	90 e0       	ldi	r25, 0x00	; 0
    19ce:	9c 83       	std	Y+4, r25	; 0x04
    19d0:	8b 83       	std	Y+3, r24	; 0x03
    19d2:	8b 81       	ldd	r24, Y+3	; 0x03
    19d4:	9c 81       	ldd	r25, Y+4	; 0x04
    19d6:	01 97       	sbiw	r24, 0x01	; 1
    19d8:	f1 f7       	brne	.-4      	; 0x19d6 <HLCD_voidClear+0xba>
    19da:	9c 83       	std	Y+4, r25	; 0x04
    19dc:	8b 83       	std	Y+3, r24	; 0x03
		while(__ticks)
		{
			// wait 1/10 ms
			_delay_loop_2(((F_CPU) / 4e3) / 10);
			__ticks --;
    19de:	8d 81       	ldd	r24, Y+5	; 0x05
    19e0:	9e 81       	ldd	r25, Y+6	; 0x06
    19e2:	01 97       	sbiw	r24, 0x01	; 1
    19e4:	9e 83       	std	Y+6, r25	; 0x06
    19e6:	8d 83       	std	Y+5, r24	; 0x05
		__ticks = 1;
	else if (__tmp > 65535)
	{
		//	__ticks = requested delay in 1/10 ms
		__ticks = (uint16_t) (__ms * 10.0);
		while(__ticks)
    19e8:	8d 81       	ldd	r24, Y+5	; 0x05
    19ea:	9e 81       	ldd	r25, Y+6	; 0x06
    19ec:	00 97       	sbiw	r24, 0x00	; 0
    19ee:	69 f7       	brne	.-38     	; 0x19ca <HLCD_voidClear+0xae>
    19f0:	14 c0       	rjmp	.+40     	; 0x1a1a <HLCD_voidClear+0xfe>
			__ticks --;
		}
		return;
	}
	else
		__ticks = (uint16_t)__tmp;
    19f2:	6f 81       	ldd	r22, Y+7	; 0x07
    19f4:	78 85       	ldd	r23, Y+8	; 0x08
    19f6:	89 85       	ldd	r24, Y+9	; 0x09
    19f8:	9a 85       	ldd	r25, Y+10	; 0x0a
    19fa:	0e 94 41 00 	call	0x82	; 0x82 <__fixunssfsi>
    19fe:	dc 01       	movw	r26, r24
    1a00:	cb 01       	movw	r24, r22
    1a02:	9e 83       	std	Y+6, r25	; 0x06
    1a04:	8d 83       	std	Y+5, r24	; 0x05
    1a06:	8d 81       	ldd	r24, Y+5	; 0x05
    1a08:	9e 81       	ldd	r25, Y+6	; 0x06
    1a0a:	9a 83       	std	Y+2, r25	; 0x02
    1a0c:	89 83       	std	Y+1, r24	; 0x01
    1a0e:	89 81       	ldd	r24, Y+1	; 0x01
    1a10:	9a 81       	ldd	r25, Y+2	; 0x02
    1a12:	01 97       	sbiw	r24, 0x01	; 1
    1a14:	f1 f7       	brne	.-4      	; 0x1a12 <HLCD_voidClear+0xf6>
    1a16:	9a 83       	std	Y+2, r25	; 0x02
    1a18:	89 83       	std	Y+1, r24	; 0x01
	_delay_ms(2);
}
    1a1a:	2e 96       	adiw	r28, 0x0e	; 14
    1a1c:	0f b6       	in	r0, 0x3f	; 63
    1a1e:	f8 94       	cli
    1a20:	de bf       	out	0x3e, r29	; 62
    1a22:	0f be       	out	0x3f, r0	; 63
    1a24:	cd bf       	out	0x3d, r28	; 61
    1a26:	cf 91       	pop	r28
    1a28:	df 91       	pop	r29
    1a2a:	08 95       	ret

00001a2c <MDIO_stderrSetPortDirection>:
/* SWC Includes */
#include "MDIO_private.h"
#include "MDIO_interface.h"

STD_error_t MDIO_stderrSetPortDirection(u8 ARG_u8Port, u8 ARG_u8Direction)
{
    1a2c:	df 93       	push	r29
    1a2e:	cf 93       	push	r28
    1a30:	00 d0       	rcall	.+0      	; 0x1a32 <MDIO_stderrSetPortDirection+0x6>
    1a32:	00 d0       	rcall	.+0      	; 0x1a34 <MDIO_stderrSetPortDirection+0x8>
    1a34:	0f 92       	push	r0
    1a36:	cd b7       	in	r28, 0x3d	; 61
    1a38:	de b7       	in	r29, 0x3e	; 62
    1a3a:	8a 83       	std	Y+2, r24	; 0x02
    1a3c:	6b 83       	std	Y+3, r22	; 0x03
	STD_error_t L_stderrError = E_OK;
    1a3e:	19 82       	std	Y+1, r1	; 0x01
	switch(ARG_u8Port)
    1a40:	8a 81       	ldd	r24, Y+2	; 0x02
    1a42:	28 2f       	mov	r18, r24
    1a44:	30 e0       	ldi	r19, 0x00	; 0
    1a46:	3d 83       	std	Y+5, r19	; 0x05
    1a48:	2c 83       	std	Y+4, r18	; 0x04
    1a4a:	8c 81       	ldd	r24, Y+4	; 0x04
    1a4c:	9d 81       	ldd	r25, Y+5	; 0x05
    1a4e:	82 30       	cpi	r24, 0x02	; 2
    1a50:	91 05       	cpc	r25, r1
    1a52:	d9 f0       	breq	.+54     	; 0x1a8a <MDIO_stderrSetPortDirection+0x5e>
    1a54:	2c 81       	ldd	r18, Y+4	; 0x04
    1a56:	3d 81       	ldd	r19, Y+5	; 0x05
    1a58:	23 30       	cpi	r18, 0x03	; 3
    1a5a:	31 05       	cpc	r19, r1
    1a5c:	34 f4       	brge	.+12     	; 0x1a6a <MDIO_stderrSetPortDirection+0x3e>
    1a5e:	8c 81       	ldd	r24, Y+4	; 0x04
    1a60:	9d 81       	ldd	r25, Y+5	; 0x05
    1a62:	81 30       	cpi	r24, 0x01	; 1
    1a64:	91 05       	cpc	r25, r1
    1a66:	61 f0       	breq	.+24     	; 0x1a80 <MDIO_stderrSetPortDirection+0x54>
    1a68:	1f c0       	rjmp	.+62     	; 0x1aa8 <MDIO_stderrSetPortDirection+0x7c>
    1a6a:	2c 81       	ldd	r18, Y+4	; 0x04
    1a6c:	3d 81       	ldd	r19, Y+5	; 0x05
    1a6e:	23 30       	cpi	r18, 0x03	; 3
    1a70:	31 05       	cpc	r19, r1
    1a72:	81 f0       	breq	.+32     	; 0x1a94 <MDIO_stderrSetPortDirection+0x68>
    1a74:	8c 81       	ldd	r24, Y+4	; 0x04
    1a76:	9d 81       	ldd	r25, Y+5	; 0x05
    1a78:	84 30       	cpi	r24, 0x04	; 4
    1a7a:	91 05       	cpc	r25, r1
    1a7c:	81 f0       	breq	.+32     	; 0x1a9e <MDIO_stderrSetPortDirection+0x72>
    1a7e:	14 c0       	rjmp	.+40     	; 0x1aa8 <MDIO_stderrSetPortDirection+0x7c>
	{
		case MDIO_PORTA: GPIOA -> DDR = ARG_u8Direction; break;
    1a80:	e9 e3       	ldi	r30, 0x39	; 57
    1a82:	f0 e0       	ldi	r31, 0x00	; 0
    1a84:	8b 81       	ldd	r24, Y+3	; 0x03
    1a86:	81 83       	std	Z+1, r24	; 0x01
    1a88:	11 c0       	rjmp	.+34     	; 0x1aac <MDIO_stderrSetPortDirection+0x80>
		case MDIO_PORTB: GPIOB -> DDR = ARG_u8Direction; break;
    1a8a:	e6 e3       	ldi	r30, 0x36	; 54
    1a8c:	f0 e0       	ldi	r31, 0x00	; 0
    1a8e:	8b 81       	ldd	r24, Y+3	; 0x03
    1a90:	81 83       	std	Z+1, r24	; 0x01
    1a92:	0c c0       	rjmp	.+24     	; 0x1aac <MDIO_stderrSetPortDirection+0x80>
		case MDIO_PORTC: GPIOC -> DDR = ARG_u8Direction; break;
    1a94:	e3 e3       	ldi	r30, 0x33	; 51
    1a96:	f0 e0       	ldi	r31, 0x00	; 0
    1a98:	8b 81       	ldd	r24, Y+3	; 0x03
    1a9a:	81 83       	std	Z+1, r24	; 0x01
    1a9c:	07 c0       	rjmp	.+14     	; 0x1aac <MDIO_stderrSetPortDirection+0x80>
		case MDIO_PORTD: GPIOD -> DDR = ARG_u8Direction; break;
    1a9e:	e0 e3       	ldi	r30, 0x30	; 48
    1aa0:	f0 e0       	ldi	r31, 0x00	; 0
    1aa2:	8b 81       	ldd	r24, Y+3	; 0x03
    1aa4:	81 83       	std	Z+1, r24	; 0x01
    1aa6:	02 c0       	rjmp	.+4      	; 0x1aac <MDIO_stderrSetPortDirection+0x80>
		default: L_stderrError = E_NOK; break; /* Report an Error */
    1aa8:	81 e0       	ldi	r24, 0x01	; 1
    1aaa:	89 83       	std	Y+1, r24	; 0x01
	}
	return L_stderrError;
    1aac:	89 81       	ldd	r24, Y+1	; 0x01
}
    1aae:	0f 90       	pop	r0
    1ab0:	0f 90       	pop	r0
    1ab2:	0f 90       	pop	r0
    1ab4:	0f 90       	pop	r0
    1ab6:	0f 90       	pop	r0
    1ab8:	cf 91       	pop	r28
    1aba:	df 91       	pop	r29
    1abc:	08 95       	ret

00001abe <MDIO_stderrSetPortValue>:

STD_error_t MDIO_stderrSetPortValue(u8 ARG_u8Port, u8 ARG_u8Value)
{
    1abe:	df 93       	push	r29
    1ac0:	cf 93       	push	r28
    1ac2:	00 d0       	rcall	.+0      	; 0x1ac4 <MDIO_stderrSetPortValue+0x6>
    1ac4:	00 d0       	rcall	.+0      	; 0x1ac6 <MDIO_stderrSetPortValue+0x8>
    1ac6:	0f 92       	push	r0
    1ac8:	cd b7       	in	r28, 0x3d	; 61
    1aca:	de b7       	in	r29, 0x3e	; 62
    1acc:	8a 83       	std	Y+2, r24	; 0x02
    1ace:	6b 83       	std	Y+3, r22	; 0x03
	STD_error_t L_stderrError = E_OK;
    1ad0:	19 82       	std	Y+1, r1	; 0x01
	switch(ARG_u8Port)
    1ad2:	8a 81       	ldd	r24, Y+2	; 0x02
    1ad4:	28 2f       	mov	r18, r24
    1ad6:	30 e0       	ldi	r19, 0x00	; 0
    1ad8:	3d 83       	std	Y+5, r19	; 0x05
    1ada:	2c 83       	std	Y+4, r18	; 0x04
    1adc:	8c 81       	ldd	r24, Y+4	; 0x04
    1ade:	9d 81       	ldd	r25, Y+5	; 0x05
    1ae0:	82 30       	cpi	r24, 0x02	; 2
    1ae2:	91 05       	cpc	r25, r1
    1ae4:	d9 f0       	breq	.+54     	; 0x1b1c <MDIO_stderrSetPortValue+0x5e>
    1ae6:	2c 81       	ldd	r18, Y+4	; 0x04
    1ae8:	3d 81       	ldd	r19, Y+5	; 0x05
    1aea:	23 30       	cpi	r18, 0x03	; 3
    1aec:	31 05       	cpc	r19, r1
    1aee:	34 f4       	brge	.+12     	; 0x1afc <MDIO_stderrSetPortValue+0x3e>
    1af0:	8c 81       	ldd	r24, Y+4	; 0x04
    1af2:	9d 81       	ldd	r25, Y+5	; 0x05
    1af4:	81 30       	cpi	r24, 0x01	; 1
    1af6:	91 05       	cpc	r25, r1
    1af8:	61 f0       	breq	.+24     	; 0x1b12 <MDIO_stderrSetPortValue+0x54>
    1afa:	1f c0       	rjmp	.+62     	; 0x1b3a <MDIO_stderrSetPortValue+0x7c>
    1afc:	2c 81       	ldd	r18, Y+4	; 0x04
    1afe:	3d 81       	ldd	r19, Y+5	; 0x05
    1b00:	23 30       	cpi	r18, 0x03	; 3
    1b02:	31 05       	cpc	r19, r1
    1b04:	81 f0       	breq	.+32     	; 0x1b26 <MDIO_stderrSetPortValue+0x68>
    1b06:	8c 81       	ldd	r24, Y+4	; 0x04
    1b08:	9d 81       	ldd	r25, Y+5	; 0x05
    1b0a:	84 30       	cpi	r24, 0x04	; 4
    1b0c:	91 05       	cpc	r25, r1
    1b0e:	81 f0       	breq	.+32     	; 0x1b30 <MDIO_stderrSetPortValue+0x72>
    1b10:	14 c0       	rjmp	.+40     	; 0x1b3a <MDIO_stderrSetPortValue+0x7c>
	{
		case MDIO_PORTA: GPIOA -> PORT = ARG_u8Value; break;
    1b12:	e9 e3       	ldi	r30, 0x39	; 57
    1b14:	f0 e0       	ldi	r31, 0x00	; 0
    1b16:	8b 81       	ldd	r24, Y+3	; 0x03
    1b18:	82 83       	std	Z+2, r24	; 0x02
    1b1a:	11 c0       	rjmp	.+34     	; 0x1b3e <MDIO_stderrSetPortValue+0x80>
		case MDIO_PORTB: GPIOB -> PORT = ARG_u8Value; break;
    1b1c:	e6 e3       	ldi	r30, 0x36	; 54
    1b1e:	f0 e0       	ldi	r31, 0x00	; 0
    1b20:	8b 81       	ldd	r24, Y+3	; 0x03
    1b22:	82 83       	std	Z+2, r24	; 0x02
    1b24:	0c c0       	rjmp	.+24     	; 0x1b3e <MDIO_stderrSetPortValue+0x80>
		case MDIO_PORTC: GPIOC -> PORT = ARG_u8Value; break;
    1b26:	e3 e3       	ldi	r30, 0x33	; 51
    1b28:	f0 e0       	ldi	r31, 0x00	; 0
    1b2a:	8b 81       	ldd	r24, Y+3	; 0x03
    1b2c:	82 83       	std	Z+2, r24	; 0x02
    1b2e:	07 c0       	rjmp	.+14     	; 0x1b3e <MDIO_stderrSetPortValue+0x80>
		case MDIO_PORTD: GPIOD -> PORT = ARG_u8Value; break;
    1b30:	e0 e3       	ldi	r30, 0x30	; 48
    1b32:	f0 e0       	ldi	r31, 0x00	; 0
    1b34:	8b 81       	ldd	r24, Y+3	; 0x03
    1b36:	82 83       	std	Z+2, r24	; 0x02
    1b38:	02 c0       	rjmp	.+4      	; 0x1b3e <MDIO_stderrSetPortValue+0x80>
		default: L_stderrError = E_NOK; break; /* Report an Error */
    1b3a:	81 e0       	ldi	r24, 0x01	; 1
    1b3c:	89 83       	std	Y+1, r24	; 0x01
	}
	return L_stderrError;
    1b3e:	89 81       	ldd	r24, Y+1	; 0x01
}
    1b40:	0f 90       	pop	r0
    1b42:	0f 90       	pop	r0
    1b44:	0f 90       	pop	r0
    1b46:	0f 90       	pop	r0
    1b48:	0f 90       	pop	r0
    1b4a:	cf 91       	pop	r28
    1b4c:	df 91       	pop	r29
    1b4e:	08 95       	ret

00001b50 <MDIO_stderrGetPortValue>:

STD_error_t	MDIO_stderrGetPortValue(u8* ARG_u8pValue, u8 ARG_u8Port)
{
    1b50:	df 93       	push	r29
    1b52:	cf 93       	push	r28
    1b54:	00 d0       	rcall	.+0      	; 0x1b56 <MDIO_stderrGetPortValue+0x6>
    1b56:	00 d0       	rcall	.+0      	; 0x1b58 <MDIO_stderrGetPortValue+0x8>
    1b58:	00 d0       	rcall	.+0      	; 0x1b5a <MDIO_stderrGetPortValue+0xa>
    1b5a:	cd b7       	in	r28, 0x3d	; 61
    1b5c:	de b7       	in	r29, 0x3e	; 62
    1b5e:	9b 83       	std	Y+3, r25	; 0x03
    1b60:	8a 83       	std	Y+2, r24	; 0x02
    1b62:	6c 83       	std	Y+4, r22	; 0x04
	STD_error_t L_stderrError = E_OK;
    1b64:	19 82       	std	Y+1, r1	; 0x01
	switch(ARG_u8Port)
    1b66:	8c 81       	ldd	r24, Y+4	; 0x04
    1b68:	28 2f       	mov	r18, r24
    1b6a:	30 e0       	ldi	r19, 0x00	; 0
    1b6c:	3e 83       	std	Y+6, r19	; 0x06
    1b6e:	2d 83       	std	Y+5, r18	; 0x05
    1b70:	8d 81       	ldd	r24, Y+5	; 0x05
    1b72:	9e 81       	ldd	r25, Y+6	; 0x06
    1b74:	82 30       	cpi	r24, 0x02	; 2
    1b76:	91 05       	cpc	r25, r1
    1b78:	e9 f0       	breq	.+58     	; 0x1bb4 <MDIO_stderrGetPortValue+0x64>
    1b7a:	2d 81       	ldd	r18, Y+5	; 0x05
    1b7c:	3e 81       	ldd	r19, Y+6	; 0x06
    1b7e:	23 30       	cpi	r18, 0x03	; 3
    1b80:	31 05       	cpc	r19, r1
    1b82:	34 f4       	brge	.+12     	; 0x1b90 <MDIO_stderrGetPortValue+0x40>
    1b84:	8d 81       	ldd	r24, Y+5	; 0x05
    1b86:	9e 81       	ldd	r25, Y+6	; 0x06
    1b88:	81 30       	cpi	r24, 0x01	; 1
    1b8a:	91 05       	cpc	r25, r1
    1b8c:	61 f0       	breq	.+24     	; 0x1ba6 <MDIO_stderrGetPortValue+0x56>
    1b8e:	27 c0       	rjmp	.+78     	; 0x1bde <MDIO_stderrGetPortValue+0x8e>
    1b90:	2d 81       	ldd	r18, Y+5	; 0x05
    1b92:	3e 81       	ldd	r19, Y+6	; 0x06
    1b94:	23 30       	cpi	r18, 0x03	; 3
    1b96:	31 05       	cpc	r19, r1
    1b98:	a1 f0       	breq	.+40     	; 0x1bc2 <MDIO_stderrGetPortValue+0x72>
    1b9a:	8d 81       	ldd	r24, Y+5	; 0x05
    1b9c:	9e 81       	ldd	r25, Y+6	; 0x06
    1b9e:	84 30       	cpi	r24, 0x04	; 4
    1ba0:	91 05       	cpc	r25, r1
    1ba2:	b1 f0       	breq	.+44     	; 0x1bd0 <MDIO_stderrGetPortValue+0x80>
    1ba4:	1c c0       	rjmp	.+56     	; 0x1bde <MDIO_stderrGetPortValue+0x8e>
	{
		case MDIO_PORTA: *ARG_u8pValue = GPIOA -> PIN; break;
    1ba6:	e9 e3       	ldi	r30, 0x39	; 57
    1ba8:	f0 e0       	ldi	r31, 0x00	; 0
    1baa:	80 81       	ld	r24, Z
    1bac:	ea 81       	ldd	r30, Y+2	; 0x02
    1bae:	fb 81       	ldd	r31, Y+3	; 0x03
    1bb0:	80 83       	st	Z, r24
    1bb2:	17 c0       	rjmp	.+46     	; 0x1be2 <MDIO_stderrGetPortValue+0x92>
        case MDIO_PORTB: *ARG_u8pValue = GPIOB -> PIN; break;
    1bb4:	e6 e3       	ldi	r30, 0x36	; 54
    1bb6:	f0 e0       	ldi	r31, 0x00	; 0
    1bb8:	80 81       	ld	r24, Z
    1bba:	ea 81       	ldd	r30, Y+2	; 0x02
    1bbc:	fb 81       	ldd	r31, Y+3	; 0x03
    1bbe:	80 83       	st	Z, r24
    1bc0:	10 c0       	rjmp	.+32     	; 0x1be2 <MDIO_stderrGetPortValue+0x92>
        case MDIO_PORTC: *ARG_u8pValue = GPIOC -> PIN; break;
    1bc2:	e3 e3       	ldi	r30, 0x33	; 51
    1bc4:	f0 e0       	ldi	r31, 0x00	; 0
    1bc6:	80 81       	ld	r24, Z
    1bc8:	ea 81       	ldd	r30, Y+2	; 0x02
    1bca:	fb 81       	ldd	r31, Y+3	; 0x03
    1bcc:	80 83       	st	Z, r24
    1bce:	09 c0       	rjmp	.+18     	; 0x1be2 <MDIO_stderrGetPortValue+0x92>
        case MDIO_PORTD: *ARG_u8pValue = GPIOD -> PIN; break;
    1bd0:	e0 e3       	ldi	r30, 0x30	; 48
    1bd2:	f0 e0       	ldi	r31, 0x00	; 0
    1bd4:	80 81       	ld	r24, Z
    1bd6:	ea 81       	ldd	r30, Y+2	; 0x02
    1bd8:	fb 81       	ldd	r31, Y+3	; 0x03
    1bda:	80 83       	st	Z, r24
    1bdc:	02 c0       	rjmp	.+4      	; 0x1be2 <MDIO_stderrGetPortValue+0x92>
        default: L_stderrError = E_NOK; break; /* Report an Error */
    1bde:	81 e0       	ldi	r24, 0x01	; 1
    1be0:	89 83       	std	Y+1, r24	; 0x01
	}
	return L_stderrError;
    1be2:	89 81       	ldd	r24, Y+1	; 0x01
}
    1be4:	26 96       	adiw	r28, 0x06	; 6
    1be6:	0f b6       	in	r0, 0x3f	; 63
    1be8:	f8 94       	cli
    1bea:	de bf       	out	0x3e, r29	; 62
    1bec:	0f be       	out	0x3f, r0	; 63
    1bee:	cd bf       	out	0x3d, r28	; 61
    1bf0:	cf 91       	pop	r28
    1bf2:	df 91       	pop	r29
    1bf4:	08 95       	ret

00001bf6 <MDIO_stderrSetPinDirection>:

STD_error_t MDIO_stderrSetPinDirection(u8 ARG_u8Port, u8 ARG_u8Pin, u8 ARG_u8Direction)
{
    1bf6:	df 93       	push	r29
    1bf8:	cf 93       	push	r28
    1bfa:	cd b7       	in	r28, 0x3d	; 61
    1bfc:	de b7       	in	r29, 0x3e	; 62
    1bfe:	2a 97       	sbiw	r28, 0x0a	; 10
    1c00:	0f b6       	in	r0, 0x3f	; 63
    1c02:	f8 94       	cli
    1c04:	de bf       	out	0x3e, r29	; 62
    1c06:	0f be       	out	0x3f, r0	; 63
    1c08:	cd bf       	out	0x3d, r28	; 61
    1c0a:	8a 83       	std	Y+2, r24	; 0x02
    1c0c:	6b 83       	std	Y+3, r22	; 0x03
    1c0e:	4c 83       	std	Y+4, r20	; 0x04
	STD_error_t L_stderrError = E_OK;
    1c10:	19 82       	std	Y+1, r1	; 0x01
	if((ARG_u8Pin>=MDIO_PIN0) && (ARG_u8Pin<=MDIO_PIN7))
    1c12:	8b 81       	ldd	r24, Y+3	; 0x03
    1c14:	88 30       	cpi	r24, 0x08	; 8
    1c16:	08 f0       	brcs	.+2      	; 0x1c1a <MDIO_stderrSetPinDirection+0x24>
    1c18:	d9 c1       	rjmp	.+946    	; 0x1fcc <MDIO_stderrSetPinDirection+0x3d6>
	{
		if(MDIO_OUTPUT == ARG_u8Direction)
    1c1a:	8c 81       	ldd	r24, Y+4	; 0x04
    1c1c:	81 30       	cpi	r24, 0x01	; 1
    1c1e:	09 f0       	breq	.+2      	; 0x1c22 <MDIO_stderrSetPinDirection+0x2c>
    1c20:	7c c0       	rjmp	.+248    	; 0x1d1a <MDIO_stderrSetPinDirection+0x124>
		{
			switch(ARG_u8Port)
    1c22:	8a 81       	ldd	r24, Y+2	; 0x02
    1c24:	28 2f       	mov	r18, r24
    1c26:	30 e0       	ldi	r19, 0x00	; 0
    1c28:	3a 87       	std	Y+10, r19	; 0x0a
    1c2a:	29 87       	std	Y+9, r18	; 0x09
    1c2c:	89 85       	ldd	r24, Y+9	; 0x09
    1c2e:	9a 85       	ldd	r25, Y+10	; 0x0a
    1c30:	82 30       	cpi	r24, 0x02	; 2
    1c32:	91 05       	cpc	r25, r1
    1c34:	69 f1       	breq	.+90     	; 0x1c90 <MDIO_stderrSetPinDirection+0x9a>
    1c36:	29 85       	ldd	r18, Y+9	; 0x09
    1c38:	3a 85       	ldd	r19, Y+10	; 0x0a
    1c3a:	23 30       	cpi	r18, 0x03	; 3
    1c3c:	31 05       	cpc	r19, r1
    1c3e:	34 f4       	brge	.+12     	; 0x1c4c <MDIO_stderrSetPinDirection+0x56>
    1c40:	89 85       	ldd	r24, Y+9	; 0x09
    1c42:	9a 85       	ldd	r25, Y+10	; 0x0a
    1c44:	81 30       	cpi	r24, 0x01	; 1
    1c46:	91 05       	cpc	r25, r1
    1c48:	69 f0       	breq	.+26     	; 0x1c64 <MDIO_stderrSetPinDirection+0x6e>
    1c4a:	64 c0       	rjmp	.+200    	; 0x1d14 <MDIO_stderrSetPinDirection+0x11e>
    1c4c:	29 85       	ldd	r18, Y+9	; 0x09
    1c4e:	3a 85       	ldd	r19, Y+10	; 0x0a
    1c50:	23 30       	cpi	r18, 0x03	; 3
    1c52:	31 05       	cpc	r19, r1
    1c54:	99 f1       	breq	.+102    	; 0x1cbc <MDIO_stderrSetPinDirection+0xc6>
    1c56:	89 85       	ldd	r24, Y+9	; 0x09
    1c58:	9a 85       	ldd	r25, Y+10	; 0x0a
    1c5a:	84 30       	cpi	r24, 0x04	; 4
    1c5c:	91 05       	cpc	r25, r1
    1c5e:	09 f4       	brne	.+2      	; 0x1c62 <MDIO_stderrSetPinDirection+0x6c>
    1c60:	43 c0       	rjmp	.+134    	; 0x1ce8 <MDIO_stderrSetPinDirection+0xf2>
    1c62:	58 c0       	rjmp	.+176    	; 0x1d14 <MDIO_stderrSetPinDirection+0x11e>
			{
				case MDIO_PORTA: SET_BIT(GPIOA -> DDR, ARG_u8Pin); break;
    1c64:	a9 e3       	ldi	r26, 0x39	; 57
    1c66:	b0 e0       	ldi	r27, 0x00	; 0
    1c68:	e9 e3       	ldi	r30, 0x39	; 57
    1c6a:	f0 e0       	ldi	r31, 0x00	; 0
    1c6c:	81 81       	ldd	r24, Z+1	; 0x01
    1c6e:	48 2f       	mov	r20, r24
    1c70:	8b 81       	ldd	r24, Y+3	; 0x03
    1c72:	28 2f       	mov	r18, r24
    1c74:	30 e0       	ldi	r19, 0x00	; 0
    1c76:	81 e0       	ldi	r24, 0x01	; 1
    1c78:	90 e0       	ldi	r25, 0x00	; 0
    1c7a:	02 2e       	mov	r0, r18
    1c7c:	02 c0       	rjmp	.+4      	; 0x1c82 <MDIO_stderrSetPinDirection+0x8c>
    1c7e:	88 0f       	add	r24, r24
    1c80:	99 1f       	adc	r25, r25
    1c82:	0a 94       	dec	r0
    1c84:	e2 f7       	brpl	.-8      	; 0x1c7e <MDIO_stderrSetPinDirection+0x88>
    1c86:	84 2b       	or	r24, r20
    1c88:	11 96       	adiw	r26, 0x01	; 1
    1c8a:	8c 93       	st	X, r24
    1c8c:	11 97       	sbiw	r26, 0x01	; 1
    1c8e:	a0 c1       	rjmp	.+832    	; 0x1fd0 <MDIO_stderrSetPinDirection+0x3da>
				case MDIO_PORTB: SET_BIT(GPIOB -> DDR, ARG_u8Pin); break;
    1c90:	a6 e3       	ldi	r26, 0x36	; 54
    1c92:	b0 e0       	ldi	r27, 0x00	; 0
    1c94:	e6 e3       	ldi	r30, 0x36	; 54
    1c96:	f0 e0       	ldi	r31, 0x00	; 0
    1c98:	81 81       	ldd	r24, Z+1	; 0x01
    1c9a:	48 2f       	mov	r20, r24
    1c9c:	8b 81       	ldd	r24, Y+3	; 0x03
    1c9e:	28 2f       	mov	r18, r24
    1ca0:	30 e0       	ldi	r19, 0x00	; 0
    1ca2:	81 e0       	ldi	r24, 0x01	; 1
    1ca4:	90 e0       	ldi	r25, 0x00	; 0
    1ca6:	02 2e       	mov	r0, r18
    1ca8:	02 c0       	rjmp	.+4      	; 0x1cae <MDIO_stderrSetPinDirection+0xb8>
    1caa:	88 0f       	add	r24, r24
    1cac:	99 1f       	adc	r25, r25
    1cae:	0a 94       	dec	r0
    1cb0:	e2 f7       	brpl	.-8      	; 0x1caa <MDIO_stderrSetPinDirection+0xb4>
    1cb2:	84 2b       	or	r24, r20
    1cb4:	11 96       	adiw	r26, 0x01	; 1
    1cb6:	8c 93       	st	X, r24
    1cb8:	11 97       	sbiw	r26, 0x01	; 1
    1cba:	8a c1       	rjmp	.+788    	; 0x1fd0 <MDIO_stderrSetPinDirection+0x3da>
				case MDIO_PORTC: SET_BIT(GPIOC -> DDR, ARG_u8Pin); break;
    1cbc:	a3 e3       	ldi	r26, 0x33	; 51
    1cbe:	b0 e0       	ldi	r27, 0x00	; 0
    1cc0:	e3 e3       	ldi	r30, 0x33	; 51
    1cc2:	f0 e0       	ldi	r31, 0x00	; 0
    1cc4:	81 81       	ldd	r24, Z+1	; 0x01
    1cc6:	48 2f       	mov	r20, r24
    1cc8:	8b 81       	ldd	r24, Y+3	; 0x03
    1cca:	28 2f       	mov	r18, r24
    1ccc:	30 e0       	ldi	r19, 0x00	; 0
    1cce:	81 e0       	ldi	r24, 0x01	; 1
    1cd0:	90 e0       	ldi	r25, 0x00	; 0
    1cd2:	02 2e       	mov	r0, r18
    1cd4:	02 c0       	rjmp	.+4      	; 0x1cda <MDIO_stderrSetPinDirection+0xe4>
    1cd6:	88 0f       	add	r24, r24
    1cd8:	99 1f       	adc	r25, r25
    1cda:	0a 94       	dec	r0
    1cdc:	e2 f7       	brpl	.-8      	; 0x1cd6 <MDIO_stderrSetPinDirection+0xe0>
    1cde:	84 2b       	or	r24, r20
    1ce0:	11 96       	adiw	r26, 0x01	; 1
    1ce2:	8c 93       	st	X, r24
    1ce4:	11 97       	sbiw	r26, 0x01	; 1
    1ce6:	74 c1       	rjmp	.+744    	; 0x1fd0 <MDIO_stderrSetPinDirection+0x3da>
				case MDIO_PORTD: SET_BIT(GPIOD -> DDR, ARG_u8Pin); break;
    1ce8:	a0 e3       	ldi	r26, 0x30	; 48
    1cea:	b0 e0       	ldi	r27, 0x00	; 0
    1cec:	e0 e3       	ldi	r30, 0x30	; 48
    1cee:	f0 e0       	ldi	r31, 0x00	; 0
    1cf0:	81 81       	ldd	r24, Z+1	; 0x01
    1cf2:	48 2f       	mov	r20, r24
    1cf4:	8b 81       	ldd	r24, Y+3	; 0x03
    1cf6:	28 2f       	mov	r18, r24
    1cf8:	30 e0       	ldi	r19, 0x00	; 0
    1cfa:	81 e0       	ldi	r24, 0x01	; 1
    1cfc:	90 e0       	ldi	r25, 0x00	; 0
    1cfe:	02 2e       	mov	r0, r18
    1d00:	02 c0       	rjmp	.+4      	; 0x1d06 <MDIO_stderrSetPinDirection+0x110>
    1d02:	88 0f       	add	r24, r24
    1d04:	99 1f       	adc	r25, r25
    1d06:	0a 94       	dec	r0
    1d08:	e2 f7       	brpl	.-8      	; 0x1d02 <MDIO_stderrSetPinDirection+0x10c>
    1d0a:	84 2b       	or	r24, r20
    1d0c:	11 96       	adiw	r26, 0x01	; 1
    1d0e:	8c 93       	st	X, r24
    1d10:	11 97       	sbiw	r26, 0x01	; 1
    1d12:	5e c1       	rjmp	.+700    	; 0x1fd0 <MDIO_stderrSetPinDirection+0x3da>
				default: L_stderrError = E_NOK; break; /* Report an Error */
    1d14:	81 e0       	ldi	r24, 0x01	; 1
    1d16:	89 83       	std	Y+1, r24	; 0x01
    1d18:	5b c1       	rjmp	.+694    	; 0x1fd0 <MDIO_stderrSetPinDirection+0x3da>
			}
		}
		else if(MDIO_INPUT == ARG_u8Direction)
    1d1a:	8c 81       	ldd	r24, Y+4	; 0x04
    1d1c:	82 30       	cpi	r24, 0x02	; 2
    1d1e:	09 f0       	breq	.+2      	; 0x1d22 <MDIO_stderrSetPinDirection+0x12c>
    1d20:	80 c0       	rjmp	.+256    	; 0x1e22 <MDIO_stderrSetPinDirection+0x22c>
		{
			switch(ARG_u8Port)
    1d22:	8a 81       	ldd	r24, Y+2	; 0x02
    1d24:	28 2f       	mov	r18, r24
    1d26:	30 e0       	ldi	r19, 0x00	; 0
    1d28:	38 87       	std	Y+8, r19	; 0x08
    1d2a:	2f 83       	std	Y+7, r18	; 0x07
    1d2c:	8f 81       	ldd	r24, Y+7	; 0x07
    1d2e:	98 85       	ldd	r25, Y+8	; 0x08
    1d30:	82 30       	cpi	r24, 0x02	; 2
    1d32:	91 05       	cpc	r25, r1
    1d34:	71 f1       	breq	.+92     	; 0x1d92 <MDIO_stderrSetPinDirection+0x19c>
    1d36:	2f 81       	ldd	r18, Y+7	; 0x07
    1d38:	38 85       	ldd	r19, Y+8	; 0x08
    1d3a:	23 30       	cpi	r18, 0x03	; 3
    1d3c:	31 05       	cpc	r19, r1
    1d3e:	34 f4       	brge	.+12     	; 0x1d4c <MDIO_stderrSetPinDirection+0x156>
    1d40:	8f 81       	ldd	r24, Y+7	; 0x07
    1d42:	98 85       	ldd	r25, Y+8	; 0x08
    1d44:	81 30       	cpi	r24, 0x01	; 1
    1d46:	91 05       	cpc	r25, r1
    1d48:	69 f0       	breq	.+26     	; 0x1d64 <MDIO_stderrSetPinDirection+0x16e>
    1d4a:	68 c0       	rjmp	.+208    	; 0x1e1c <MDIO_stderrSetPinDirection+0x226>
    1d4c:	2f 81       	ldd	r18, Y+7	; 0x07
    1d4e:	38 85       	ldd	r19, Y+8	; 0x08
    1d50:	23 30       	cpi	r18, 0x03	; 3
    1d52:	31 05       	cpc	r19, r1
    1d54:	a9 f1       	breq	.+106    	; 0x1dc0 <MDIO_stderrSetPinDirection+0x1ca>
    1d56:	8f 81       	ldd	r24, Y+7	; 0x07
    1d58:	98 85       	ldd	r25, Y+8	; 0x08
    1d5a:	84 30       	cpi	r24, 0x04	; 4
    1d5c:	91 05       	cpc	r25, r1
    1d5e:	09 f4       	brne	.+2      	; 0x1d62 <MDIO_stderrSetPinDirection+0x16c>
    1d60:	46 c0       	rjmp	.+140    	; 0x1dee <MDIO_stderrSetPinDirection+0x1f8>
    1d62:	5c c0       	rjmp	.+184    	; 0x1e1c <MDIO_stderrSetPinDirection+0x226>
			{
				case MDIO_PORTA: CLEAR_BIT(GPIOA -> DDR, ARG_u8Pin); break;
    1d64:	a9 e3       	ldi	r26, 0x39	; 57
    1d66:	b0 e0       	ldi	r27, 0x00	; 0
    1d68:	e9 e3       	ldi	r30, 0x39	; 57
    1d6a:	f0 e0       	ldi	r31, 0x00	; 0
    1d6c:	81 81       	ldd	r24, Z+1	; 0x01
    1d6e:	48 2f       	mov	r20, r24
    1d70:	8b 81       	ldd	r24, Y+3	; 0x03
    1d72:	28 2f       	mov	r18, r24
    1d74:	30 e0       	ldi	r19, 0x00	; 0
    1d76:	81 e0       	ldi	r24, 0x01	; 1
    1d78:	90 e0       	ldi	r25, 0x00	; 0
    1d7a:	02 2e       	mov	r0, r18
    1d7c:	02 c0       	rjmp	.+4      	; 0x1d82 <MDIO_stderrSetPinDirection+0x18c>
    1d7e:	88 0f       	add	r24, r24
    1d80:	99 1f       	adc	r25, r25
    1d82:	0a 94       	dec	r0
    1d84:	e2 f7       	brpl	.-8      	; 0x1d7e <MDIO_stderrSetPinDirection+0x188>
    1d86:	80 95       	com	r24
    1d88:	84 23       	and	r24, r20
    1d8a:	11 96       	adiw	r26, 0x01	; 1
    1d8c:	8c 93       	st	X, r24
    1d8e:	11 97       	sbiw	r26, 0x01	; 1
    1d90:	1f c1       	rjmp	.+574    	; 0x1fd0 <MDIO_stderrSetPinDirection+0x3da>
				case MDIO_PORTB: CLEAR_BIT(GPIOB -> DDR, ARG_u8Pin); break;
    1d92:	a6 e3       	ldi	r26, 0x36	; 54
    1d94:	b0 e0       	ldi	r27, 0x00	; 0
    1d96:	e6 e3       	ldi	r30, 0x36	; 54
    1d98:	f0 e0       	ldi	r31, 0x00	; 0
    1d9a:	81 81       	ldd	r24, Z+1	; 0x01
    1d9c:	48 2f       	mov	r20, r24
    1d9e:	8b 81       	ldd	r24, Y+3	; 0x03
    1da0:	28 2f       	mov	r18, r24
    1da2:	30 e0       	ldi	r19, 0x00	; 0
    1da4:	81 e0       	ldi	r24, 0x01	; 1
    1da6:	90 e0       	ldi	r25, 0x00	; 0
    1da8:	02 2e       	mov	r0, r18
    1daa:	02 c0       	rjmp	.+4      	; 0x1db0 <MDIO_stderrSetPinDirection+0x1ba>
    1dac:	88 0f       	add	r24, r24
    1dae:	99 1f       	adc	r25, r25
    1db0:	0a 94       	dec	r0
    1db2:	e2 f7       	brpl	.-8      	; 0x1dac <MDIO_stderrSetPinDirection+0x1b6>
    1db4:	80 95       	com	r24
    1db6:	84 23       	and	r24, r20
    1db8:	11 96       	adiw	r26, 0x01	; 1
    1dba:	8c 93       	st	X, r24
    1dbc:	11 97       	sbiw	r26, 0x01	; 1
    1dbe:	08 c1       	rjmp	.+528    	; 0x1fd0 <MDIO_stderrSetPinDirection+0x3da>
				case MDIO_PORTC: CLEAR_BIT(GPIOC -> DDR, ARG_u8Pin); break;
    1dc0:	a3 e3       	ldi	r26, 0x33	; 51
    1dc2:	b0 e0       	ldi	r27, 0x00	; 0
    1dc4:	e3 e3       	ldi	r30, 0x33	; 51
    1dc6:	f0 e0       	ldi	r31, 0x00	; 0
    1dc8:	81 81       	ldd	r24, Z+1	; 0x01
    1dca:	48 2f       	mov	r20, r24
    1dcc:	8b 81       	ldd	r24, Y+3	; 0x03
    1dce:	28 2f       	mov	r18, r24
    1dd0:	30 e0       	ldi	r19, 0x00	; 0
    1dd2:	81 e0       	ldi	r24, 0x01	; 1
    1dd4:	90 e0       	ldi	r25, 0x00	; 0
    1dd6:	02 2e       	mov	r0, r18
    1dd8:	02 c0       	rjmp	.+4      	; 0x1dde <MDIO_stderrSetPinDirection+0x1e8>
    1dda:	88 0f       	add	r24, r24
    1ddc:	99 1f       	adc	r25, r25
    1dde:	0a 94       	dec	r0
    1de0:	e2 f7       	brpl	.-8      	; 0x1dda <MDIO_stderrSetPinDirection+0x1e4>
    1de2:	80 95       	com	r24
    1de4:	84 23       	and	r24, r20
    1de6:	11 96       	adiw	r26, 0x01	; 1
    1de8:	8c 93       	st	X, r24
    1dea:	11 97       	sbiw	r26, 0x01	; 1
    1dec:	f1 c0       	rjmp	.+482    	; 0x1fd0 <MDIO_stderrSetPinDirection+0x3da>
				case MDIO_PORTD: CLEAR_BIT(GPIOD -> DDR, ARG_u8Pin); break;
    1dee:	a0 e3       	ldi	r26, 0x30	; 48
    1df0:	b0 e0       	ldi	r27, 0x00	; 0
    1df2:	e0 e3       	ldi	r30, 0x30	; 48
    1df4:	f0 e0       	ldi	r31, 0x00	; 0
    1df6:	81 81       	ldd	r24, Z+1	; 0x01
    1df8:	48 2f       	mov	r20, r24
    1dfa:	8b 81       	ldd	r24, Y+3	; 0x03
    1dfc:	28 2f       	mov	r18, r24
    1dfe:	30 e0       	ldi	r19, 0x00	; 0
    1e00:	81 e0       	ldi	r24, 0x01	; 1
    1e02:	90 e0       	ldi	r25, 0x00	; 0
    1e04:	02 2e       	mov	r0, r18
    1e06:	02 c0       	rjmp	.+4      	; 0x1e0c <MDIO_stderrSetPinDirection+0x216>
    1e08:	88 0f       	add	r24, r24
    1e0a:	99 1f       	adc	r25, r25
    1e0c:	0a 94       	dec	r0
    1e0e:	e2 f7       	brpl	.-8      	; 0x1e08 <MDIO_stderrSetPinDirection+0x212>
    1e10:	80 95       	com	r24
    1e12:	84 23       	and	r24, r20
    1e14:	11 96       	adiw	r26, 0x01	; 1
    1e16:	8c 93       	st	X, r24
    1e18:	11 97       	sbiw	r26, 0x01	; 1
    1e1a:	da c0       	rjmp	.+436    	; 0x1fd0 <MDIO_stderrSetPinDirection+0x3da>
				default: L_stderrError = E_NOK; break; /* Report an Error */
    1e1c:	81 e0       	ldi	r24, 0x01	; 1
    1e1e:	89 83       	std	Y+1, r24	; 0x01
    1e20:	d7 c0       	rjmp	.+430    	; 0x1fd0 <MDIO_stderrSetPinDirection+0x3da>
			}
		}
		else if(MDIO_INPUT_PULLUP == ARG_u8Direction)
    1e22:	8c 81       	ldd	r24, Y+4	; 0x04
    1e24:	83 30       	cpi	r24, 0x03	; 3
    1e26:	09 f0       	breq	.+2      	; 0x1e2a <MDIO_stderrSetPinDirection+0x234>
    1e28:	ce c0       	rjmp	.+412    	; 0x1fc6 <MDIO_stderrSetPinDirection+0x3d0>
		{
			switch(ARG_u8Port)
    1e2a:	8a 81       	ldd	r24, Y+2	; 0x02
    1e2c:	28 2f       	mov	r18, r24
    1e2e:	30 e0       	ldi	r19, 0x00	; 0
    1e30:	3e 83       	std	Y+6, r19	; 0x06
    1e32:	2d 83       	std	Y+5, r18	; 0x05
    1e34:	8d 81       	ldd	r24, Y+5	; 0x05
    1e36:	9e 81       	ldd	r25, Y+6	; 0x06
    1e38:	82 30       	cpi	r24, 0x02	; 2
    1e3a:	91 05       	cpc	r25, r1
    1e3c:	09 f4       	brne	.+2      	; 0x1e40 <MDIO_stderrSetPinDirection+0x24a>
    1e3e:	42 c0       	rjmp	.+132    	; 0x1ec4 <MDIO_stderrSetPinDirection+0x2ce>
    1e40:	2d 81       	ldd	r18, Y+5	; 0x05
    1e42:	3e 81       	ldd	r19, Y+6	; 0x06
    1e44:	23 30       	cpi	r18, 0x03	; 3
    1e46:	31 05       	cpc	r19, r1
    1e48:	34 f4       	brge	.+12     	; 0x1e56 <MDIO_stderrSetPinDirection+0x260>
    1e4a:	8d 81       	ldd	r24, Y+5	; 0x05
    1e4c:	9e 81       	ldd	r25, Y+6	; 0x06
    1e4e:	81 30       	cpi	r24, 0x01	; 1
    1e50:	91 05       	cpc	r25, r1
    1e52:	71 f0       	breq	.+28     	; 0x1e70 <MDIO_stderrSetPinDirection+0x27a>
    1e54:	b5 c0       	rjmp	.+362    	; 0x1fc0 <MDIO_stderrSetPinDirection+0x3ca>
    1e56:	2d 81       	ldd	r18, Y+5	; 0x05
    1e58:	3e 81       	ldd	r19, Y+6	; 0x06
    1e5a:	23 30       	cpi	r18, 0x03	; 3
    1e5c:	31 05       	cpc	r19, r1
    1e5e:	09 f4       	brne	.+2      	; 0x1e62 <MDIO_stderrSetPinDirection+0x26c>
    1e60:	5b c0       	rjmp	.+182    	; 0x1f18 <MDIO_stderrSetPinDirection+0x322>
    1e62:	8d 81       	ldd	r24, Y+5	; 0x05
    1e64:	9e 81       	ldd	r25, Y+6	; 0x06
    1e66:	84 30       	cpi	r24, 0x04	; 4
    1e68:	91 05       	cpc	r25, r1
    1e6a:	09 f4       	brne	.+2      	; 0x1e6e <MDIO_stderrSetPinDirection+0x278>
    1e6c:	7f c0       	rjmp	.+254    	; 0x1f6c <MDIO_stderrSetPinDirection+0x376>
    1e6e:	a8 c0       	rjmp	.+336    	; 0x1fc0 <MDIO_stderrSetPinDirection+0x3ca>
			{
				case MDIO_PORTA: CLEAR_BIT(GPIOA -> DDR, ARG_u8Pin); SET_BIT(GPIOA -> PORT, ARG_u8Pin); break;
    1e70:	a9 e3       	ldi	r26, 0x39	; 57
    1e72:	b0 e0       	ldi	r27, 0x00	; 0
    1e74:	e9 e3       	ldi	r30, 0x39	; 57
    1e76:	f0 e0       	ldi	r31, 0x00	; 0
    1e78:	81 81       	ldd	r24, Z+1	; 0x01
    1e7a:	48 2f       	mov	r20, r24
    1e7c:	8b 81       	ldd	r24, Y+3	; 0x03
    1e7e:	28 2f       	mov	r18, r24
    1e80:	30 e0       	ldi	r19, 0x00	; 0
    1e82:	81 e0       	ldi	r24, 0x01	; 1
    1e84:	90 e0       	ldi	r25, 0x00	; 0
    1e86:	02 c0       	rjmp	.+4      	; 0x1e8c <MDIO_stderrSetPinDirection+0x296>
    1e88:	88 0f       	add	r24, r24
    1e8a:	99 1f       	adc	r25, r25
    1e8c:	2a 95       	dec	r18
    1e8e:	e2 f7       	brpl	.-8      	; 0x1e88 <MDIO_stderrSetPinDirection+0x292>
    1e90:	80 95       	com	r24
    1e92:	84 23       	and	r24, r20
    1e94:	11 96       	adiw	r26, 0x01	; 1
    1e96:	8c 93       	st	X, r24
    1e98:	a9 e3       	ldi	r26, 0x39	; 57
    1e9a:	b0 e0       	ldi	r27, 0x00	; 0
    1e9c:	e9 e3       	ldi	r30, 0x39	; 57
    1e9e:	f0 e0       	ldi	r31, 0x00	; 0
    1ea0:	82 81       	ldd	r24, Z+2	; 0x02
    1ea2:	48 2f       	mov	r20, r24
    1ea4:	8b 81       	ldd	r24, Y+3	; 0x03
    1ea6:	28 2f       	mov	r18, r24
    1ea8:	30 e0       	ldi	r19, 0x00	; 0
    1eaa:	81 e0       	ldi	r24, 0x01	; 1
    1eac:	90 e0       	ldi	r25, 0x00	; 0
    1eae:	02 2e       	mov	r0, r18
    1eb0:	02 c0       	rjmp	.+4      	; 0x1eb6 <MDIO_stderrSetPinDirection+0x2c0>
    1eb2:	88 0f       	add	r24, r24
    1eb4:	99 1f       	adc	r25, r25
    1eb6:	0a 94       	dec	r0
    1eb8:	e2 f7       	brpl	.-8      	; 0x1eb2 <MDIO_stderrSetPinDirection+0x2bc>
    1eba:	84 2b       	or	r24, r20
    1ebc:	12 96       	adiw	r26, 0x02	; 2
    1ebe:	8c 93       	st	X, r24
    1ec0:	12 97       	sbiw	r26, 0x02	; 2
    1ec2:	86 c0       	rjmp	.+268    	; 0x1fd0 <MDIO_stderrSetPinDirection+0x3da>
				case MDIO_PORTB: CLEAR_BIT(GPIOB -> DDR, ARG_u8Pin); SET_BIT(GPIOB -> PORT, ARG_u8Pin); break;
    1ec4:	a6 e3       	ldi	r26, 0x36	; 54
    1ec6:	b0 e0       	ldi	r27, 0x00	; 0
    1ec8:	e6 e3       	ldi	r30, 0x36	; 54
    1eca:	f0 e0       	ldi	r31, 0x00	; 0
    1ecc:	81 81       	ldd	r24, Z+1	; 0x01
    1ece:	48 2f       	mov	r20, r24
    1ed0:	8b 81       	ldd	r24, Y+3	; 0x03
    1ed2:	28 2f       	mov	r18, r24
    1ed4:	30 e0       	ldi	r19, 0x00	; 0
    1ed6:	81 e0       	ldi	r24, 0x01	; 1
    1ed8:	90 e0       	ldi	r25, 0x00	; 0
    1eda:	02 c0       	rjmp	.+4      	; 0x1ee0 <MDIO_stderrSetPinDirection+0x2ea>
    1edc:	88 0f       	add	r24, r24
    1ede:	99 1f       	adc	r25, r25
    1ee0:	2a 95       	dec	r18
    1ee2:	e2 f7       	brpl	.-8      	; 0x1edc <MDIO_stderrSetPinDirection+0x2e6>
    1ee4:	80 95       	com	r24
    1ee6:	84 23       	and	r24, r20
    1ee8:	11 96       	adiw	r26, 0x01	; 1
    1eea:	8c 93       	st	X, r24
    1eec:	a6 e3       	ldi	r26, 0x36	; 54
    1eee:	b0 e0       	ldi	r27, 0x00	; 0
    1ef0:	e6 e3       	ldi	r30, 0x36	; 54
    1ef2:	f0 e0       	ldi	r31, 0x00	; 0
    1ef4:	82 81       	ldd	r24, Z+2	; 0x02
    1ef6:	48 2f       	mov	r20, r24
    1ef8:	8b 81       	ldd	r24, Y+3	; 0x03
    1efa:	28 2f       	mov	r18, r24
    1efc:	30 e0       	ldi	r19, 0x00	; 0
    1efe:	81 e0       	ldi	r24, 0x01	; 1
    1f00:	90 e0       	ldi	r25, 0x00	; 0
    1f02:	02 2e       	mov	r0, r18
    1f04:	02 c0       	rjmp	.+4      	; 0x1f0a <MDIO_stderrSetPinDirection+0x314>
    1f06:	88 0f       	add	r24, r24
    1f08:	99 1f       	adc	r25, r25
    1f0a:	0a 94       	dec	r0
    1f0c:	e2 f7       	brpl	.-8      	; 0x1f06 <MDIO_stderrSetPinDirection+0x310>
    1f0e:	84 2b       	or	r24, r20
    1f10:	12 96       	adiw	r26, 0x02	; 2
    1f12:	8c 93       	st	X, r24
    1f14:	12 97       	sbiw	r26, 0x02	; 2
    1f16:	5c c0       	rjmp	.+184    	; 0x1fd0 <MDIO_stderrSetPinDirection+0x3da>
				case MDIO_PORTC: CLEAR_BIT(GPIOC -> DDR, ARG_u8Pin); SET_BIT(GPIOC -> PORT, ARG_u8Pin); break;
    1f18:	a3 e3       	ldi	r26, 0x33	; 51
    1f1a:	b0 e0       	ldi	r27, 0x00	; 0
    1f1c:	e3 e3       	ldi	r30, 0x33	; 51
    1f1e:	f0 e0       	ldi	r31, 0x00	; 0
    1f20:	81 81       	ldd	r24, Z+1	; 0x01
    1f22:	48 2f       	mov	r20, r24
    1f24:	8b 81       	ldd	r24, Y+3	; 0x03
    1f26:	28 2f       	mov	r18, r24
    1f28:	30 e0       	ldi	r19, 0x00	; 0
    1f2a:	81 e0       	ldi	r24, 0x01	; 1
    1f2c:	90 e0       	ldi	r25, 0x00	; 0
    1f2e:	02 c0       	rjmp	.+4      	; 0x1f34 <MDIO_stderrSetPinDirection+0x33e>
    1f30:	88 0f       	add	r24, r24
    1f32:	99 1f       	adc	r25, r25
    1f34:	2a 95       	dec	r18
    1f36:	e2 f7       	brpl	.-8      	; 0x1f30 <MDIO_stderrSetPinDirection+0x33a>
    1f38:	80 95       	com	r24
    1f3a:	84 23       	and	r24, r20
    1f3c:	11 96       	adiw	r26, 0x01	; 1
    1f3e:	8c 93       	st	X, r24
    1f40:	a3 e3       	ldi	r26, 0x33	; 51
    1f42:	b0 e0       	ldi	r27, 0x00	; 0
    1f44:	e3 e3       	ldi	r30, 0x33	; 51
    1f46:	f0 e0       	ldi	r31, 0x00	; 0
    1f48:	82 81       	ldd	r24, Z+2	; 0x02
    1f4a:	48 2f       	mov	r20, r24
    1f4c:	8b 81       	ldd	r24, Y+3	; 0x03
    1f4e:	28 2f       	mov	r18, r24
    1f50:	30 e0       	ldi	r19, 0x00	; 0
    1f52:	81 e0       	ldi	r24, 0x01	; 1
    1f54:	90 e0       	ldi	r25, 0x00	; 0
    1f56:	02 2e       	mov	r0, r18
    1f58:	02 c0       	rjmp	.+4      	; 0x1f5e <MDIO_stderrSetPinDirection+0x368>
    1f5a:	88 0f       	add	r24, r24
    1f5c:	99 1f       	adc	r25, r25
    1f5e:	0a 94       	dec	r0
    1f60:	e2 f7       	brpl	.-8      	; 0x1f5a <MDIO_stderrSetPinDirection+0x364>
    1f62:	84 2b       	or	r24, r20
    1f64:	12 96       	adiw	r26, 0x02	; 2
    1f66:	8c 93       	st	X, r24
    1f68:	12 97       	sbiw	r26, 0x02	; 2
    1f6a:	32 c0       	rjmp	.+100    	; 0x1fd0 <MDIO_stderrSetPinDirection+0x3da>
				case MDIO_PORTD: CLEAR_BIT(GPIOD -> DDR, ARG_u8Pin); SET_BIT(GPIOD -> PORT, ARG_u8Pin); break;
    1f6c:	a0 e3       	ldi	r26, 0x30	; 48
    1f6e:	b0 e0       	ldi	r27, 0x00	; 0
    1f70:	e0 e3       	ldi	r30, 0x30	; 48
    1f72:	f0 e0       	ldi	r31, 0x00	; 0
    1f74:	81 81       	ldd	r24, Z+1	; 0x01
    1f76:	48 2f       	mov	r20, r24
    1f78:	8b 81       	ldd	r24, Y+3	; 0x03
    1f7a:	28 2f       	mov	r18, r24
    1f7c:	30 e0       	ldi	r19, 0x00	; 0
    1f7e:	81 e0       	ldi	r24, 0x01	; 1
    1f80:	90 e0       	ldi	r25, 0x00	; 0
    1f82:	02 c0       	rjmp	.+4      	; 0x1f88 <MDIO_stderrSetPinDirection+0x392>
    1f84:	88 0f       	add	r24, r24
    1f86:	99 1f       	adc	r25, r25
    1f88:	2a 95       	dec	r18
    1f8a:	e2 f7       	brpl	.-8      	; 0x1f84 <MDIO_stderrSetPinDirection+0x38e>
    1f8c:	80 95       	com	r24
    1f8e:	84 23       	and	r24, r20
    1f90:	11 96       	adiw	r26, 0x01	; 1
    1f92:	8c 93       	st	X, r24
    1f94:	a0 e3       	ldi	r26, 0x30	; 48
    1f96:	b0 e0       	ldi	r27, 0x00	; 0
    1f98:	e0 e3       	ldi	r30, 0x30	; 48
    1f9a:	f0 e0       	ldi	r31, 0x00	; 0
    1f9c:	82 81       	ldd	r24, Z+2	; 0x02
    1f9e:	48 2f       	mov	r20, r24
    1fa0:	8b 81       	ldd	r24, Y+3	; 0x03
    1fa2:	28 2f       	mov	r18, r24
    1fa4:	30 e0       	ldi	r19, 0x00	; 0
    1fa6:	81 e0       	ldi	r24, 0x01	; 1
    1fa8:	90 e0       	ldi	r25, 0x00	; 0
    1faa:	02 2e       	mov	r0, r18
    1fac:	02 c0       	rjmp	.+4      	; 0x1fb2 <MDIO_stderrSetPinDirection+0x3bc>
    1fae:	88 0f       	add	r24, r24
    1fb0:	99 1f       	adc	r25, r25
    1fb2:	0a 94       	dec	r0
    1fb4:	e2 f7       	brpl	.-8      	; 0x1fae <MDIO_stderrSetPinDirection+0x3b8>
    1fb6:	84 2b       	or	r24, r20
    1fb8:	12 96       	adiw	r26, 0x02	; 2
    1fba:	8c 93       	st	X, r24
    1fbc:	12 97       	sbiw	r26, 0x02	; 2
    1fbe:	08 c0       	rjmp	.+16     	; 0x1fd0 <MDIO_stderrSetPinDirection+0x3da>
				default: L_stderrError = E_NOK; break; /* Report an Error */
    1fc0:	81 e0       	ldi	r24, 0x01	; 1
    1fc2:	89 83       	std	Y+1, r24	; 0x01
    1fc4:	05 c0       	rjmp	.+10     	; 0x1fd0 <MDIO_stderrSetPinDirection+0x3da>
			}
		}
		else
		{
			/* Report an Error */
			L_stderrError = E_NOK;
    1fc6:	81 e0       	ldi	r24, 0x01	; 1
    1fc8:	89 83       	std	Y+1, r24	; 0x01
    1fca:	02 c0       	rjmp	.+4      	; 0x1fd0 <MDIO_stderrSetPinDirection+0x3da>
		}
	}
	else
	{
		/* Report an Error */
		L_stderrError = E_NOK;
    1fcc:	81 e0       	ldi	r24, 0x01	; 1
    1fce:	89 83       	std	Y+1, r24	; 0x01
	}
	return L_stderrError;
    1fd0:	89 81       	ldd	r24, Y+1	; 0x01
}
    1fd2:	2a 96       	adiw	r28, 0x0a	; 10
    1fd4:	0f b6       	in	r0, 0x3f	; 63
    1fd6:	f8 94       	cli
    1fd8:	de bf       	out	0x3e, r29	; 62
    1fda:	0f be       	out	0x3f, r0	; 63
    1fdc:	cd bf       	out	0x3d, r28	; 61
    1fde:	cf 91       	pop	r28
    1fe0:	df 91       	pop	r29
    1fe2:	08 95       	ret

00001fe4 <MDIO_stderrSetPinValue>:

STD_error_t MDIO_stderrSetPinValue(u8 ARG_u8Port, u8 ARG_u8Pin, u8 ARG_u8Value)
{
    1fe4:	df 93       	push	r29
    1fe6:	cf 93       	push	r28
    1fe8:	cd b7       	in	r28, 0x3d	; 61
    1fea:	de b7       	in	r29, 0x3e	; 62
    1fec:	28 97       	sbiw	r28, 0x08	; 8
    1fee:	0f b6       	in	r0, 0x3f	; 63
    1ff0:	f8 94       	cli
    1ff2:	de bf       	out	0x3e, r29	; 62
    1ff4:	0f be       	out	0x3f, r0	; 63
    1ff6:	cd bf       	out	0x3d, r28	; 61
    1ff8:	8a 83       	std	Y+2, r24	; 0x02
    1ffa:	6b 83       	std	Y+3, r22	; 0x03
    1ffc:	4c 83       	std	Y+4, r20	; 0x04
	STD_error_t L_stderrError = E_OK;
    1ffe:	19 82       	std	Y+1, r1	; 0x01
	if((ARG_u8Pin>=MDIO_PIN0) && (ARG_u8Pin<=MDIO_PIN7))
    2000:	8b 81       	ldd	r24, Y+3	; 0x03
    2002:	88 30       	cpi	r24, 0x08	; 8
    2004:	08 f0       	brcs	.+2      	; 0x2008 <MDIO_stderrSetPinValue+0x24>
    2006:	07 c1       	rjmp	.+526    	; 0x2216 <MDIO_stderrSetPinValue+0x232>
	{
		if(MDIO_HIGH == ARG_u8Value)
    2008:	8c 81       	ldd	r24, Y+4	; 0x04
    200a:	82 30       	cpi	r24, 0x02	; 2
    200c:	09 f0       	breq	.+2      	; 0x2010 <MDIO_stderrSetPinValue+0x2c>
    200e:	7c c0       	rjmp	.+248    	; 0x2108 <MDIO_stderrSetPinValue+0x124>
		{
			switch(ARG_u8Port)
    2010:	8a 81       	ldd	r24, Y+2	; 0x02
    2012:	28 2f       	mov	r18, r24
    2014:	30 e0       	ldi	r19, 0x00	; 0
    2016:	38 87       	std	Y+8, r19	; 0x08
    2018:	2f 83       	std	Y+7, r18	; 0x07
    201a:	8f 81       	ldd	r24, Y+7	; 0x07
    201c:	98 85       	ldd	r25, Y+8	; 0x08
    201e:	82 30       	cpi	r24, 0x02	; 2
    2020:	91 05       	cpc	r25, r1
    2022:	69 f1       	breq	.+90     	; 0x207e <MDIO_stderrSetPinValue+0x9a>
    2024:	2f 81       	ldd	r18, Y+7	; 0x07
    2026:	38 85       	ldd	r19, Y+8	; 0x08
    2028:	23 30       	cpi	r18, 0x03	; 3
    202a:	31 05       	cpc	r19, r1
    202c:	34 f4       	brge	.+12     	; 0x203a <MDIO_stderrSetPinValue+0x56>
    202e:	8f 81       	ldd	r24, Y+7	; 0x07
    2030:	98 85       	ldd	r25, Y+8	; 0x08
    2032:	81 30       	cpi	r24, 0x01	; 1
    2034:	91 05       	cpc	r25, r1
    2036:	69 f0       	breq	.+26     	; 0x2052 <MDIO_stderrSetPinValue+0x6e>
    2038:	64 c0       	rjmp	.+200    	; 0x2102 <MDIO_stderrSetPinValue+0x11e>
    203a:	2f 81       	ldd	r18, Y+7	; 0x07
    203c:	38 85       	ldd	r19, Y+8	; 0x08
    203e:	23 30       	cpi	r18, 0x03	; 3
    2040:	31 05       	cpc	r19, r1
    2042:	99 f1       	breq	.+102    	; 0x20aa <MDIO_stderrSetPinValue+0xc6>
    2044:	8f 81       	ldd	r24, Y+7	; 0x07
    2046:	98 85       	ldd	r25, Y+8	; 0x08
    2048:	84 30       	cpi	r24, 0x04	; 4
    204a:	91 05       	cpc	r25, r1
    204c:	09 f4       	brne	.+2      	; 0x2050 <MDIO_stderrSetPinValue+0x6c>
    204e:	43 c0       	rjmp	.+134    	; 0x20d6 <MDIO_stderrSetPinValue+0xf2>
    2050:	58 c0       	rjmp	.+176    	; 0x2102 <MDIO_stderrSetPinValue+0x11e>
			{
				case MDIO_PORTA: SET_BIT(GPIOA -> PORT, ARG_u8Pin); break;
    2052:	a9 e3       	ldi	r26, 0x39	; 57
    2054:	b0 e0       	ldi	r27, 0x00	; 0
    2056:	e9 e3       	ldi	r30, 0x39	; 57
    2058:	f0 e0       	ldi	r31, 0x00	; 0
    205a:	82 81       	ldd	r24, Z+2	; 0x02
    205c:	48 2f       	mov	r20, r24
    205e:	8b 81       	ldd	r24, Y+3	; 0x03
    2060:	28 2f       	mov	r18, r24
    2062:	30 e0       	ldi	r19, 0x00	; 0
    2064:	81 e0       	ldi	r24, 0x01	; 1
    2066:	90 e0       	ldi	r25, 0x00	; 0
    2068:	02 2e       	mov	r0, r18
    206a:	02 c0       	rjmp	.+4      	; 0x2070 <MDIO_stderrSetPinValue+0x8c>
    206c:	88 0f       	add	r24, r24
    206e:	99 1f       	adc	r25, r25
    2070:	0a 94       	dec	r0
    2072:	e2 f7       	brpl	.-8      	; 0x206c <MDIO_stderrSetPinValue+0x88>
    2074:	84 2b       	or	r24, r20
    2076:	12 96       	adiw	r26, 0x02	; 2
    2078:	8c 93       	st	X, r24
    207a:	12 97       	sbiw	r26, 0x02	; 2
    207c:	ce c0       	rjmp	.+412    	; 0x221a <MDIO_stderrSetPinValue+0x236>
				case MDIO_PORTB: SET_BIT(GPIOB -> PORT, ARG_u8Pin); break;
    207e:	a6 e3       	ldi	r26, 0x36	; 54
    2080:	b0 e0       	ldi	r27, 0x00	; 0
    2082:	e6 e3       	ldi	r30, 0x36	; 54
    2084:	f0 e0       	ldi	r31, 0x00	; 0
    2086:	82 81       	ldd	r24, Z+2	; 0x02
    2088:	48 2f       	mov	r20, r24
    208a:	8b 81       	ldd	r24, Y+3	; 0x03
    208c:	28 2f       	mov	r18, r24
    208e:	30 e0       	ldi	r19, 0x00	; 0
    2090:	81 e0       	ldi	r24, 0x01	; 1
    2092:	90 e0       	ldi	r25, 0x00	; 0
    2094:	02 2e       	mov	r0, r18
    2096:	02 c0       	rjmp	.+4      	; 0x209c <MDIO_stderrSetPinValue+0xb8>
    2098:	88 0f       	add	r24, r24
    209a:	99 1f       	adc	r25, r25
    209c:	0a 94       	dec	r0
    209e:	e2 f7       	brpl	.-8      	; 0x2098 <MDIO_stderrSetPinValue+0xb4>
    20a0:	84 2b       	or	r24, r20
    20a2:	12 96       	adiw	r26, 0x02	; 2
    20a4:	8c 93       	st	X, r24
    20a6:	12 97       	sbiw	r26, 0x02	; 2
    20a8:	b8 c0       	rjmp	.+368    	; 0x221a <MDIO_stderrSetPinValue+0x236>
				case MDIO_PORTC: SET_BIT(GPIOC -> PORT, ARG_u8Pin); break;
    20aa:	a3 e3       	ldi	r26, 0x33	; 51
    20ac:	b0 e0       	ldi	r27, 0x00	; 0
    20ae:	e3 e3       	ldi	r30, 0x33	; 51
    20b0:	f0 e0       	ldi	r31, 0x00	; 0
    20b2:	82 81       	ldd	r24, Z+2	; 0x02
    20b4:	48 2f       	mov	r20, r24
    20b6:	8b 81       	ldd	r24, Y+3	; 0x03
    20b8:	28 2f       	mov	r18, r24
    20ba:	30 e0       	ldi	r19, 0x00	; 0
    20bc:	81 e0       	ldi	r24, 0x01	; 1
    20be:	90 e0       	ldi	r25, 0x00	; 0
    20c0:	02 2e       	mov	r0, r18
    20c2:	02 c0       	rjmp	.+4      	; 0x20c8 <MDIO_stderrSetPinValue+0xe4>
    20c4:	88 0f       	add	r24, r24
    20c6:	99 1f       	adc	r25, r25
    20c8:	0a 94       	dec	r0
    20ca:	e2 f7       	brpl	.-8      	; 0x20c4 <MDIO_stderrSetPinValue+0xe0>
    20cc:	84 2b       	or	r24, r20
    20ce:	12 96       	adiw	r26, 0x02	; 2
    20d0:	8c 93       	st	X, r24
    20d2:	12 97       	sbiw	r26, 0x02	; 2
    20d4:	a2 c0       	rjmp	.+324    	; 0x221a <MDIO_stderrSetPinValue+0x236>
				case MDIO_PORTD: SET_BIT(GPIOD -> PORT, ARG_u8Pin); break;
    20d6:	a0 e3       	ldi	r26, 0x30	; 48
    20d8:	b0 e0       	ldi	r27, 0x00	; 0
    20da:	e0 e3       	ldi	r30, 0x30	; 48
    20dc:	f0 e0       	ldi	r31, 0x00	; 0
    20de:	82 81       	ldd	r24, Z+2	; 0x02
    20e0:	48 2f       	mov	r20, r24
    20e2:	8b 81       	ldd	r24, Y+3	; 0x03
    20e4:	28 2f       	mov	r18, r24
    20e6:	30 e0       	ldi	r19, 0x00	; 0
    20e8:	81 e0       	ldi	r24, 0x01	; 1
    20ea:	90 e0       	ldi	r25, 0x00	; 0
    20ec:	02 2e       	mov	r0, r18
    20ee:	02 c0       	rjmp	.+4      	; 0x20f4 <MDIO_stderrSetPinValue+0x110>
    20f0:	88 0f       	add	r24, r24
    20f2:	99 1f       	adc	r25, r25
    20f4:	0a 94       	dec	r0
    20f6:	e2 f7       	brpl	.-8      	; 0x20f0 <MDIO_stderrSetPinValue+0x10c>
    20f8:	84 2b       	or	r24, r20
    20fa:	12 96       	adiw	r26, 0x02	; 2
    20fc:	8c 93       	st	X, r24
    20fe:	12 97       	sbiw	r26, 0x02	; 2
    2100:	8c c0       	rjmp	.+280    	; 0x221a <MDIO_stderrSetPinValue+0x236>
				default: L_stderrError = E_NOK; break; /* Report an Error */
    2102:	81 e0       	ldi	r24, 0x01	; 1
    2104:	89 83       	std	Y+1, r24	; 0x01
    2106:	89 c0       	rjmp	.+274    	; 0x221a <MDIO_stderrSetPinValue+0x236>
			}
		}
		else if(MDIO_LOW == ARG_u8Value)
    2108:	8c 81       	ldd	r24, Y+4	; 0x04
    210a:	81 30       	cpi	r24, 0x01	; 1
    210c:	09 f0       	breq	.+2      	; 0x2110 <MDIO_stderrSetPinValue+0x12c>
    210e:	80 c0       	rjmp	.+256    	; 0x2210 <MDIO_stderrSetPinValue+0x22c>
		{
			switch(ARG_u8Port)
    2110:	8a 81       	ldd	r24, Y+2	; 0x02
    2112:	28 2f       	mov	r18, r24
    2114:	30 e0       	ldi	r19, 0x00	; 0
    2116:	3e 83       	std	Y+6, r19	; 0x06
    2118:	2d 83       	std	Y+5, r18	; 0x05
    211a:	8d 81       	ldd	r24, Y+5	; 0x05
    211c:	9e 81       	ldd	r25, Y+6	; 0x06
    211e:	82 30       	cpi	r24, 0x02	; 2
    2120:	91 05       	cpc	r25, r1
    2122:	71 f1       	breq	.+92     	; 0x2180 <MDIO_stderrSetPinValue+0x19c>
    2124:	2d 81       	ldd	r18, Y+5	; 0x05
    2126:	3e 81       	ldd	r19, Y+6	; 0x06
    2128:	23 30       	cpi	r18, 0x03	; 3
    212a:	31 05       	cpc	r19, r1
    212c:	34 f4       	brge	.+12     	; 0x213a <MDIO_stderrSetPinValue+0x156>
    212e:	8d 81       	ldd	r24, Y+5	; 0x05
    2130:	9e 81       	ldd	r25, Y+6	; 0x06
    2132:	81 30       	cpi	r24, 0x01	; 1
    2134:	91 05       	cpc	r25, r1
    2136:	69 f0       	breq	.+26     	; 0x2152 <MDIO_stderrSetPinValue+0x16e>
    2138:	68 c0       	rjmp	.+208    	; 0x220a <MDIO_stderrSetPinValue+0x226>
    213a:	2d 81       	ldd	r18, Y+5	; 0x05
    213c:	3e 81       	ldd	r19, Y+6	; 0x06
    213e:	23 30       	cpi	r18, 0x03	; 3
    2140:	31 05       	cpc	r19, r1
    2142:	a9 f1       	breq	.+106    	; 0x21ae <MDIO_stderrSetPinValue+0x1ca>
    2144:	8d 81       	ldd	r24, Y+5	; 0x05
    2146:	9e 81       	ldd	r25, Y+6	; 0x06
    2148:	84 30       	cpi	r24, 0x04	; 4
    214a:	91 05       	cpc	r25, r1
    214c:	09 f4       	brne	.+2      	; 0x2150 <MDIO_stderrSetPinValue+0x16c>
    214e:	46 c0       	rjmp	.+140    	; 0x21dc <MDIO_stderrSetPinValue+0x1f8>
    2150:	5c c0       	rjmp	.+184    	; 0x220a <MDIO_stderrSetPinValue+0x226>
			{
				case MDIO_PORTA: CLEAR_BIT(GPIOA -> PORT, ARG_u8Pin); break;
    2152:	a9 e3       	ldi	r26, 0x39	; 57
    2154:	b0 e0       	ldi	r27, 0x00	; 0
    2156:	e9 e3       	ldi	r30, 0x39	; 57
    2158:	f0 e0       	ldi	r31, 0x00	; 0
    215a:	82 81       	ldd	r24, Z+2	; 0x02
    215c:	48 2f       	mov	r20, r24
    215e:	8b 81       	ldd	r24, Y+3	; 0x03
    2160:	28 2f       	mov	r18, r24
    2162:	30 e0       	ldi	r19, 0x00	; 0
    2164:	81 e0       	ldi	r24, 0x01	; 1
    2166:	90 e0       	ldi	r25, 0x00	; 0
    2168:	02 2e       	mov	r0, r18
    216a:	02 c0       	rjmp	.+4      	; 0x2170 <MDIO_stderrSetPinValue+0x18c>
    216c:	88 0f       	add	r24, r24
    216e:	99 1f       	adc	r25, r25
    2170:	0a 94       	dec	r0
    2172:	e2 f7       	brpl	.-8      	; 0x216c <MDIO_stderrSetPinValue+0x188>
    2174:	80 95       	com	r24
    2176:	84 23       	and	r24, r20
    2178:	12 96       	adiw	r26, 0x02	; 2
    217a:	8c 93       	st	X, r24
    217c:	12 97       	sbiw	r26, 0x02	; 2
    217e:	4d c0       	rjmp	.+154    	; 0x221a <MDIO_stderrSetPinValue+0x236>
				case MDIO_PORTB: CLEAR_BIT(GPIOB -> PORT, ARG_u8Pin); break;
    2180:	a6 e3       	ldi	r26, 0x36	; 54
    2182:	b0 e0       	ldi	r27, 0x00	; 0
    2184:	e6 e3       	ldi	r30, 0x36	; 54
    2186:	f0 e0       	ldi	r31, 0x00	; 0
    2188:	82 81       	ldd	r24, Z+2	; 0x02
    218a:	48 2f       	mov	r20, r24
    218c:	8b 81       	ldd	r24, Y+3	; 0x03
    218e:	28 2f       	mov	r18, r24
    2190:	30 e0       	ldi	r19, 0x00	; 0
    2192:	81 e0       	ldi	r24, 0x01	; 1
    2194:	90 e0       	ldi	r25, 0x00	; 0
    2196:	02 2e       	mov	r0, r18
    2198:	02 c0       	rjmp	.+4      	; 0x219e <MDIO_stderrSetPinValue+0x1ba>
    219a:	88 0f       	add	r24, r24
    219c:	99 1f       	adc	r25, r25
    219e:	0a 94       	dec	r0
    21a0:	e2 f7       	brpl	.-8      	; 0x219a <MDIO_stderrSetPinValue+0x1b6>
    21a2:	80 95       	com	r24
    21a4:	84 23       	and	r24, r20
    21a6:	12 96       	adiw	r26, 0x02	; 2
    21a8:	8c 93       	st	X, r24
    21aa:	12 97       	sbiw	r26, 0x02	; 2
    21ac:	36 c0       	rjmp	.+108    	; 0x221a <MDIO_stderrSetPinValue+0x236>
				case MDIO_PORTC: CLEAR_BIT(GPIOC -> PORT, ARG_u8Pin); break;
    21ae:	a3 e3       	ldi	r26, 0x33	; 51
    21b0:	b0 e0       	ldi	r27, 0x00	; 0
    21b2:	e3 e3       	ldi	r30, 0x33	; 51
    21b4:	f0 e0       	ldi	r31, 0x00	; 0
    21b6:	82 81       	ldd	r24, Z+2	; 0x02
    21b8:	48 2f       	mov	r20, r24
    21ba:	8b 81       	ldd	r24, Y+3	; 0x03
    21bc:	28 2f       	mov	r18, r24
    21be:	30 e0       	ldi	r19, 0x00	; 0
    21c0:	81 e0       	ldi	r24, 0x01	; 1
    21c2:	90 e0       	ldi	r25, 0x00	; 0
    21c4:	02 2e       	mov	r0, r18
    21c6:	02 c0       	rjmp	.+4      	; 0x21cc <MDIO_stderrSetPinValue+0x1e8>
    21c8:	88 0f       	add	r24, r24
    21ca:	99 1f       	adc	r25, r25
    21cc:	0a 94       	dec	r0
    21ce:	e2 f7       	brpl	.-8      	; 0x21c8 <MDIO_stderrSetPinValue+0x1e4>
    21d0:	80 95       	com	r24
    21d2:	84 23       	and	r24, r20
    21d4:	12 96       	adiw	r26, 0x02	; 2
    21d6:	8c 93       	st	X, r24
    21d8:	12 97       	sbiw	r26, 0x02	; 2
    21da:	1f c0       	rjmp	.+62     	; 0x221a <MDIO_stderrSetPinValue+0x236>
				case MDIO_PORTD: CLEAR_BIT(GPIOD -> PORT, ARG_u8Pin); break;
    21dc:	a0 e3       	ldi	r26, 0x30	; 48
    21de:	b0 e0       	ldi	r27, 0x00	; 0
    21e0:	e0 e3       	ldi	r30, 0x30	; 48
    21e2:	f0 e0       	ldi	r31, 0x00	; 0
    21e4:	82 81       	ldd	r24, Z+2	; 0x02
    21e6:	48 2f       	mov	r20, r24
    21e8:	8b 81       	ldd	r24, Y+3	; 0x03
    21ea:	28 2f       	mov	r18, r24
    21ec:	30 e0       	ldi	r19, 0x00	; 0
    21ee:	81 e0       	ldi	r24, 0x01	; 1
    21f0:	90 e0       	ldi	r25, 0x00	; 0
    21f2:	02 2e       	mov	r0, r18
    21f4:	02 c0       	rjmp	.+4      	; 0x21fa <MDIO_stderrSetPinValue+0x216>
    21f6:	88 0f       	add	r24, r24
    21f8:	99 1f       	adc	r25, r25
    21fa:	0a 94       	dec	r0
    21fc:	e2 f7       	brpl	.-8      	; 0x21f6 <MDIO_stderrSetPinValue+0x212>
    21fe:	80 95       	com	r24
    2200:	84 23       	and	r24, r20
    2202:	12 96       	adiw	r26, 0x02	; 2
    2204:	8c 93       	st	X, r24
    2206:	12 97       	sbiw	r26, 0x02	; 2
    2208:	08 c0       	rjmp	.+16     	; 0x221a <MDIO_stderrSetPinValue+0x236>
				default: L_stderrError = E_NOK; break; /* Report an Error */
    220a:	81 e0       	ldi	r24, 0x01	; 1
    220c:	89 83       	std	Y+1, r24	; 0x01
    220e:	05 c0       	rjmp	.+10     	; 0x221a <MDIO_stderrSetPinValue+0x236>
			}
		}
		else
		{
			/* Report an Error */
			L_stderrError = E_NOK;
    2210:	81 e0       	ldi	r24, 0x01	; 1
    2212:	89 83       	std	Y+1, r24	; 0x01
    2214:	02 c0       	rjmp	.+4      	; 0x221a <MDIO_stderrSetPinValue+0x236>
		}
	}
	else
	{
		/* Report an Error */
		L_stderrError = E_NOK;
    2216:	81 e0       	ldi	r24, 0x01	; 1
    2218:	89 83       	std	Y+1, r24	; 0x01
	}
	return L_stderrError;
    221a:	89 81       	ldd	r24, Y+1	; 0x01
}
    221c:	28 96       	adiw	r28, 0x08	; 8
    221e:	0f b6       	in	r0, 0x3f	; 63
    2220:	f8 94       	cli
    2222:	de bf       	out	0x3e, r29	; 62
    2224:	0f be       	out	0x3f, r0	; 63
    2226:	cd bf       	out	0x3d, r28	; 61
    2228:	cf 91       	pop	r28
    222a:	df 91       	pop	r29
    222c:	08 95       	ret

0000222e <MDIO_stderrGetPinValue>:

STD_error_t MDIO_stderrGetPinValue(u8* ARG_u8pValue, u8 ARG_u8Port, u8 ARG_u8Pin)
{
    222e:	df 93       	push	r29
    2230:	cf 93       	push	r28
    2232:	cd b7       	in	r28, 0x3d	; 61
    2234:	de b7       	in	r29, 0x3e	; 62
    2236:	27 97       	sbiw	r28, 0x07	; 7
    2238:	0f b6       	in	r0, 0x3f	; 63
    223a:	f8 94       	cli
    223c:	de bf       	out	0x3e, r29	; 62
    223e:	0f be       	out	0x3f, r0	; 63
    2240:	cd bf       	out	0x3d, r28	; 61
    2242:	9b 83       	std	Y+3, r25	; 0x03
    2244:	8a 83       	std	Y+2, r24	; 0x02
    2246:	6c 83       	std	Y+4, r22	; 0x04
    2248:	4d 83       	std	Y+5, r20	; 0x05
	STD_error_t L_stderrError = E_OK;
    224a:	19 82       	std	Y+1, r1	; 0x01
	if(NULL_POINTER==ARG_u8pValue)
    224c:	8a 81       	ldd	r24, Y+2	; 0x02
    224e:	9b 81       	ldd	r25, Y+3	; 0x03
    2250:	00 97       	sbiw	r24, 0x00	; 0
    2252:	19 f4       	brne	.+6      	; 0x225a <MDIO_stderrGetPinValue+0x2c>
	{
		L_stderrError = E_NULL_POINTER;
    2254:	82 e0       	ldi	r24, 0x02	; 2
    2256:	89 83       	std	Y+1, r24	; 0x01
    2258:	7a c0       	rjmp	.+244    	; 0x234e <MDIO_stderrGetPinValue+0x120>
	}
	else if((ARG_u8Pin>=MDIO_PIN0) && (ARG_u8Pin<=MDIO_PIN7))
    225a:	8d 81       	ldd	r24, Y+5	; 0x05
    225c:	88 30       	cpi	r24, 0x08	; 8
    225e:	08 f0       	brcs	.+2      	; 0x2262 <MDIO_stderrGetPinValue+0x34>
    2260:	74 c0       	rjmp	.+232    	; 0x234a <MDIO_stderrGetPinValue+0x11c>
	{
		switch(ARG_u8Port)
    2262:	8c 81       	ldd	r24, Y+4	; 0x04
    2264:	28 2f       	mov	r18, r24
    2266:	30 e0       	ldi	r19, 0x00	; 0
    2268:	3f 83       	std	Y+7, r19	; 0x07
    226a:	2e 83       	std	Y+6, r18	; 0x06
    226c:	4e 81       	ldd	r20, Y+6	; 0x06
    226e:	5f 81       	ldd	r21, Y+7	; 0x07
    2270:	42 30       	cpi	r20, 0x02	; 2
    2272:	51 05       	cpc	r21, r1
    2274:	59 f1       	breq	.+86     	; 0x22cc <MDIO_stderrGetPinValue+0x9e>
    2276:	8e 81       	ldd	r24, Y+6	; 0x06
    2278:	9f 81       	ldd	r25, Y+7	; 0x07
    227a:	83 30       	cpi	r24, 0x03	; 3
    227c:	91 05       	cpc	r25, r1
    227e:	34 f4       	brge	.+12     	; 0x228c <MDIO_stderrGetPinValue+0x5e>
    2280:	2e 81       	ldd	r18, Y+6	; 0x06
    2282:	3f 81       	ldd	r19, Y+7	; 0x07
    2284:	21 30       	cpi	r18, 0x01	; 1
    2286:	31 05       	cpc	r19, r1
    2288:	69 f0       	breq	.+26     	; 0x22a4 <MDIO_stderrGetPinValue+0x76>
    228a:	5c c0       	rjmp	.+184    	; 0x2344 <MDIO_stderrGetPinValue+0x116>
    228c:	4e 81       	ldd	r20, Y+6	; 0x06
    228e:	5f 81       	ldd	r21, Y+7	; 0x07
    2290:	43 30       	cpi	r20, 0x03	; 3
    2292:	51 05       	cpc	r21, r1
    2294:	79 f1       	breq	.+94     	; 0x22f4 <MDIO_stderrGetPinValue+0xc6>
    2296:	8e 81       	ldd	r24, Y+6	; 0x06
    2298:	9f 81       	ldd	r25, Y+7	; 0x07
    229a:	84 30       	cpi	r24, 0x04	; 4
    229c:	91 05       	cpc	r25, r1
    229e:	09 f4       	brne	.+2      	; 0x22a2 <MDIO_stderrGetPinValue+0x74>
    22a0:	3d c0       	rjmp	.+122    	; 0x231c <MDIO_stderrGetPinValue+0xee>
    22a2:	50 c0       	rjmp	.+160    	; 0x2344 <MDIO_stderrGetPinValue+0x116>
		{
			case MDIO_PORTA: *ARG_u8pValue = GET_BIT(GPIOA -> PIN, ARG_u8Pin); break;
    22a4:	e9 e3       	ldi	r30, 0x39	; 57
    22a6:	f0 e0       	ldi	r31, 0x00	; 0
    22a8:	80 81       	ld	r24, Z
    22aa:	28 2f       	mov	r18, r24
    22ac:	30 e0       	ldi	r19, 0x00	; 0
    22ae:	8d 81       	ldd	r24, Y+5	; 0x05
    22b0:	88 2f       	mov	r24, r24
    22b2:	90 e0       	ldi	r25, 0x00	; 0
    22b4:	a9 01       	movw	r20, r18
    22b6:	02 c0       	rjmp	.+4      	; 0x22bc <MDIO_stderrGetPinValue+0x8e>
    22b8:	55 95       	asr	r21
    22ba:	47 95       	ror	r20
    22bc:	8a 95       	dec	r24
    22be:	e2 f7       	brpl	.-8      	; 0x22b8 <MDIO_stderrGetPinValue+0x8a>
    22c0:	ca 01       	movw	r24, r20
    22c2:	81 70       	andi	r24, 0x01	; 1
    22c4:	ea 81       	ldd	r30, Y+2	; 0x02
    22c6:	fb 81       	ldd	r31, Y+3	; 0x03
    22c8:	80 83       	st	Z, r24
    22ca:	41 c0       	rjmp	.+130    	; 0x234e <MDIO_stderrGetPinValue+0x120>
			case MDIO_PORTB: *ARG_u8pValue = GET_BIT(GPIOB -> PIN, ARG_u8Pin); break;
    22cc:	e6 e3       	ldi	r30, 0x36	; 54
    22ce:	f0 e0       	ldi	r31, 0x00	; 0
    22d0:	80 81       	ld	r24, Z
    22d2:	28 2f       	mov	r18, r24
    22d4:	30 e0       	ldi	r19, 0x00	; 0
    22d6:	8d 81       	ldd	r24, Y+5	; 0x05
    22d8:	88 2f       	mov	r24, r24
    22da:	90 e0       	ldi	r25, 0x00	; 0
    22dc:	a9 01       	movw	r20, r18
    22de:	02 c0       	rjmp	.+4      	; 0x22e4 <MDIO_stderrGetPinValue+0xb6>
    22e0:	55 95       	asr	r21
    22e2:	47 95       	ror	r20
    22e4:	8a 95       	dec	r24
    22e6:	e2 f7       	brpl	.-8      	; 0x22e0 <MDIO_stderrGetPinValue+0xb2>
    22e8:	ca 01       	movw	r24, r20
    22ea:	81 70       	andi	r24, 0x01	; 1
    22ec:	ea 81       	ldd	r30, Y+2	; 0x02
    22ee:	fb 81       	ldd	r31, Y+3	; 0x03
    22f0:	80 83       	st	Z, r24
    22f2:	2d c0       	rjmp	.+90     	; 0x234e <MDIO_stderrGetPinValue+0x120>
			case MDIO_PORTC: *ARG_u8pValue = GET_BIT(GPIOC -> PIN, ARG_u8Pin); break;
    22f4:	e3 e3       	ldi	r30, 0x33	; 51
    22f6:	f0 e0       	ldi	r31, 0x00	; 0
    22f8:	80 81       	ld	r24, Z
    22fa:	28 2f       	mov	r18, r24
    22fc:	30 e0       	ldi	r19, 0x00	; 0
    22fe:	8d 81       	ldd	r24, Y+5	; 0x05
    2300:	88 2f       	mov	r24, r24
    2302:	90 e0       	ldi	r25, 0x00	; 0
    2304:	a9 01       	movw	r20, r18
    2306:	02 c0       	rjmp	.+4      	; 0x230c <MDIO_stderrGetPinValue+0xde>
    2308:	55 95       	asr	r21
    230a:	47 95       	ror	r20
    230c:	8a 95       	dec	r24
    230e:	e2 f7       	brpl	.-8      	; 0x2308 <MDIO_stderrGetPinValue+0xda>
    2310:	ca 01       	movw	r24, r20
    2312:	81 70       	andi	r24, 0x01	; 1
    2314:	ea 81       	ldd	r30, Y+2	; 0x02
    2316:	fb 81       	ldd	r31, Y+3	; 0x03
    2318:	80 83       	st	Z, r24
    231a:	19 c0       	rjmp	.+50     	; 0x234e <MDIO_stderrGetPinValue+0x120>
			case MDIO_PORTD: *ARG_u8pValue = GET_BIT(GPIOD -> PIN, ARG_u8Pin); break;
    231c:	e0 e3       	ldi	r30, 0x30	; 48
    231e:	f0 e0       	ldi	r31, 0x00	; 0
    2320:	80 81       	ld	r24, Z
    2322:	28 2f       	mov	r18, r24
    2324:	30 e0       	ldi	r19, 0x00	; 0
    2326:	8d 81       	ldd	r24, Y+5	; 0x05
    2328:	88 2f       	mov	r24, r24
    232a:	90 e0       	ldi	r25, 0x00	; 0
    232c:	a9 01       	movw	r20, r18
    232e:	02 c0       	rjmp	.+4      	; 0x2334 <MDIO_stderrGetPinValue+0x106>
    2330:	55 95       	asr	r21
    2332:	47 95       	ror	r20
    2334:	8a 95       	dec	r24
    2336:	e2 f7       	brpl	.-8      	; 0x2330 <MDIO_stderrGetPinValue+0x102>
    2338:	ca 01       	movw	r24, r20
    233a:	81 70       	andi	r24, 0x01	; 1
    233c:	ea 81       	ldd	r30, Y+2	; 0x02
    233e:	fb 81       	ldd	r31, Y+3	; 0x03
    2340:	80 83       	st	Z, r24
    2342:	05 c0       	rjmp	.+10     	; 0x234e <MDIO_stderrGetPinValue+0x120>
			default: L_stderrError = E_NOK; break; /* Report an Error */
    2344:	81 e0       	ldi	r24, 0x01	; 1
    2346:	89 83       	std	Y+1, r24	; 0x01
    2348:	02 c0       	rjmp	.+4      	; 0x234e <MDIO_stderrGetPinValue+0x120>
		}
	}
	else
	{
		/* Report an Error */
		L_stderrError = E_NOK;
    234a:	81 e0       	ldi	r24, 0x01	; 1
    234c:	89 83       	std	Y+1, r24	; 0x01
	}
	return L_stderrError;
    234e:	89 81       	ldd	r24, Y+1	; 0x01
}
    2350:	27 96       	adiw	r28, 0x07	; 7
    2352:	0f b6       	in	r0, 0x3f	; 63
    2354:	f8 94       	cli
    2356:	de bf       	out	0x3e, r29	; 62
    2358:	0f be       	out	0x3f, r0	; 63
    235a:	cd bf       	out	0x3d, r28	; 61
    235c:	cf 91       	pop	r28
    235e:	df 91       	pop	r29
    2360:	08 95       	ret

00002362 <MDIO_stderrTogglePinValue>:

STD_error_t MDIO_stderrTogglePinValue(u8 ARG_u8Port ,u8 ARG_u8Pin)
{
    2362:	df 93       	push	r29
    2364:	cf 93       	push	r28
    2366:	00 d0       	rcall	.+0      	; 0x2368 <MDIO_stderrTogglePinValue+0x6>
    2368:	00 d0       	rcall	.+0      	; 0x236a <MDIO_stderrTogglePinValue+0x8>
    236a:	0f 92       	push	r0
    236c:	cd b7       	in	r28, 0x3d	; 61
    236e:	de b7       	in	r29, 0x3e	; 62
    2370:	8a 83       	std	Y+2, r24	; 0x02
    2372:	6b 83       	std	Y+3, r22	; 0x03
	STD_error_t L_stderrError= E_OK;
    2374:	19 82       	std	Y+1, r1	; 0x01
	if(ARG_u8Pin>= MDIO_PIN0 && ARG_u8Pin<= MDIO_PIN7)
    2376:	8b 81       	ldd	r24, Y+3	; 0x03
    2378:	88 30       	cpi	r24, 0x08	; 8
    237a:	08 f0       	brcs	.+2      	; 0x237e <MDIO_stderrTogglePinValue+0x1c>
    237c:	7c c0       	rjmp	.+248    	; 0x2476 <MDIO_stderrTogglePinValue+0x114>
	{
		switch(ARG_u8Port)
    237e:	8a 81       	ldd	r24, Y+2	; 0x02
    2380:	28 2f       	mov	r18, r24
    2382:	30 e0       	ldi	r19, 0x00	; 0
    2384:	3d 83       	std	Y+5, r19	; 0x05
    2386:	2c 83       	std	Y+4, r18	; 0x04
    2388:	8c 81       	ldd	r24, Y+4	; 0x04
    238a:	9d 81       	ldd	r25, Y+5	; 0x05
    238c:	82 30       	cpi	r24, 0x02	; 2
    238e:	91 05       	cpc	r25, r1
    2390:	69 f1       	breq	.+90     	; 0x23ec <MDIO_stderrTogglePinValue+0x8a>
    2392:	2c 81       	ldd	r18, Y+4	; 0x04
    2394:	3d 81       	ldd	r19, Y+5	; 0x05
    2396:	23 30       	cpi	r18, 0x03	; 3
    2398:	31 05       	cpc	r19, r1
    239a:	34 f4       	brge	.+12     	; 0x23a8 <MDIO_stderrTogglePinValue+0x46>
    239c:	8c 81       	ldd	r24, Y+4	; 0x04
    239e:	9d 81       	ldd	r25, Y+5	; 0x05
    23a0:	81 30       	cpi	r24, 0x01	; 1
    23a2:	91 05       	cpc	r25, r1
    23a4:	69 f0       	breq	.+26     	; 0x23c0 <MDIO_stderrTogglePinValue+0x5e>
    23a6:	64 c0       	rjmp	.+200    	; 0x2470 <MDIO_stderrTogglePinValue+0x10e>
    23a8:	2c 81       	ldd	r18, Y+4	; 0x04
    23aa:	3d 81       	ldd	r19, Y+5	; 0x05
    23ac:	23 30       	cpi	r18, 0x03	; 3
    23ae:	31 05       	cpc	r19, r1
    23b0:	99 f1       	breq	.+102    	; 0x2418 <MDIO_stderrTogglePinValue+0xb6>
    23b2:	8c 81       	ldd	r24, Y+4	; 0x04
    23b4:	9d 81       	ldd	r25, Y+5	; 0x05
    23b6:	84 30       	cpi	r24, 0x04	; 4
    23b8:	91 05       	cpc	r25, r1
    23ba:	09 f4       	brne	.+2      	; 0x23be <MDIO_stderrTogglePinValue+0x5c>
    23bc:	43 c0       	rjmp	.+134    	; 0x2444 <MDIO_stderrTogglePinValue+0xe2>
    23be:	58 c0       	rjmp	.+176    	; 0x2470 <MDIO_stderrTogglePinValue+0x10e>
		{
			case MDIO_PORTA: TOGGLE_BIT(GPIOA->PORT ,ARG_u8Pin) ; break;
    23c0:	a9 e3       	ldi	r26, 0x39	; 57
    23c2:	b0 e0       	ldi	r27, 0x00	; 0
    23c4:	e9 e3       	ldi	r30, 0x39	; 57
    23c6:	f0 e0       	ldi	r31, 0x00	; 0
    23c8:	82 81       	ldd	r24, Z+2	; 0x02
    23ca:	48 2f       	mov	r20, r24
    23cc:	8b 81       	ldd	r24, Y+3	; 0x03
    23ce:	28 2f       	mov	r18, r24
    23d0:	30 e0       	ldi	r19, 0x00	; 0
    23d2:	81 e0       	ldi	r24, 0x01	; 1
    23d4:	90 e0       	ldi	r25, 0x00	; 0
    23d6:	02 2e       	mov	r0, r18
    23d8:	02 c0       	rjmp	.+4      	; 0x23de <MDIO_stderrTogglePinValue+0x7c>
    23da:	88 0f       	add	r24, r24
    23dc:	99 1f       	adc	r25, r25
    23de:	0a 94       	dec	r0
    23e0:	e2 f7       	brpl	.-8      	; 0x23da <MDIO_stderrTogglePinValue+0x78>
    23e2:	84 27       	eor	r24, r20
    23e4:	12 96       	adiw	r26, 0x02	; 2
    23e6:	8c 93       	st	X, r24
    23e8:	12 97       	sbiw	r26, 0x02	; 2
    23ea:	47 c0       	rjmp	.+142    	; 0x247a <MDIO_stderrTogglePinValue+0x118>
			case MDIO_PORTB: TOGGLE_BIT(GPIOB->PORT ,ARG_u8Pin) ; break;
    23ec:	a6 e3       	ldi	r26, 0x36	; 54
    23ee:	b0 e0       	ldi	r27, 0x00	; 0
    23f0:	e6 e3       	ldi	r30, 0x36	; 54
    23f2:	f0 e0       	ldi	r31, 0x00	; 0
    23f4:	82 81       	ldd	r24, Z+2	; 0x02
    23f6:	48 2f       	mov	r20, r24
    23f8:	8b 81       	ldd	r24, Y+3	; 0x03
    23fa:	28 2f       	mov	r18, r24
    23fc:	30 e0       	ldi	r19, 0x00	; 0
    23fe:	81 e0       	ldi	r24, 0x01	; 1
    2400:	90 e0       	ldi	r25, 0x00	; 0
    2402:	02 2e       	mov	r0, r18
    2404:	02 c0       	rjmp	.+4      	; 0x240a <MDIO_stderrTogglePinValue+0xa8>
    2406:	88 0f       	add	r24, r24
    2408:	99 1f       	adc	r25, r25
    240a:	0a 94       	dec	r0
    240c:	e2 f7       	brpl	.-8      	; 0x2406 <MDIO_stderrTogglePinValue+0xa4>
    240e:	84 27       	eor	r24, r20
    2410:	12 96       	adiw	r26, 0x02	; 2
    2412:	8c 93       	st	X, r24
    2414:	12 97       	sbiw	r26, 0x02	; 2
    2416:	31 c0       	rjmp	.+98     	; 0x247a <MDIO_stderrTogglePinValue+0x118>
			case MDIO_PORTC: TOGGLE_BIT(GPIOC->PORT ,ARG_u8Pin) ; break;
    2418:	a3 e3       	ldi	r26, 0x33	; 51
    241a:	b0 e0       	ldi	r27, 0x00	; 0
    241c:	e3 e3       	ldi	r30, 0x33	; 51
    241e:	f0 e0       	ldi	r31, 0x00	; 0
    2420:	82 81       	ldd	r24, Z+2	; 0x02
    2422:	48 2f       	mov	r20, r24
    2424:	8b 81       	ldd	r24, Y+3	; 0x03
    2426:	28 2f       	mov	r18, r24
    2428:	30 e0       	ldi	r19, 0x00	; 0
    242a:	81 e0       	ldi	r24, 0x01	; 1
    242c:	90 e0       	ldi	r25, 0x00	; 0
    242e:	02 2e       	mov	r0, r18
    2430:	02 c0       	rjmp	.+4      	; 0x2436 <MDIO_stderrTogglePinValue+0xd4>
    2432:	88 0f       	add	r24, r24
    2434:	99 1f       	adc	r25, r25
    2436:	0a 94       	dec	r0
    2438:	e2 f7       	brpl	.-8      	; 0x2432 <MDIO_stderrTogglePinValue+0xd0>
    243a:	84 27       	eor	r24, r20
    243c:	12 96       	adiw	r26, 0x02	; 2
    243e:	8c 93       	st	X, r24
    2440:	12 97       	sbiw	r26, 0x02	; 2
    2442:	1b c0       	rjmp	.+54     	; 0x247a <MDIO_stderrTogglePinValue+0x118>
			case MDIO_PORTD: TOGGLE_BIT(GPIOD->PORT ,ARG_u8Pin) ; break;
    2444:	a0 e3       	ldi	r26, 0x30	; 48
    2446:	b0 e0       	ldi	r27, 0x00	; 0
    2448:	e0 e3       	ldi	r30, 0x30	; 48
    244a:	f0 e0       	ldi	r31, 0x00	; 0
    244c:	82 81       	ldd	r24, Z+2	; 0x02
    244e:	48 2f       	mov	r20, r24
    2450:	8b 81       	ldd	r24, Y+3	; 0x03
    2452:	28 2f       	mov	r18, r24
    2454:	30 e0       	ldi	r19, 0x00	; 0
    2456:	81 e0       	ldi	r24, 0x01	; 1
    2458:	90 e0       	ldi	r25, 0x00	; 0
    245a:	02 2e       	mov	r0, r18
    245c:	02 c0       	rjmp	.+4      	; 0x2462 <MDIO_stderrTogglePinValue+0x100>
    245e:	88 0f       	add	r24, r24
    2460:	99 1f       	adc	r25, r25
    2462:	0a 94       	dec	r0
    2464:	e2 f7       	brpl	.-8      	; 0x245e <MDIO_stderrTogglePinValue+0xfc>
    2466:	84 27       	eor	r24, r20
    2468:	12 96       	adiw	r26, 0x02	; 2
    246a:	8c 93       	st	X, r24
    246c:	12 97       	sbiw	r26, 0x02	; 2
    246e:	05 c0       	rjmp	.+10     	; 0x247a <MDIO_stderrTogglePinValue+0x118>
			default: L_stderrError = E_NOK; break; /* report an error*/
    2470:	81 e0       	ldi	r24, 0x01	; 1
    2472:	89 83       	std	Y+1, r24	; 0x01
    2474:	02 c0       	rjmp	.+4      	; 0x247a <MDIO_stderrTogglePinValue+0x118>
		}	
	}
	else{
		/* Report an Error */
		L_stderrError=E_NULL_POINTER;
    2476:	82 e0       	ldi	r24, 0x02	; 2
    2478:	89 83       	std	Y+1, r24	; 0x01
	}
	return L_stderrError;
    247a:	89 81       	ldd	r24, Y+1	; 0x01
}
    247c:	0f 90       	pop	r0
    247e:	0f 90       	pop	r0
    2480:	0f 90       	pop	r0
    2482:	0f 90       	pop	r0
    2484:	0f 90       	pop	r0
    2486:	cf 91       	pop	r28
    2488:	df 91       	pop	r29
    248a:	08 95       	ret

0000248c <main>:

#include "MDIO_interface.h"

#include "HLCD_interface.h"

int main(void){
    248c:	df 93       	push	r29
    248e:	cf 93       	push	r28
    2490:	cd b7       	in	r28, 0x3d	; 61
    2492:	de b7       	in	r29, 0x3e	; 62
    2494:	a7 97       	sbiw	r28, 0x27	; 39
    2496:	0f b6       	in	r0, 0x3f	; 63
    2498:	f8 94       	cli
    249a:	de bf       	out	0x3e, r29	; 62
    249c:	0f be       	out	0x3f, r0	; 63
    249e:	cd bf       	out	0x3d, r28	; 61
	// Initialization  (Run Once)
	char L_chararrDisplay[20]= "Abdalrahman ^_^";
    24a0:	ce 01       	movw	r24, r28
    24a2:	0f 96       	adiw	r24, 0x0f	; 15
    24a4:	9c a3       	std	Y+36, r25	; 0x24
    24a6:	8b a3       	std	Y+35, r24	; 0x23
    24a8:	e8 e6       	ldi	r30, 0x68	; 104
    24aa:	f0 e0       	ldi	r31, 0x00	; 0
    24ac:	fe a3       	std	Y+38, r31	; 0x26
    24ae:	ed a3       	std	Y+37, r30	; 0x25
    24b0:	f0 e1       	ldi	r31, 0x10	; 16
    24b2:	ff a3       	std	Y+39, r31	; 0x27
    24b4:	ed a1       	ldd	r30, Y+37	; 0x25
    24b6:	fe a1       	ldd	r31, Y+38	; 0x26
    24b8:	00 80       	ld	r0, Z
    24ba:	8d a1       	ldd	r24, Y+37	; 0x25
    24bc:	9e a1       	ldd	r25, Y+38	; 0x26
    24be:	01 96       	adiw	r24, 0x01	; 1
    24c0:	9e a3       	std	Y+38, r25	; 0x26
    24c2:	8d a3       	std	Y+37, r24	; 0x25
    24c4:	eb a1       	ldd	r30, Y+35	; 0x23
    24c6:	fc a1       	ldd	r31, Y+36	; 0x24
    24c8:	00 82       	st	Z, r0
    24ca:	8b a1       	ldd	r24, Y+35	; 0x23
    24cc:	9c a1       	ldd	r25, Y+36	; 0x24
    24ce:	01 96       	adiw	r24, 0x01	; 1
    24d0:	9c a3       	std	Y+36, r25	; 0x24
    24d2:	8b a3       	std	Y+35, r24	; 0x23
    24d4:	9f a1       	ldd	r25, Y+39	; 0x27
    24d6:	91 50       	subi	r25, 0x01	; 1
    24d8:	9f a3       	std	Y+39, r25	; 0x27
    24da:	ef a1       	ldd	r30, Y+39	; 0x27
    24dc:	ee 23       	and	r30, r30
    24de:	51 f7       	brne	.-44     	; 0x24b4 <main+0x28>
    24e0:	1f 8e       	std	Y+31, r1	; 0x1f
    24e2:	18 a2       	std	Y+32, r1	; 0x20
    24e4:	19 a2       	std	Y+33, r1	; 0x21
    24e6:	1a a2       	std	Y+34, r1	; 0x22

	HLCD_voidInit();
    24e8:	0e 94 47 06 	call	0xc8e	; 0xc8e <HLCD_voidInit>

	HLCD_voidSendString(L_chararrDisplay);
    24ec:	ce 01       	movw	r24, r28
    24ee:	0f 96       	adiw	r24, 0x0f	; 15
    24f0:	0e 94 c5 0b 	call	0x178a	; 0x178a <HLCD_voidSendString>
	HLCD_voidSetCur(1,0);
    24f4:	81 e0       	ldi	r24, 0x01	; 1
    24f6:	60 e0       	ldi	r22, 0x00	; 0
    24f8:	0e 94 ee 0b 	call	0x17dc	; 0x17dc <HLCD_voidSetCur>
	HLCD_voidSendString("ITI NC1");
    24fc:	80 e6       	ldi	r24, 0x60	; 96
    24fe:	90 e0       	ldi	r25, 0x00	; 0
    2500:	0e 94 c5 0b 	call	0x178a	; 0x178a <HLCD_voidSendString>
	while(1){
		// Application (Run )

		HLCD_voidSendCmd(HLCD_SHIFT_LEFT);
    2504:	8c e1       	ldi	r24, 0x1C	; 28
    2506:	0e 94 8d 09 	call	0x131a	; 0x131a <HLCD_voidSendCmd>
    250a:	80 e0       	ldi	r24, 0x00	; 0
    250c:	90 e0       	ldi	r25, 0x00	; 0
    250e:	aa ef       	ldi	r26, 0xFA	; 250
    2510:	b3 e4       	ldi	r27, 0x43	; 67
    2512:	8b 87       	std	Y+11, r24	; 0x0b
    2514:	9c 87       	std	Y+12, r25	; 0x0c
    2516:	ad 87       	std	Y+13, r26	; 0x0d
    2518:	be 87       	std	Y+14, r27	; 0x0e
 */
void
_delay_ms(double __ms)
{
	uint16_t __ticks;
	double __tmp = ((F_CPU) / 4e3) * __ms;
    251a:	6b 85       	ldd	r22, Y+11	; 0x0b
    251c:	7c 85       	ldd	r23, Y+12	; 0x0c
    251e:	8d 85       	ldd	r24, Y+13	; 0x0d
    2520:	9e 85       	ldd	r25, Y+14	; 0x0e
    2522:	20 e0       	ldi	r18, 0x00	; 0
    2524:	30 e0       	ldi	r19, 0x00	; 0
    2526:	4a ef       	ldi	r20, 0xFA	; 250
    2528:	54 e4       	ldi	r21, 0x44	; 68
    252a:	0e 94 17 02 	call	0x42e	; 0x42e <__mulsf3>
    252e:	dc 01       	movw	r26, r24
    2530:	cb 01       	movw	r24, r22
    2532:	8f 83       	std	Y+7, r24	; 0x07
    2534:	98 87       	std	Y+8, r25	; 0x08
    2536:	a9 87       	std	Y+9, r26	; 0x09
    2538:	ba 87       	std	Y+10, r27	; 0x0a
	if (__tmp < 1.0)
    253a:	6f 81       	ldd	r22, Y+7	; 0x07
    253c:	78 85       	ldd	r23, Y+8	; 0x08
    253e:	89 85       	ldd	r24, Y+9	; 0x09
    2540:	9a 85       	ldd	r25, Y+10	; 0x0a
    2542:	20 e0       	ldi	r18, 0x00	; 0
    2544:	30 e0       	ldi	r19, 0x00	; 0
    2546:	40 e8       	ldi	r20, 0x80	; 128
    2548:	5f e3       	ldi	r21, 0x3F	; 63
    254a:	0e 94 1d 04 	call	0x83a	; 0x83a <__ltsf2>
    254e:	88 23       	and	r24, r24
    2550:	2c f4       	brge	.+10     	; 0x255c <main+0xd0>
		__ticks = 1;
    2552:	81 e0       	ldi	r24, 0x01	; 1
    2554:	90 e0       	ldi	r25, 0x00	; 0
    2556:	9e 83       	std	Y+6, r25	; 0x06
    2558:	8d 83       	std	Y+5, r24	; 0x05
    255a:	3f c0       	rjmp	.+126    	; 0x25da <main+0x14e>
	else if (__tmp > 65535)
    255c:	6f 81       	ldd	r22, Y+7	; 0x07
    255e:	78 85       	ldd	r23, Y+8	; 0x08
    2560:	89 85       	ldd	r24, Y+9	; 0x09
    2562:	9a 85       	ldd	r25, Y+10	; 0x0a
    2564:	20 e0       	ldi	r18, 0x00	; 0
    2566:	3f ef       	ldi	r19, 0xFF	; 255
    2568:	4f e7       	ldi	r20, 0x7F	; 127
    256a:	57 e4       	ldi	r21, 0x47	; 71
    256c:	0e 94 bd 03 	call	0x77a	; 0x77a <__gtsf2>
    2570:	18 16       	cp	r1, r24
    2572:	4c f5       	brge	.+82     	; 0x25c6 <main+0x13a>
	{
		//	__ticks = requested delay in 1/10 ms
		__ticks = (uint16_t) (__ms * 10.0);
    2574:	6b 85       	ldd	r22, Y+11	; 0x0b
    2576:	7c 85       	ldd	r23, Y+12	; 0x0c
    2578:	8d 85       	ldd	r24, Y+13	; 0x0d
    257a:	9e 85       	ldd	r25, Y+14	; 0x0e
    257c:	20 e0       	ldi	r18, 0x00	; 0
    257e:	30 e0       	ldi	r19, 0x00	; 0
    2580:	40 e2       	ldi	r20, 0x20	; 32
    2582:	51 e4       	ldi	r21, 0x41	; 65
    2584:	0e 94 17 02 	call	0x42e	; 0x42e <__mulsf3>
    2588:	dc 01       	movw	r26, r24
    258a:	cb 01       	movw	r24, r22
    258c:	bc 01       	movw	r22, r24
    258e:	cd 01       	movw	r24, r26
    2590:	0e 94 41 00 	call	0x82	; 0x82 <__fixunssfsi>
    2594:	dc 01       	movw	r26, r24
    2596:	cb 01       	movw	r24, r22
    2598:	9e 83       	std	Y+6, r25	; 0x06
    259a:	8d 83       	std	Y+5, r24	; 0x05
    259c:	0f c0       	rjmp	.+30     	; 0x25bc <main+0x130>
    259e:	88 ec       	ldi	r24, 0xC8	; 200
    25a0:	90 e0       	ldi	r25, 0x00	; 0
    25a2:	9c 83       	std	Y+4, r25	; 0x04
    25a4:	8b 83       	std	Y+3, r24	; 0x03
    25a6:	8b 81       	ldd	r24, Y+3	; 0x03
    25a8:	9c 81       	ldd	r25, Y+4	; 0x04
    25aa:	01 97       	sbiw	r24, 0x01	; 1
    25ac:	f1 f7       	brne	.-4      	; 0x25aa <main+0x11e>
    25ae:	9c 83       	std	Y+4, r25	; 0x04
    25b0:	8b 83       	std	Y+3, r24	; 0x03
		while(__ticks)
		{
			// wait 1/10 ms
			_delay_loop_2(((F_CPU) / 4e3) / 10);
			__ticks --;
    25b2:	8d 81       	ldd	r24, Y+5	; 0x05
    25b4:	9e 81       	ldd	r25, Y+6	; 0x06
    25b6:	01 97       	sbiw	r24, 0x01	; 1
    25b8:	9e 83       	std	Y+6, r25	; 0x06
    25ba:	8d 83       	std	Y+5, r24	; 0x05
		__ticks = 1;
	else if (__tmp > 65535)
	{
		//	__ticks = requested delay in 1/10 ms
		__ticks = (uint16_t) (__ms * 10.0);
		while(__ticks)
    25bc:	8d 81       	ldd	r24, Y+5	; 0x05
    25be:	9e 81       	ldd	r25, Y+6	; 0x06
    25c0:	00 97       	sbiw	r24, 0x00	; 0
    25c2:	69 f7       	brne	.-38     	; 0x259e <main+0x112>
    25c4:	9f cf       	rjmp	.-194    	; 0x2504 <main+0x78>
			__ticks --;
		}
		return;
	}
	else
		__ticks = (uint16_t)__tmp;
    25c6:	6f 81       	ldd	r22, Y+7	; 0x07
    25c8:	78 85       	ldd	r23, Y+8	; 0x08
    25ca:	89 85       	ldd	r24, Y+9	; 0x09
    25cc:	9a 85       	ldd	r25, Y+10	; 0x0a
    25ce:	0e 94 41 00 	call	0x82	; 0x82 <__fixunssfsi>
    25d2:	dc 01       	movw	r26, r24
    25d4:	cb 01       	movw	r24, r22
    25d6:	9e 83       	std	Y+6, r25	; 0x06
    25d8:	8d 83       	std	Y+5, r24	; 0x05
    25da:	8d 81       	ldd	r24, Y+5	; 0x05
    25dc:	9e 81       	ldd	r25, Y+6	; 0x06
    25de:	9a 83       	std	Y+2, r25	; 0x02
    25e0:	89 83       	std	Y+1, r24	; 0x01
    25e2:	89 81       	ldd	r24, Y+1	; 0x01
    25e4:	9a 81       	ldd	r25, Y+2	; 0x02
    25e6:	01 97       	sbiw	r24, 0x01	; 1
    25e8:	f1 f7       	brne	.-4      	; 0x25e6 <main+0x15a>
    25ea:	9a 83       	std	Y+2, r25	; 0x02
    25ec:	89 83       	std	Y+1, r24	; 0x01
    25ee:	8a cf       	rjmp	.-236    	; 0x2504 <main+0x78>

000025f0 <__udivmodhi4>:
    25f0:	aa 1b       	sub	r26, r26
    25f2:	bb 1b       	sub	r27, r27
    25f4:	51 e1       	ldi	r21, 0x11	; 17
    25f6:	07 c0       	rjmp	.+14     	; 0x2606 <__udivmodhi4_ep>

000025f8 <__udivmodhi4_loop>:
    25f8:	aa 1f       	adc	r26, r26
    25fa:	bb 1f       	adc	r27, r27
    25fc:	a6 17       	cp	r26, r22
    25fe:	b7 07       	cpc	r27, r23
    2600:	10 f0       	brcs	.+4      	; 0x2606 <__udivmodhi4_ep>
    2602:	a6 1b       	sub	r26, r22
    2604:	b7 0b       	sbc	r27, r23

00002606 <__udivmodhi4_ep>:
    2606:	88 1f       	adc	r24, r24
    2608:	99 1f       	adc	r25, r25
    260a:	5a 95       	dec	r21
    260c:	a9 f7       	brne	.-22     	; 0x25f8 <__udivmodhi4_loop>
    260e:	80 95       	com	r24
    2610:	90 95       	com	r25
    2612:	bc 01       	movw	r22, r24
    2614:	cd 01       	movw	r24, r26
    2616:	08 95       	ret

00002618 <__prologue_saves__>:
    2618:	2f 92       	push	r2
    261a:	3f 92       	push	r3
    261c:	4f 92       	push	r4
    261e:	5f 92       	push	r5
    2620:	6f 92       	push	r6
    2622:	7f 92       	push	r7
    2624:	8f 92       	push	r8
    2626:	9f 92       	push	r9
    2628:	af 92       	push	r10
    262a:	bf 92       	push	r11
    262c:	cf 92       	push	r12
    262e:	df 92       	push	r13
    2630:	ef 92       	push	r14
    2632:	ff 92       	push	r15
    2634:	0f 93       	push	r16
    2636:	1f 93       	push	r17
    2638:	cf 93       	push	r28
    263a:	df 93       	push	r29
    263c:	cd b7       	in	r28, 0x3d	; 61
    263e:	de b7       	in	r29, 0x3e	; 62
    2640:	ca 1b       	sub	r28, r26
    2642:	db 0b       	sbc	r29, r27
    2644:	0f b6       	in	r0, 0x3f	; 63
    2646:	f8 94       	cli
    2648:	de bf       	out	0x3e, r29	; 62
    264a:	0f be       	out	0x3f, r0	; 63
    264c:	cd bf       	out	0x3d, r28	; 61
    264e:	09 94       	ijmp

00002650 <__epilogue_restores__>:
    2650:	2a 88       	ldd	r2, Y+18	; 0x12
    2652:	39 88       	ldd	r3, Y+17	; 0x11
    2654:	48 88       	ldd	r4, Y+16	; 0x10
    2656:	5f 84       	ldd	r5, Y+15	; 0x0f
    2658:	6e 84       	ldd	r6, Y+14	; 0x0e
    265a:	7d 84       	ldd	r7, Y+13	; 0x0d
    265c:	8c 84       	ldd	r8, Y+12	; 0x0c
    265e:	9b 84       	ldd	r9, Y+11	; 0x0b
    2660:	aa 84       	ldd	r10, Y+10	; 0x0a
    2662:	b9 84       	ldd	r11, Y+9	; 0x09
    2664:	c8 84       	ldd	r12, Y+8	; 0x08
    2666:	df 80       	ldd	r13, Y+7	; 0x07
    2668:	ee 80       	ldd	r14, Y+6	; 0x06
    266a:	fd 80       	ldd	r15, Y+5	; 0x05
    266c:	0c 81       	ldd	r16, Y+4	; 0x04
    266e:	1b 81       	ldd	r17, Y+3	; 0x03
    2670:	aa 81       	ldd	r26, Y+2	; 0x02
    2672:	b9 81       	ldd	r27, Y+1	; 0x01
    2674:	ce 0f       	add	r28, r30
    2676:	d1 1d       	adc	r29, r1
    2678:	0f b6       	in	r0, 0x3f	; 63
    267a:	f8 94       	cli
    267c:	de bf       	out	0x3e, r29	; 62
    267e:	0f be       	out	0x3f, r0	; 63
    2680:	cd bf       	out	0x3d, r28	; 61
    2682:	ed 01       	movw	r28, r26
    2684:	08 95       	ret

00002686 <_exit>:
    2686:	f8 94       	cli

00002688 <__stop_program>:
    2688:	ff cf       	rjmp	.-2      	; 0x2688 <__stop_program>
