
DIO_Version2Test.elf:     file format elf32-avr

Sections:
Idx Name          Size      VMA       LMA       File off  Algn
  0 .text         00001986  00000000  00000000  00000074  2**1
                  CONTENTS, ALLOC, LOAD, READONLY, CODE
  1 .data         00000008  00800060  00001986  000019fa  2**0
                  CONTENTS, ALLOC, LOAD, DATA
  2 .stab         00000f0c  00000000  00000000  00001a04  2**2
                  CONTENTS, READONLY, DEBUGGING
  3 .stabstr      0000094e  00000000  00000000  00002910  2**0
                  CONTENTS, READONLY, DEBUGGING
  4 .debug_aranges 00000140  00000000  00000000  0000325e  2**0
                  CONTENTS, READONLY, DEBUGGING
  5 .debug_pubnames 00000170  00000000  00000000  0000339e  2**0
                  CONTENTS, READONLY, DEBUGGING
  6 .debug_info   00001c49  00000000  00000000  0000350e  2**0
                  CONTENTS, READONLY, DEBUGGING
  7 .debug_abbrev 00000eeb  00000000  00000000  00005157  2**0
                  CONTENTS, READONLY, DEBUGGING
  8 .debug_line   00000dad  00000000  00000000  00006042  2**0
                  CONTENTS, READONLY, DEBUGGING
  9 .debug_frame  00000160  00000000  00000000  00006df0  2**2
                  CONTENTS, READONLY, DEBUGGING
 10 .debug_str    0000028d  00000000  00000000  00006f50  2**0
                  CONTENTS, READONLY, DEBUGGING
 11 .debug_loc    000007ce  00000000  00000000  000071dd  2**0
                  CONTENTS, READONLY, DEBUGGING
 12 .debug_ranges 00000050  00000000  00000000  000079ab  2**0
                  CONTENTS, READONLY, DEBUGGING

Disassembly of section .text:

00000000 <__vectors>:
       0:	0c 94 2a 00 	jmp	0x54	; 0x54 <__ctors_end>
       4:	0c 94 3f 00 	jmp	0x7e	; 0x7e <__bad_interrupt>
       8:	0c 94 3f 00 	jmp	0x7e	; 0x7e <__bad_interrupt>
       c:	0c 94 3f 00 	jmp	0x7e	; 0x7e <__bad_interrupt>
      10:	0c 94 3f 00 	jmp	0x7e	; 0x7e <__bad_interrupt>
      14:	0c 94 3f 00 	jmp	0x7e	; 0x7e <__bad_interrupt>
      18:	0c 94 3f 00 	jmp	0x7e	; 0x7e <__bad_interrupt>
      1c:	0c 94 3f 00 	jmp	0x7e	; 0x7e <__bad_interrupt>
      20:	0c 94 3f 00 	jmp	0x7e	; 0x7e <__bad_interrupt>
      24:	0c 94 3f 00 	jmp	0x7e	; 0x7e <__bad_interrupt>
      28:	0c 94 3f 00 	jmp	0x7e	; 0x7e <__bad_interrupt>
      2c:	0c 94 3f 00 	jmp	0x7e	; 0x7e <__bad_interrupt>
      30:	0c 94 3f 00 	jmp	0x7e	; 0x7e <__bad_interrupt>
      34:	0c 94 3f 00 	jmp	0x7e	; 0x7e <__bad_interrupt>
      38:	0c 94 3f 00 	jmp	0x7e	; 0x7e <__bad_interrupt>
      3c:	0c 94 3f 00 	jmp	0x7e	; 0x7e <__bad_interrupt>
      40:	0c 94 3f 00 	jmp	0x7e	; 0x7e <__bad_interrupt>
      44:	0c 94 3f 00 	jmp	0x7e	; 0x7e <__bad_interrupt>
      48:	0c 94 3f 00 	jmp	0x7e	; 0x7e <__bad_interrupt>
      4c:	0c 94 3f 00 	jmp	0x7e	; 0x7e <__bad_interrupt>
      50:	0c 94 3f 00 	jmp	0x7e	; 0x7e <__bad_interrupt>

00000054 <__ctors_end>:
      54:	11 24       	eor	r1, r1
      56:	1f be       	out	0x3f, r1	; 63
      58:	cf e5       	ldi	r28, 0x5F	; 95
      5a:	d8 e0       	ldi	r29, 0x08	; 8
      5c:	de bf       	out	0x3e, r29	; 62
      5e:	cd bf       	out	0x3d, r28	; 61

00000060 <__do_copy_data>:
      60:	10 e0       	ldi	r17, 0x00	; 0
      62:	a0 e6       	ldi	r26, 0x60	; 96
      64:	b0 e0       	ldi	r27, 0x00	; 0
      66:	e6 e8       	ldi	r30, 0x86	; 134
      68:	f9 e1       	ldi	r31, 0x19	; 25
      6a:	02 c0       	rjmp	.+4      	; 0x70 <.do_copy_data_start>

0000006c <.do_copy_data_loop>:
      6c:	05 90       	lpm	r0, Z+
      6e:	0d 92       	st	X+, r0

00000070 <.do_copy_data_start>:
      70:	a8 36       	cpi	r26, 0x68	; 104
      72:	b1 07       	cpc	r27, r17
      74:	d9 f7       	brne	.-10     	; 0x6c <.do_copy_data_loop>
      76:	0e 94 4b 0b 	call	0x1696	; 0x1696 <main>
      7a:	0c 94 c1 0c 	jmp	0x1982	; 0x1982 <_exit>

0000007e <__bad_interrupt>:
      7e:	0c 94 00 00 	jmp	0	; 0x0 <__vectors>

00000082 <__fixunssfsi>:
      82:	ef 92       	push	r14
      84:	ff 92       	push	r15
      86:	0f 93       	push	r16
      88:	1f 93       	push	r17
      8a:	7b 01       	movw	r14, r22
      8c:	8c 01       	movw	r16, r24
      8e:	20 e0       	ldi	r18, 0x00	; 0
      90:	30 e0       	ldi	r19, 0x00	; 0
      92:	40 e0       	ldi	r20, 0x00	; 0
      94:	5f e4       	ldi	r21, 0x4F	; 79
      96:	0e 94 41 03 	call	0x682	; 0x682 <__gesf2>
      9a:	88 23       	and	r24, r24
      9c:	8c f0       	brlt	.+34     	; 0xc0 <__fixunssfsi+0x3e>
      9e:	c8 01       	movw	r24, r16
      a0:	b7 01       	movw	r22, r14
      a2:	20 e0       	ldi	r18, 0x00	; 0
      a4:	30 e0       	ldi	r19, 0x00	; 0
      a6:	40 e0       	ldi	r20, 0x00	; 0
      a8:	5f e4       	ldi	r21, 0x4F	; 79
      aa:	0e 94 b9 01 	call	0x372	; 0x372 <__subsf3>
      ae:	0e 94 a1 03 	call	0x742	; 0x742 <__fixsfsi>
      b2:	9b 01       	movw	r18, r22
      b4:	ac 01       	movw	r20, r24
      b6:	20 50       	subi	r18, 0x00	; 0
      b8:	30 40       	sbci	r19, 0x00	; 0
      ba:	40 40       	sbci	r20, 0x00	; 0
      bc:	50 48       	sbci	r21, 0x80	; 128
      be:	06 c0       	rjmp	.+12     	; 0xcc <__fixunssfsi+0x4a>
      c0:	c8 01       	movw	r24, r16
      c2:	b7 01       	movw	r22, r14
      c4:	0e 94 a1 03 	call	0x742	; 0x742 <__fixsfsi>
      c8:	9b 01       	movw	r18, r22
      ca:	ac 01       	movw	r20, r24
      cc:	b9 01       	movw	r22, r18
      ce:	ca 01       	movw	r24, r20
      d0:	1f 91       	pop	r17
      d2:	0f 91       	pop	r16
      d4:	ff 90       	pop	r15
      d6:	ef 90       	pop	r14
      d8:	08 95       	ret

000000da <_fpadd_parts>:
      da:	a0 e0       	ldi	r26, 0x00	; 0
      dc:	b0 e0       	ldi	r27, 0x00	; 0
      de:	e3 e7       	ldi	r30, 0x73	; 115
      e0:	f0 e0       	ldi	r31, 0x00	; 0
      e2:	0c 94 8a 0c 	jmp	0x1914	; 0x1914 <__prologue_saves__>
      e6:	dc 01       	movw	r26, r24
      e8:	2b 01       	movw	r4, r22
      ea:	fa 01       	movw	r30, r20
      ec:	9c 91       	ld	r25, X
      ee:	92 30       	cpi	r25, 0x02	; 2
      f0:	08 f4       	brcc	.+2      	; 0xf4 <_fpadd_parts+0x1a>
      f2:	39 c1       	rjmp	.+626    	; 0x366 <_fpadd_parts+0x28c>
      f4:	eb 01       	movw	r28, r22
      f6:	88 81       	ld	r24, Y
      f8:	82 30       	cpi	r24, 0x02	; 2
      fa:	08 f4       	brcc	.+2      	; 0xfe <_fpadd_parts+0x24>
      fc:	33 c1       	rjmp	.+614    	; 0x364 <_fpadd_parts+0x28a>
      fe:	94 30       	cpi	r25, 0x04	; 4
     100:	69 f4       	brne	.+26     	; 0x11c <_fpadd_parts+0x42>
     102:	84 30       	cpi	r24, 0x04	; 4
     104:	09 f0       	breq	.+2      	; 0x108 <_fpadd_parts+0x2e>
     106:	2f c1       	rjmp	.+606    	; 0x366 <_fpadd_parts+0x28c>
     108:	11 96       	adiw	r26, 0x01	; 1
     10a:	9c 91       	ld	r25, X
     10c:	11 97       	sbiw	r26, 0x01	; 1
     10e:	89 81       	ldd	r24, Y+1	; 0x01
     110:	98 17       	cp	r25, r24
     112:	09 f4       	brne	.+2      	; 0x116 <_fpadd_parts+0x3c>
     114:	28 c1       	rjmp	.+592    	; 0x366 <_fpadd_parts+0x28c>
     116:	a0 e6       	ldi	r26, 0x60	; 96
     118:	b0 e0       	ldi	r27, 0x00	; 0
     11a:	25 c1       	rjmp	.+586    	; 0x366 <_fpadd_parts+0x28c>
     11c:	84 30       	cpi	r24, 0x04	; 4
     11e:	09 f4       	brne	.+2      	; 0x122 <_fpadd_parts+0x48>
     120:	21 c1       	rjmp	.+578    	; 0x364 <_fpadd_parts+0x28a>
     122:	82 30       	cpi	r24, 0x02	; 2
     124:	a9 f4       	brne	.+42     	; 0x150 <_fpadd_parts+0x76>
     126:	92 30       	cpi	r25, 0x02	; 2
     128:	09 f0       	breq	.+2      	; 0x12c <_fpadd_parts+0x52>
     12a:	1d c1       	rjmp	.+570    	; 0x366 <_fpadd_parts+0x28c>
     12c:	9a 01       	movw	r18, r20
     12e:	ad 01       	movw	r20, r26
     130:	88 e0       	ldi	r24, 0x08	; 8
     132:	ea 01       	movw	r28, r20
     134:	09 90       	ld	r0, Y+
     136:	ae 01       	movw	r20, r28
     138:	e9 01       	movw	r28, r18
     13a:	09 92       	st	Y+, r0
     13c:	9e 01       	movw	r18, r28
     13e:	81 50       	subi	r24, 0x01	; 1
     140:	c1 f7       	brne	.-16     	; 0x132 <_fpadd_parts+0x58>
     142:	e2 01       	movw	r28, r4
     144:	89 81       	ldd	r24, Y+1	; 0x01
     146:	11 96       	adiw	r26, 0x01	; 1
     148:	9c 91       	ld	r25, X
     14a:	89 23       	and	r24, r25
     14c:	81 83       	std	Z+1, r24	; 0x01
     14e:	08 c1       	rjmp	.+528    	; 0x360 <_fpadd_parts+0x286>
     150:	92 30       	cpi	r25, 0x02	; 2
     152:	09 f4       	brne	.+2      	; 0x156 <_fpadd_parts+0x7c>
     154:	07 c1       	rjmp	.+526    	; 0x364 <_fpadd_parts+0x28a>
     156:	12 96       	adiw	r26, 0x02	; 2
     158:	2d 90       	ld	r2, X+
     15a:	3c 90       	ld	r3, X
     15c:	13 97       	sbiw	r26, 0x03	; 3
     15e:	eb 01       	movw	r28, r22
     160:	8a 81       	ldd	r24, Y+2	; 0x02
     162:	9b 81       	ldd	r25, Y+3	; 0x03
     164:	14 96       	adiw	r26, 0x04	; 4
     166:	ad 90       	ld	r10, X+
     168:	bd 90       	ld	r11, X+
     16a:	cd 90       	ld	r12, X+
     16c:	dc 90       	ld	r13, X
     16e:	17 97       	sbiw	r26, 0x07	; 7
     170:	ec 80       	ldd	r14, Y+4	; 0x04
     172:	fd 80       	ldd	r15, Y+5	; 0x05
     174:	0e 81       	ldd	r16, Y+6	; 0x06
     176:	1f 81       	ldd	r17, Y+7	; 0x07
     178:	91 01       	movw	r18, r2
     17a:	28 1b       	sub	r18, r24
     17c:	39 0b       	sbc	r19, r25
     17e:	b9 01       	movw	r22, r18
     180:	37 ff       	sbrs	r19, 7
     182:	04 c0       	rjmp	.+8      	; 0x18c <_fpadd_parts+0xb2>
     184:	66 27       	eor	r22, r22
     186:	77 27       	eor	r23, r23
     188:	62 1b       	sub	r22, r18
     18a:	73 0b       	sbc	r23, r19
     18c:	60 32       	cpi	r22, 0x20	; 32
     18e:	71 05       	cpc	r23, r1
     190:	0c f0       	brlt	.+2      	; 0x194 <_fpadd_parts+0xba>
     192:	61 c0       	rjmp	.+194    	; 0x256 <_fpadd_parts+0x17c>
     194:	12 16       	cp	r1, r18
     196:	13 06       	cpc	r1, r19
     198:	6c f5       	brge	.+90     	; 0x1f4 <_fpadd_parts+0x11a>
     19a:	37 01       	movw	r6, r14
     19c:	48 01       	movw	r8, r16
     19e:	06 2e       	mov	r0, r22
     1a0:	04 c0       	rjmp	.+8      	; 0x1aa <_fpadd_parts+0xd0>
     1a2:	96 94       	lsr	r9
     1a4:	87 94       	ror	r8
     1a6:	77 94       	ror	r7
     1a8:	67 94       	ror	r6
     1aa:	0a 94       	dec	r0
     1ac:	d2 f7       	brpl	.-12     	; 0x1a2 <_fpadd_parts+0xc8>
     1ae:	21 e0       	ldi	r18, 0x01	; 1
     1b0:	30 e0       	ldi	r19, 0x00	; 0
     1b2:	40 e0       	ldi	r20, 0x00	; 0
     1b4:	50 e0       	ldi	r21, 0x00	; 0
     1b6:	04 c0       	rjmp	.+8      	; 0x1c0 <_fpadd_parts+0xe6>
     1b8:	22 0f       	add	r18, r18
     1ba:	33 1f       	adc	r19, r19
     1bc:	44 1f       	adc	r20, r20
     1be:	55 1f       	adc	r21, r21
     1c0:	6a 95       	dec	r22
     1c2:	d2 f7       	brpl	.-12     	; 0x1b8 <_fpadd_parts+0xde>
     1c4:	21 50       	subi	r18, 0x01	; 1
     1c6:	30 40       	sbci	r19, 0x00	; 0
     1c8:	40 40       	sbci	r20, 0x00	; 0
     1ca:	50 40       	sbci	r21, 0x00	; 0
     1cc:	2e 21       	and	r18, r14
     1ce:	3f 21       	and	r19, r15
     1d0:	40 23       	and	r20, r16
     1d2:	51 23       	and	r21, r17
     1d4:	21 15       	cp	r18, r1
     1d6:	31 05       	cpc	r19, r1
     1d8:	41 05       	cpc	r20, r1
     1da:	51 05       	cpc	r21, r1
     1dc:	21 f0       	breq	.+8      	; 0x1e6 <_fpadd_parts+0x10c>
     1de:	21 e0       	ldi	r18, 0x01	; 1
     1e0:	30 e0       	ldi	r19, 0x00	; 0
     1e2:	40 e0       	ldi	r20, 0x00	; 0
     1e4:	50 e0       	ldi	r21, 0x00	; 0
     1e6:	79 01       	movw	r14, r18
     1e8:	8a 01       	movw	r16, r20
     1ea:	e6 28       	or	r14, r6
     1ec:	f7 28       	or	r15, r7
     1ee:	08 29       	or	r16, r8
     1f0:	19 29       	or	r17, r9
     1f2:	3c c0       	rjmp	.+120    	; 0x26c <_fpadd_parts+0x192>
     1f4:	23 2b       	or	r18, r19
     1f6:	d1 f1       	breq	.+116    	; 0x26c <_fpadd_parts+0x192>
     1f8:	26 0e       	add	r2, r22
     1fa:	37 1e       	adc	r3, r23
     1fc:	35 01       	movw	r6, r10
     1fe:	46 01       	movw	r8, r12
     200:	06 2e       	mov	r0, r22
     202:	04 c0       	rjmp	.+8      	; 0x20c <_fpadd_parts+0x132>
     204:	96 94       	lsr	r9
     206:	87 94       	ror	r8
     208:	77 94       	ror	r7
     20a:	67 94       	ror	r6
     20c:	0a 94       	dec	r0
     20e:	d2 f7       	brpl	.-12     	; 0x204 <_fpadd_parts+0x12a>
     210:	21 e0       	ldi	r18, 0x01	; 1
     212:	30 e0       	ldi	r19, 0x00	; 0
     214:	40 e0       	ldi	r20, 0x00	; 0
     216:	50 e0       	ldi	r21, 0x00	; 0
     218:	04 c0       	rjmp	.+8      	; 0x222 <_fpadd_parts+0x148>
     21a:	22 0f       	add	r18, r18
     21c:	33 1f       	adc	r19, r19
     21e:	44 1f       	adc	r20, r20
     220:	55 1f       	adc	r21, r21
     222:	6a 95       	dec	r22
     224:	d2 f7       	brpl	.-12     	; 0x21a <_fpadd_parts+0x140>
     226:	21 50       	subi	r18, 0x01	; 1
     228:	30 40       	sbci	r19, 0x00	; 0
     22a:	40 40       	sbci	r20, 0x00	; 0
     22c:	50 40       	sbci	r21, 0x00	; 0
     22e:	2a 21       	and	r18, r10
     230:	3b 21       	and	r19, r11
     232:	4c 21       	and	r20, r12
     234:	5d 21       	and	r21, r13
     236:	21 15       	cp	r18, r1
     238:	31 05       	cpc	r19, r1
     23a:	41 05       	cpc	r20, r1
     23c:	51 05       	cpc	r21, r1
     23e:	21 f0       	breq	.+8      	; 0x248 <_fpadd_parts+0x16e>
     240:	21 e0       	ldi	r18, 0x01	; 1
     242:	30 e0       	ldi	r19, 0x00	; 0
     244:	40 e0       	ldi	r20, 0x00	; 0
     246:	50 e0       	ldi	r21, 0x00	; 0
     248:	59 01       	movw	r10, r18
     24a:	6a 01       	movw	r12, r20
     24c:	a6 28       	or	r10, r6
     24e:	b7 28       	or	r11, r7
     250:	c8 28       	or	r12, r8
     252:	d9 28       	or	r13, r9
     254:	0b c0       	rjmp	.+22     	; 0x26c <_fpadd_parts+0x192>
     256:	82 15       	cp	r24, r2
     258:	93 05       	cpc	r25, r3
     25a:	2c f0       	brlt	.+10     	; 0x266 <_fpadd_parts+0x18c>
     25c:	1c 01       	movw	r2, r24
     25e:	aa 24       	eor	r10, r10
     260:	bb 24       	eor	r11, r11
     262:	65 01       	movw	r12, r10
     264:	03 c0       	rjmp	.+6      	; 0x26c <_fpadd_parts+0x192>
     266:	ee 24       	eor	r14, r14
     268:	ff 24       	eor	r15, r15
     26a:	87 01       	movw	r16, r14
     26c:	11 96       	adiw	r26, 0x01	; 1
     26e:	9c 91       	ld	r25, X
     270:	d2 01       	movw	r26, r4
     272:	11 96       	adiw	r26, 0x01	; 1
     274:	8c 91       	ld	r24, X
     276:	98 17       	cp	r25, r24
     278:	09 f4       	brne	.+2      	; 0x27c <_fpadd_parts+0x1a2>
     27a:	45 c0       	rjmp	.+138    	; 0x306 <_fpadd_parts+0x22c>
     27c:	99 23       	and	r25, r25
     27e:	39 f0       	breq	.+14     	; 0x28e <_fpadd_parts+0x1b4>
     280:	a8 01       	movw	r20, r16
     282:	97 01       	movw	r18, r14
     284:	2a 19       	sub	r18, r10
     286:	3b 09       	sbc	r19, r11
     288:	4c 09       	sbc	r20, r12
     28a:	5d 09       	sbc	r21, r13
     28c:	06 c0       	rjmp	.+12     	; 0x29a <_fpadd_parts+0x1c0>
     28e:	a6 01       	movw	r20, r12
     290:	95 01       	movw	r18, r10
     292:	2e 19       	sub	r18, r14
     294:	3f 09       	sbc	r19, r15
     296:	40 0b       	sbc	r20, r16
     298:	51 0b       	sbc	r21, r17
     29a:	57 fd       	sbrc	r21, 7
     29c:	08 c0       	rjmp	.+16     	; 0x2ae <_fpadd_parts+0x1d4>
     29e:	11 82       	std	Z+1, r1	; 0x01
     2a0:	33 82       	std	Z+3, r3	; 0x03
     2a2:	22 82       	std	Z+2, r2	; 0x02
     2a4:	24 83       	std	Z+4, r18	; 0x04
     2a6:	35 83       	std	Z+5, r19	; 0x05
     2a8:	46 83       	std	Z+6, r20	; 0x06
     2aa:	57 83       	std	Z+7, r21	; 0x07
     2ac:	1d c0       	rjmp	.+58     	; 0x2e8 <_fpadd_parts+0x20e>
     2ae:	81 e0       	ldi	r24, 0x01	; 1
     2b0:	81 83       	std	Z+1, r24	; 0x01
     2b2:	33 82       	std	Z+3, r3	; 0x03
     2b4:	22 82       	std	Z+2, r2	; 0x02
     2b6:	88 27       	eor	r24, r24
     2b8:	99 27       	eor	r25, r25
     2ba:	dc 01       	movw	r26, r24
     2bc:	82 1b       	sub	r24, r18
     2be:	93 0b       	sbc	r25, r19
     2c0:	a4 0b       	sbc	r26, r20
     2c2:	b5 0b       	sbc	r27, r21
     2c4:	84 83       	std	Z+4, r24	; 0x04
     2c6:	95 83       	std	Z+5, r25	; 0x05
     2c8:	a6 83       	std	Z+6, r26	; 0x06
     2ca:	b7 83       	std	Z+7, r27	; 0x07
     2cc:	0d c0       	rjmp	.+26     	; 0x2e8 <_fpadd_parts+0x20e>
     2ce:	22 0f       	add	r18, r18
     2d0:	33 1f       	adc	r19, r19
     2d2:	44 1f       	adc	r20, r20
     2d4:	55 1f       	adc	r21, r21
     2d6:	24 83       	std	Z+4, r18	; 0x04
     2d8:	35 83       	std	Z+5, r19	; 0x05
     2da:	46 83       	std	Z+6, r20	; 0x06
     2dc:	57 83       	std	Z+7, r21	; 0x07
     2de:	82 81       	ldd	r24, Z+2	; 0x02
     2e0:	93 81       	ldd	r25, Z+3	; 0x03
     2e2:	01 97       	sbiw	r24, 0x01	; 1
     2e4:	93 83       	std	Z+3, r25	; 0x03
     2e6:	82 83       	std	Z+2, r24	; 0x02
     2e8:	24 81       	ldd	r18, Z+4	; 0x04
     2ea:	35 81       	ldd	r19, Z+5	; 0x05
     2ec:	46 81       	ldd	r20, Z+6	; 0x06
     2ee:	57 81       	ldd	r21, Z+7	; 0x07
     2f0:	da 01       	movw	r26, r20
     2f2:	c9 01       	movw	r24, r18
     2f4:	01 97       	sbiw	r24, 0x01	; 1
     2f6:	a1 09       	sbc	r26, r1
     2f8:	b1 09       	sbc	r27, r1
     2fa:	8f 5f       	subi	r24, 0xFF	; 255
     2fc:	9f 4f       	sbci	r25, 0xFF	; 255
     2fe:	af 4f       	sbci	r26, 0xFF	; 255
     300:	bf 43       	sbci	r27, 0x3F	; 63
     302:	28 f3       	brcs	.-54     	; 0x2ce <_fpadd_parts+0x1f4>
     304:	0b c0       	rjmp	.+22     	; 0x31c <_fpadd_parts+0x242>
     306:	91 83       	std	Z+1, r25	; 0x01
     308:	33 82       	std	Z+3, r3	; 0x03
     30a:	22 82       	std	Z+2, r2	; 0x02
     30c:	ea 0c       	add	r14, r10
     30e:	fb 1c       	adc	r15, r11
     310:	0c 1d       	adc	r16, r12
     312:	1d 1d       	adc	r17, r13
     314:	e4 82       	std	Z+4, r14	; 0x04
     316:	f5 82       	std	Z+5, r15	; 0x05
     318:	06 83       	std	Z+6, r16	; 0x06
     31a:	17 83       	std	Z+7, r17	; 0x07
     31c:	83 e0       	ldi	r24, 0x03	; 3
     31e:	80 83       	st	Z, r24
     320:	24 81       	ldd	r18, Z+4	; 0x04
     322:	35 81       	ldd	r19, Z+5	; 0x05
     324:	46 81       	ldd	r20, Z+6	; 0x06
     326:	57 81       	ldd	r21, Z+7	; 0x07
     328:	57 ff       	sbrs	r21, 7
     32a:	1a c0       	rjmp	.+52     	; 0x360 <_fpadd_parts+0x286>
     32c:	c9 01       	movw	r24, r18
     32e:	aa 27       	eor	r26, r26
     330:	97 fd       	sbrc	r25, 7
     332:	a0 95       	com	r26
     334:	ba 2f       	mov	r27, r26
     336:	81 70       	andi	r24, 0x01	; 1
     338:	90 70       	andi	r25, 0x00	; 0
     33a:	a0 70       	andi	r26, 0x00	; 0
     33c:	b0 70       	andi	r27, 0x00	; 0
     33e:	56 95       	lsr	r21
     340:	47 95       	ror	r20
     342:	37 95       	ror	r19
     344:	27 95       	ror	r18
     346:	82 2b       	or	r24, r18
     348:	93 2b       	or	r25, r19
     34a:	a4 2b       	or	r26, r20
     34c:	b5 2b       	or	r27, r21
     34e:	84 83       	std	Z+4, r24	; 0x04
     350:	95 83       	std	Z+5, r25	; 0x05
     352:	a6 83       	std	Z+6, r26	; 0x06
     354:	b7 83       	std	Z+7, r27	; 0x07
     356:	82 81       	ldd	r24, Z+2	; 0x02
     358:	93 81       	ldd	r25, Z+3	; 0x03
     35a:	01 96       	adiw	r24, 0x01	; 1
     35c:	93 83       	std	Z+3, r25	; 0x03
     35e:	82 83       	std	Z+2, r24	; 0x02
     360:	df 01       	movw	r26, r30
     362:	01 c0       	rjmp	.+2      	; 0x366 <_fpadd_parts+0x28c>
     364:	d2 01       	movw	r26, r4
     366:	cd 01       	movw	r24, r26
     368:	cd b7       	in	r28, 0x3d	; 61
     36a:	de b7       	in	r29, 0x3e	; 62
     36c:	e2 e1       	ldi	r30, 0x12	; 18
     36e:	0c 94 a6 0c 	jmp	0x194c	; 0x194c <__epilogue_restores__>

00000372 <__subsf3>:
     372:	a0 e2       	ldi	r26, 0x20	; 32
     374:	b0 e0       	ldi	r27, 0x00	; 0
     376:	ef eb       	ldi	r30, 0xBF	; 191
     378:	f1 e0       	ldi	r31, 0x01	; 1
     37a:	0c 94 96 0c 	jmp	0x192c	; 0x192c <__prologue_saves__+0x18>
     37e:	69 83       	std	Y+1, r22	; 0x01
     380:	7a 83       	std	Y+2, r23	; 0x02
     382:	8b 83       	std	Y+3, r24	; 0x03
     384:	9c 83       	std	Y+4, r25	; 0x04
     386:	2d 83       	std	Y+5, r18	; 0x05
     388:	3e 83       	std	Y+6, r19	; 0x06
     38a:	4f 83       	std	Y+7, r20	; 0x07
     38c:	58 87       	std	Y+8, r21	; 0x08
     38e:	e9 e0       	ldi	r30, 0x09	; 9
     390:	ee 2e       	mov	r14, r30
     392:	f1 2c       	mov	r15, r1
     394:	ec 0e       	add	r14, r28
     396:	fd 1e       	adc	r15, r29
     398:	ce 01       	movw	r24, r28
     39a:	01 96       	adiw	r24, 0x01	; 1
     39c:	b7 01       	movw	r22, r14
     39e:	0e 94 ca 04 	call	0x994	; 0x994 <__unpack_f>
     3a2:	8e 01       	movw	r16, r28
     3a4:	0f 5e       	subi	r16, 0xEF	; 239
     3a6:	1f 4f       	sbci	r17, 0xFF	; 255
     3a8:	ce 01       	movw	r24, r28
     3aa:	05 96       	adiw	r24, 0x05	; 5
     3ac:	b8 01       	movw	r22, r16
     3ae:	0e 94 ca 04 	call	0x994	; 0x994 <__unpack_f>
     3b2:	8a 89       	ldd	r24, Y+18	; 0x12
     3b4:	91 e0       	ldi	r25, 0x01	; 1
     3b6:	89 27       	eor	r24, r25
     3b8:	8a 8b       	std	Y+18, r24	; 0x12
     3ba:	c7 01       	movw	r24, r14
     3bc:	b8 01       	movw	r22, r16
     3be:	ae 01       	movw	r20, r28
     3c0:	47 5e       	subi	r20, 0xE7	; 231
     3c2:	5f 4f       	sbci	r21, 0xFF	; 255
     3c4:	0e 94 6d 00 	call	0xda	; 0xda <_fpadd_parts>
     3c8:	0e 94 f5 03 	call	0x7ea	; 0x7ea <__pack_f>
     3cc:	a0 96       	adiw	r28, 0x20	; 32
     3ce:	e6 e0       	ldi	r30, 0x06	; 6
     3d0:	0c 94 b2 0c 	jmp	0x1964	; 0x1964 <__epilogue_restores__+0x18>

000003d4 <__addsf3>:
     3d4:	a0 e2       	ldi	r26, 0x20	; 32
     3d6:	b0 e0       	ldi	r27, 0x00	; 0
     3d8:	e0 ef       	ldi	r30, 0xF0	; 240
     3da:	f1 e0       	ldi	r31, 0x01	; 1
     3dc:	0c 94 96 0c 	jmp	0x192c	; 0x192c <__prologue_saves__+0x18>
     3e0:	69 83       	std	Y+1, r22	; 0x01
     3e2:	7a 83       	std	Y+2, r23	; 0x02
     3e4:	8b 83       	std	Y+3, r24	; 0x03
     3e6:	9c 83       	std	Y+4, r25	; 0x04
     3e8:	2d 83       	std	Y+5, r18	; 0x05
     3ea:	3e 83       	std	Y+6, r19	; 0x06
     3ec:	4f 83       	std	Y+7, r20	; 0x07
     3ee:	58 87       	std	Y+8, r21	; 0x08
     3f0:	f9 e0       	ldi	r31, 0x09	; 9
     3f2:	ef 2e       	mov	r14, r31
     3f4:	f1 2c       	mov	r15, r1
     3f6:	ec 0e       	add	r14, r28
     3f8:	fd 1e       	adc	r15, r29
     3fa:	ce 01       	movw	r24, r28
     3fc:	01 96       	adiw	r24, 0x01	; 1
     3fe:	b7 01       	movw	r22, r14
     400:	0e 94 ca 04 	call	0x994	; 0x994 <__unpack_f>
     404:	8e 01       	movw	r16, r28
     406:	0f 5e       	subi	r16, 0xEF	; 239
     408:	1f 4f       	sbci	r17, 0xFF	; 255
     40a:	ce 01       	movw	r24, r28
     40c:	05 96       	adiw	r24, 0x05	; 5
     40e:	b8 01       	movw	r22, r16
     410:	0e 94 ca 04 	call	0x994	; 0x994 <__unpack_f>
     414:	c7 01       	movw	r24, r14
     416:	b8 01       	movw	r22, r16
     418:	ae 01       	movw	r20, r28
     41a:	47 5e       	subi	r20, 0xE7	; 231
     41c:	5f 4f       	sbci	r21, 0xFF	; 255
     41e:	0e 94 6d 00 	call	0xda	; 0xda <_fpadd_parts>
     422:	0e 94 f5 03 	call	0x7ea	; 0x7ea <__pack_f>
     426:	a0 96       	adiw	r28, 0x20	; 32
     428:	e6 e0       	ldi	r30, 0x06	; 6
     42a:	0c 94 b2 0c 	jmp	0x1964	; 0x1964 <__epilogue_restores__+0x18>

0000042e <__mulsf3>:
     42e:	a0 e2       	ldi	r26, 0x20	; 32
     430:	b0 e0       	ldi	r27, 0x00	; 0
     432:	ed e1       	ldi	r30, 0x1D	; 29
     434:	f2 e0       	ldi	r31, 0x02	; 2
     436:	0c 94 8a 0c 	jmp	0x1914	; 0x1914 <__prologue_saves__>
     43a:	69 83       	std	Y+1, r22	; 0x01
     43c:	7a 83       	std	Y+2, r23	; 0x02
     43e:	8b 83       	std	Y+3, r24	; 0x03
     440:	9c 83       	std	Y+4, r25	; 0x04
     442:	2d 83       	std	Y+5, r18	; 0x05
     444:	3e 83       	std	Y+6, r19	; 0x06
     446:	4f 83       	std	Y+7, r20	; 0x07
     448:	58 87       	std	Y+8, r21	; 0x08
     44a:	ce 01       	movw	r24, r28
     44c:	01 96       	adiw	r24, 0x01	; 1
     44e:	be 01       	movw	r22, r28
     450:	67 5f       	subi	r22, 0xF7	; 247
     452:	7f 4f       	sbci	r23, 0xFF	; 255
     454:	0e 94 ca 04 	call	0x994	; 0x994 <__unpack_f>
     458:	ce 01       	movw	r24, r28
     45a:	05 96       	adiw	r24, 0x05	; 5
     45c:	be 01       	movw	r22, r28
     45e:	6f 5e       	subi	r22, 0xEF	; 239
     460:	7f 4f       	sbci	r23, 0xFF	; 255
     462:	0e 94 ca 04 	call	0x994	; 0x994 <__unpack_f>
     466:	99 85       	ldd	r25, Y+9	; 0x09
     468:	92 30       	cpi	r25, 0x02	; 2
     46a:	88 f0       	brcs	.+34     	; 0x48e <__mulsf3+0x60>
     46c:	89 89       	ldd	r24, Y+17	; 0x11
     46e:	82 30       	cpi	r24, 0x02	; 2
     470:	c8 f0       	brcs	.+50     	; 0x4a4 <__mulsf3+0x76>
     472:	94 30       	cpi	r25, 0x04	; 4
     474:	19 f4       	brne	.+6      	; 0x47c <__mulsf3+0x4e>
     476:	82 30       	cpi	r24, 0x02	; 2
     478:	51 f4       	brne	.+20     	; 0x48e <__mulsf3+0x60>
     47a:	04 c0       	rjmp	.+8      	; 0x484 <__mulsf3+0x56>
     47c:	84 30       	cpi	r24, 0x04	; 4
     47e:	29 f4       	brne	.+10     	; 0x48a <__mulsf3+0x5c>
     480:	92 30       	cpi	r25, 0x02	; 2
     482:	81 f4       	brne	.+32     	; 0x4a4 <__mulsf3+0x76>
     484:	80 e6       	ldi	r24, 0x60	; 96
     486:	90 e0       	ldi	r25, 0x00	; 0
     488:	c6 c0       	rjmp	.+396    	; 0x616 <__mulsf3+0x1e8>
     48a:	92 30       	cpi	r25, 0x02	; 2
     48c:	49 f4       	brne	.+18     	; 0x4a0 <__mulsf3+0x72>
     48e:	20 e0       	ldi	r18, 0x00	; 0
     490:	9a 85       	ldd	r25, Y+10	; 0x0a
     492:	8a 89       	ldd	r24, Y+18	; 0x12
     494:	98 13       	cpse	r25, r24
     496:	21 e0       	ldi	r18, 0x01	; 1
     498:	2a 87       	std	Y+10, r18	; 0x0a
     49a:	ce 01       	movw	r24, r28
     49c:	09 96       	adiw	r24, 0x09	; 9
     49e:	bb c0       	rjmp	.+374    	; 0x616 <__mulsf3+0x1e8>
     4a0:	82 30       	cpi	r24, 0x02	; 2
     4a2:	49 f4       	brne	.+18     	; 0x4b6 <__mulsf3+0x88>
     4a4:	20 e0       	ldi	r18, 0x00	; 0
     4a6:	9a 85       	ldd	r25, Y+10	; 0x0a
     4a8:	8a 89       	ldd	r24, Y+18	; 0x12
     4aa:	98 13       	cpse	r25, r24
     4ac:	21 e0       	ldi	r18, 0x01	; 1
     4ae:	2a 8b       	std	Y+18, r18	; 0x12
     4b0:	ce 01       	movw	r24, r28
     4b2:	41 96       	adiw	r24, 0x11	; 17
     4b4:	b0 c0       	rjmp	.+352    	; 0x616 <__mulsf3+0x1e8>
     4b6:	2d 84       	ldd	r2, Y+13	; 0x0d
     4b8:	3e 84       	ldd	r3, Y+14	; 0x0e
     4ba:	4f 84       	ldd	r4, Y+15	; 0x0f
     4bc:	58 88       	ldd	r5, Y+16	; 0x10
     4be:	6d 88       	ldd	r6, Y+21	; 0x15
     4c0:	7e 88       	ldd	r7, Y+22	; 0x16
     4c2:	8f 88       	ldd	r8, Y+23	; 0x17
     4c4:	98 8c       	ldd	r9, Y+24	; 0x18
     4c6:	ee 24       	eor	r14, r14
     4c8:	ff 24       	eor	r15, r15
     4ca:	87 01       	movw	r16, r14
     4cc:	aa 24       	eor	r10, r10
     4ce:	bb 24       	eor	r11, r11
     4d0:	65 01       	movw	r12, r10
     4d2:	40 e0       	ldi	r20, 0x00	; 0
     4d4:	50 e0       	ldi	r21, 0x00	; 0
     4d6:	60 e0       	ldi	r22, 0x00	; 0
     4d8:	70 e0       	ldi	r23, 0x00	; 0
     4da:	e0 e0       	ldi	r30, 0x00	; 0
     4dc:	f0 e0       	ldi	r31, 0x00	; 0
     4de:	c1 01       	movw	r24, r2
     4e0:	81 70       	andi	r24, 0x01	; 1
     4e2:	90 70       	andi	r25, 0x00	; 0
     4e4:	89 2b       	or	r24, r25
     4e6:	e9 f0       	breq	.+58     	; 0x522 <__mulsf3+0xf4>
     4e8:	e6 0c       	add	r14, r6
     4ea:	f7 1c       	adc	r15, r7
     4ec:	08 1d       	adc	r16, r8
     4ee:	19 1d       	adc	r17, r9
     4f0:	9a 01       	movw	r18, r20
     4f2:	ab 01       	movw	r20, r22
     4f4:	2a 0d       	add	r18, r10
     4f6:	3b 1d       	adc	r19, r11
     4f8:	4c 1d       	adc	r20, r12
     4fa:	5d 1d       	adc	r21, r13
     4fc:	80 e0       	ldi	r24, 0x00	; 0
     4fe:	90 e0       	ldi	r25, 0x00	; 0
     500:	a0 e0       	ldi	r26, 0x00	; 0
     502:	b0 e0       	ldi	r27, 0x00	; 0
     504:	e6 14       	cp	r14, r6
     506:	f7 04       	cpc	r15, r7
     508:	08 05       	cpc	r16, r8
     50a:	19 05       	cpc	r17, r9
     50c:	20 f4       	brcc	.+8      	; 0x516 <__mulsf3+0xe8>
     50e:	81 e0       	ldi	r24, 0x01	; 1
     510:	90 e0       	ldi	r25, 0x00	; 0
     512:	a0 e0       	ldi	r26, 0x00	; 0
     514:	b0 e0       	ldi	r27, 0x00	; 0
     516:	ba 01       	movw	r22, r20
     518:	a9 01       	movw	r20, r18
     51a:	48 0f       	add	r20, r24
     51c:	59 1f       	adc	r21, r25
     51e:	6a 1f       	adc	r22, r26
     520:	7b 1f       	adc	r23, r27
     522:	aa 0c       	add	r10, r10
     524:	bb 1c       	adc	r11, r11
     526:	cc 1c       	adc	r12, r12
     528:	dd 1c       	adc	r13, r13
     52a:	97 fe       	sbrs	r9, 7
     52c:	08 c0       	rjmp	.+16     	; 0x53e <__mulsf3+0x110>
     52e:	81 e0       	ldi	r24, 0x01	; 1
     530:	90 e0       	ldi	r25, 0x00	; 0
     532:	a0 e0       	ldi	r26, 0x00	; 0
     534:	b0 e0       	ldi	r27, 0x00	; 0
     536:	a8 2a       	or	r10, r24
     538:	b9 2a       	or	r11, r25
     53a:	ca 2a       	or	r12, r26
     53c:	db 2a       	or	r13, r27
     53e:	31 96       	adiw	r30, 0x01	; 1
     540:	e0 32       	cpi	r30, 0x20	; 32
     542:	f1 05       	cpc	r31, r1
     544:	49 f0       	breq	.+18     	; 0x558 <__mulsf3+0x12a>
     546:	66 0c       	add	r6, r6
     548:	77 1c       	adc	r7, r7
     54a:	88 1c       	adc	r8, r8
     54c:	99 1c       	adc	r9, r9
     54e:	56 94       	lsr	r5
     550:	47 94       	ror	r4
     552:	37 94       	ror	r3
     554:	27 94       	ror	r2
     556:	c3 cf       	rjmp	.-122    	; 0x4de <__mulsf3+0xb0>
     558:	fa 85       	ldd	r31, Y+10	; 0x0a
     55a:	ea 89       	ldd	r30, Y+18	; 0x12
     55c:	2b 89       	ldd	r18, Y+19	; 0x13
     55e:	3c 89       	ldd	r19, Y+20	; 0x14
     560:	8b 85       	ldd	r24, Y+11	; 0x0b
     562:	9c 85       	ldd	r25, Y+12	; 0x0c
     564:	28 0f       	add	r18, r24
     566:	39 1f       	adc	r19, r25
     568:	2e 5f       	subi	r18, 0xFE	; 254
     56a:	3f 4f       	sbci	r19, 0xFF	; 255
     56c:	17 c0       	rjmp	.+46     	; 0x59c <__mulsf3+0x16e>
     56e:	ca 01       	movw	r24, r20
     570:	81 70       	andi	r24, 0x01	; 1
     572:	90 70       	andi	r25, 0x00	; 0
     574:	89 2b       	or	r24, r25
     576:	61 f0       	breq	.+24     	; 0x590 <__mulsf3+0x162>
     578:	16 95       	lsr	r17
     57a:	07 95       	ror	r16
     57c:	f7 94       	ror	r15
     57e:	e7 94       	ror	r14
     580:	80 e0       	ldi	r24, 0x00	; 0
     582:	90 e0       	ldi	r25, 0x00	; 0
     584:	a0 e0       	ldi	r26, 0x00	; 0
     586:	b0 e8       	ldi	r27, 0x80	; 128
     588:	e8 2a       	or	r14, r24
     58a:	f9 2a       	or	r15, r25
     58c:	0a 2b       	or	r16, r26
     58e:	1b 2b       	or	r17, r27
     590:	76 95       	lsr	r23
     592:	67 95       	ror	r22
     594:	57 95       	ror	r21
     596:	47 95       	ror	r20
     598:	2f 5f       	subi	r18, 0xFF	; 255
     59a:	3f 4f       	sbci	r19, 0xFF	; 255
     59c:	77 fd       	sbrc	r23, 7
     59e:	e7 cf       	rjmp	.-50     	; 0x56e <__mulsf3+0x140>
     5a0:	0c c0       	rjmp	.+24     	; 0x5ba <__mulsf3+0x18c>
     5a2:	44 0f       	add	r20, r20
     5a4:	55 1f       	adc	r21, r21
     5a6:	66 1f       	adc	r22, r22
     5a8:	77 1f       	adc	r23, r23
     5aa:	17 fd       	sbrc	r17, 7
     5ac:	41 60       	ori	r20, 0x01	; 1
     5ae:	ee 0c       	add	r14, r14
     5b0:	ff 1c       	adc	r15, r15
     5b2:	00 1f       	adc	r16, r16
     5b4:	11 1f       	adc	r17, r17
     5b6:	21 50       	subi	r18, 0x01	; 1
     5b8:	30 40       	sbci	r19, 0x00	; 0
     5ba:	40 30       	cpi	r20, 0x00	; 0
     5bc:	90 e0       	ldi	r25, 0x00	; 0
     5be:	59 07       	cpc	r21, r25
     5c0:	90 e0       	ldi	r25, 0x00	; 0
     5c2:	69 07       	cpc	r22, r25
     5c4:	90 e4       	ldi	r25, 0x40	; 64
     5c6:	79 07       	cpc	r23, r25
     5c8:	60 f3       	brcs	.-40     	; 0x5a2 <__mulsf3+0x174>
     5ca:	2b 8f       	std	Y+27, r18	; 0x1b
     5cc:	3c 8f       	std	Y+28, r19	; 0x1c
     5ce:	db 01       	movw	r26, r22
     5d0:	ca 01       	movw	r24, r20
     5d2:	8f 77       	andi	r24, 0x7F	; 127
     5d4:	90 70       	andi	r25, 0x00	; 0
     5d6:	a0 70       	andi	r26, 0x00	; 0
     5d8:	b0 70       	andi	r27, 0x00	; 0
     5da:	80 34       	cpi	r24, 0x40	; 64
     5dc:	91 05       	cpc	r25, r1
     5de:	a1 05       	cpc	r26, r1
     5e0:	b1 05       	cpc	r27, r1
     5e2:	61 f4       	brne	.+24     	; 0x5fc <__mulsf3+0x1ce>
     5e4:	47 fd       	sbrc	r20, 7
     5e6:	0a c0       	rjmp	.+20     	; 0x5fc <__mulsf3+0x1ce>
     5e8:	e1 14       	cp	r14, r1
     5ea:	f1 04       	cpc	r15, r1
     5ec:	01 05       	cpc	r16, r1
     5ee:	11 05       	cpc	r17, r1
     5f0:	29 f0       	breq	.+10     	; 0x5fc <__mulsf3+0x1ce>
     5f2:	40 5c       	subi	r20, 0xC0	; 192
     5f4:	5f 4f       	sbci	r21, 0xFF	; 255
     5f6:	6f 4f       	sbci	r22, 0xFF	; 255
     5f8:	7f 4f       	sbci	r23, 0xFF	; 255
     5fa:	40 78       	andi	r20, 0x80	; 128
     5fc:	1a 8e       	std	Y+26, r1	; 0x1a
     5fe:	fe 17       	cp	r31, r30
     600:	11 f0       	breq	.+4      	; 0x606 <__mulsf3+0x1d8>
     602:	81 e0       	ldi	r24, 0x01	; 1
     604:	8a 8f       	std	Y+26, r24	; 0x1a
     606:	4d 8f       	std	Y+29, r20	; 0x1d
     608:	5e 8f       	std	Y+30, r21	; 0x1e
     60a:	6f 8f       	std	Y+31, r22	; 0x1f
     60c:	78 a3       	std	Y+32, r23	; 0x20
     60e:	83 e0       	ldi	r24, 0x03	; 3
     610:	89 8f       	std	Y+25, r24	; 0x19
     612:	ce 01       	movw	r24, r28
     614:	49 96       	adiw	r24, 0x19	; 25
     616:	0e 94 f5 03 	call	0x7ea	; 0x7ea <__pack_f>
     61a:	a0 96       	adiw	r28, 0x20	; 32
     61c:	e2 e1       	ldi	r30, 0x12	; 18
     61e:	0c 94 a6 0c 	jmp	0x194c	; 0x194c <__epilogue_restores__>

00000622 <__gtsf2>:
     622:	a8 e1       	ldi	r26, 0x18	; 24
     624:	b0 e0       	ldi	r27, 0x00	; 0
     626:	e7 e1       	ldi	r30, 0x17	; 23
     628:	f3 e0       	ldi	r31, 0x03	; 3
     62a:	0c 94 96 0c 	jmp	0x192c	; 0x192c <__prologue_saves__+0x18>
     62e:	69 83       	std	Y+1, r22	; 0x01
     630:	7a 83       	std	Y+2, r23	; 0x02
     632:	8b 83       	std	Y+3, r24	; 0x03
     634:	9c 83       	std	Y+4, r25	; 0x04
     636:	2d 83       	std	Y+5, r18	; 0x05
     638:	3e 83       	std	Y+6, r19	; 0x06
     63a:	4f 83       	std	Y+7, r20	; 0x07
     63c:	58 87       	std	Y+8, r21	; 0x08
     63e:	89 e0       	ldi	r24, 0x09	; 9
     640:	e8 2e       	mov	r14, r24
     642:	f1 2c       	mov	r15, r1
     644:	ec 0e       	add	r14, r28
     646:	fd 1e       	adc	r15, r29
     648:	ce 01       	movw	r24, r28
     64a:	01 96       	adiw	r24, 0x01	; 1
     64c:	b7 01       	movw	r22, r14
     64e:	0e 94 ca 04 	call	0x994	; 0x994 <__unpack_f>
     652:	8e 01       	movw	r16, r28
     654:	0f 5e       	subi	r16, 0xEF	; 239
     656:	1f 4f       	sbci	r17, 0xFF	; 255
     658:	ce 01       	movw	r24, r28
     65a:	05 96       	adiw	r24, 0x05	; 5
     65c:	b8 01       	movw	r22, r16
     65e:	0e 94 ca 04 	call	0x994	; 0x994 <__unpack_f>
     662:	89 85       	ldd	r24, Y+9	; 0x09
     664:	82 30       	cpi	r24, 0x02	; 2
     666:	40 f0       	brcs	.+16     	; 0x678 <__gtsf2+0x56>
     668:	89 89       	ldd	r24, Y+17	; 0x11
     66a:	82 30       	cpi	r24, 0x02	; 2
     66c:	28 f0       	brcs	.+10     	; 0x678 <__gtsf2+0x56>
     66e:	c7 01       	movw	r24, r14
     670:	b8 01       	movw	r22, r16
     672:	0e 94 42 05 	call	0xa84	; 0xa84 <__fpcmp_parts_f>
     676:	01 c0       	rjmp	.+2      	; 0x67a <__gtsf2+0x58>
     678:	8f ef       	ldi	r24, 0xFF	; 255
     67a:	68 96       	adiw	r28, 0x18	; 24
     67c:	e6 e0       	ldi	r30, 0x06	; 6
     67e:	0c 94 b2 0c 	jmp	0x1964	; 0x1964 <__epilogue_restores__+0x18>

00000682 <__gesf2>:
     682:	a8 e1       	ldi	r26, 0x18	; 24
     684:	b0 e0       	ldi	r27, 0x00	; 0
     686:	e7 e4       	ldi	r30, 0x47	; 71
     688:	f3 e0       	ldi	r31, 0x03	; 3
     68a:	0c 94 96 0c 	jmp	0x192c	; 0x192c <__prologue_saves__+0x18>
     68e:	69 83       	std	Y+1, r22	; 0x01
     690:	7a 83       	std	Y+2, r23	; 0x02
     692:	8b 83       	std	Y+3, r24	; 0x03
     694:	9c 83       	std	Y+4, r25	; 0x04
     696:	2d 83       	std	Y+5, r18	; 0x05
     698:	3e 83       	std	Y+6, r19	; 0x06
     69a:	4f 83       	std	Y+7, r20	; 0x07
     69c:	58 87       	std	Y+8, r21	; 0x08
     69e:	89 e0       	ldi	r24, 0x09	; 9
     6a0:	e8 2e       	mov	r14, r24
     6a2:	f1 2c       	mov	r15, r1
     6a4:	ec 0e       	add	r14, r28
     6a6:	fd 1e       	adc	r15, r29
     6a8:	ce 01       	movw	r24, r28
     6aa:	01 96       	adiw	r24, 0x01	; 1
     6ac:	b7 01       	movw	r22, r14
     6ae:	0e 94 ca 04 	call	0x994	; 0x994 <__unpack_f>
     6b2:	8e 01       	movw	r16, r28
     6b4:	0f 5e       	subi	r16, 0xEF	; 239
     6b6:	1f 4f       	sbci	r17, 0xFF	; 255
     6b8:	ce 01       	movw	r24, r28
     6ba:	05 96       	adiw	r24, 0x05	; 5
     6bc:	b8 01       	movw	r22, r16
     6be:	0e 94 ca 04 	call	0x994	; 0x994 <__unpack_f>
     6c2:	89 85       	ldd	r24, Y+9	; 0x09
     6c4:	82 30       	cpi	r24, 0x02	; 2
     6c6:	40 f0       	brcs	.+16     	; 0x6d8 <__gesf2+0x56>
     6c8:	89 89       	ldd	r24, Y+17	; 0x11
     6ca:	82 30       	cpi	r24, 0x02	; 2
     6cc:	28 f0       	brcs	.+10     	; 0x6d8 <__gesf2+0x56>
     6ce:	c7 01       	movw	r24, r14
     6d0:	b8 01       	movw	r22, r16
     6d2:	0e 94 42 05 	call	0xa84	; 0xa84 <__fpcmp_parts_f>
     6d6:	01 c0       	rjmp	.+2      	; 0x6da <__gesf2+0x58>
     6d8:	8f ef       	ldi	r24, 0xFF	; 255
     6da:	68 96       	adiw	r28, 0x18	; 24
     6dc:	e6 e0       	ldi	r30, 0x06	; 6
     6de:	0c 94 b2 0c 	jmp	0x1964	; 0x1964 <__epilogue_restores__+0x18>

000006e2 <__ltsf2>:
     6e2:	a8 e1       	ldi	r26, 0x18	; 24
     6e4:	b0 e0       	ldi	r27, 0x00	; 0
     6e6:	e7 e7       	ldi	r30, 0x77	; 119
     6e8:	f3 e0       	ldi	r31, 0x03	; 3
     6ea:	0c 94 96 0c 	jmp	0x192c	; 0x192c <__prologue_saves__+0x18>
     6ee:	69 83       	std	Y+1, r22	; 0x01
     6f0:	7a 83       	std	Y+2, r23	; 0x02
     6f2:	8b 83       	std	Y+3, r24	; 0x03
     6f4:	9c 83       	std	Y+4, r25	; 0x04
     6f6:	2d 83       	std	Y+5, r18	; 0x05
     6f8:	3e 83       	std	Y+6, r19	; 0x06
     6fa:	4f 83       	std	Y+7, r20	; 0x07
     6fc:	58 87       	std	Y+8, r21	; 0x08
     6fe:	89 e0       	ldi	r24, 0x09	; 9
     700:	e8 2e       	mov	r14, r24
     702:	f1 2c       	mov	r15, r1
     704:	ec 0e       	add	r14, r28
     706:	fd 1e       	adc	r15, r29
     708:	ce 01       	movw	r24, r28
     70a:	01 96       	adiw	r24, 0x01	; 1
     70c:	b7 01       	movw	r22, r14
     70e:	0e 94 ca 04 	call	0x994	; 0x994 <__unpack_f>
     712:	8e 01       	movw	r16, r28
     714:	0f 5e       	subi	r16, 0xEF	; 239
     716:	1f 4f       	sbci	r17, 0xFF	; 255
     718:	ce 01       	movw	r24, r28
     71a:	05 96       	adiw	r24, 0x05	; 5
     71c:	b8 01       	movw	r22, r16
     71e:	0e 94 ca 04 	call	0x994	; 0x994 <__unpack_f>
     722:	89 85       	ldd	r24, Y+9	; 0x09
     724:	82 30       	cpi	r24, 0x02	; 2
     726:	40 f0       	brcs	.+16     	; 0x738 <__ltsf2+0x56>
     728:	89 89       	ldd	r24, Y+17	; 0x11
     72a:	82 30       	cpi	r24, 0x02	; 2
     72c:	28 f0       	brcs	.+10     	; 0x738 <__ltsf2+0x56>
     72e:	c7 01       	movw	r24, r14
     730:	b8 01       	movw	r22, r16
     732:	0e 94 42 05 	call	0xa84	; 0xa84 <__fpcmp_parts_f>
     736:	01 c0       	rjmp	.+2      	; 0x73a <__ltsf2+0x58>
     738:	81 e0       	ldi	r24, 0x01	; 1
     73a:	68 96       	adiw	r28, 0x18	; 24
     73c:	e6 e0       	ldi	r30, 0x06	; 6
     73e:	0c 94 b2 0c 	jmp	0x1964	; 0x1964 <__epilogue_restores__+0x18>

00000742 <__fixsfsi>:
     742:	ac e0       	ldi	r26, 0x0C	; 12
     744:	b0 e0       	ldi	r27, 0x00	; 0
     746:	e7 ea       	ldi	r30, 0xA7	; 167
     748:	f3 e0       	ldi	r31, 0x03	; 3
     74a:	0c 94 9a 0c 	jmp	0x1934	; 0x1934 <__prologue_saves__+0x20>
     74e:	69 83       	std	Y+1, r22	; 0x01
     750:	7a 83       	std	Y+2, r23	; 0x02
     752:	8b 83       	std	Y+3, r24	; 0x03
     754:	9c 83       	std	Y+4, r25	; 0x04
     756:	ce 01       	movw	r24, r28
     758:	01 96       	adiw	r24, 0x01	; 1
     75a:	be 01       	movw	r22, r28
     75c:	6b 5f       	subi	r22, 0xFB	; 251
     75e:	7f 4f       	sbci	r23, 0xFF	; 255
     760:	0e 94 ca 04 	call	0x994	; 0x994 <__unpack_f>
     764:	8d 81       	ldd	r24, Y+5	; 0x05
     766:	82 30       	cpi	r24, 0x02	; 2
     768:	61 f1       	breq	.+88     	; 0x7c2 <__fixsfsi+0x80>
     76a:	82 30       	cpi	r24, 0x02	; 2
     76c:	50 f1       	brcs	.+84     	; 0x7c2 <__fixsfsi+0x80>
     76e:	84 30       	cpi	r24, 0x04	; 4
     770:	21 f4       	brne	.+8      	; 0x77a <__fixsfsi+0x38>
     772:	8e 81       	ldd	r24, Y+6	; 0x06
     774:	88 23       	and	r24, r24
     776:	51 f1       	breq	.+84     	; 0x7cc <__fixsfsi+0x8a>
     778:	2e c0       	rjmp	.+92     	; 0x7d6 <__fixsfsi+0x94>
     77a:	2f 81       	ldd	r18, Y+7	; 0x07
     77c:	38 85       	ldd	r19, Y+8	; 0x08
     77e:	37 fd       	sbrc	r19, 7
     780:	20 c0       	rjmp	.+64     	; 0x7c2 <__fixsfsi+0x80>
     782:	6e 81       	ldd	r22, Y+6	; 0x06
     784:	2f 31       	cpi	r18, 0x1F	; 31
     786:	31 05       	cpc	r19, r1
     788:	1c f0       	brlt	.+6      	; 0x790 <__fixsfsi+0x4e>
     78a:	66 23       	and	r22, r22
     78c:	f9 f0       	breq	.+62     	; 0x7cc <__fixsfsi+0x8a>
     78e:	23 c0       	rjmp	.+70     	; 0x7d6 <__fixsfsi+0x94>
     790:	8e e1       	ldi	r24, 0x1E	; 30
     792:	90 e0       	ldi	r25, 0x00	; 0
     794:	82 1b       	sub	r24, r18
     796:	93 0b       	sbc	r25, r19
     798:	29 85       	ldd	r18, Y+9	; 0x09
     79a:	3a 85       	ldd	r19, Y+10	; 0x0a
     79c:	4b 85       	ldd	r20, Y+11	; 0x0b
     79e:	5c 85       	ldd	r21, Y+12	; 0x0c
     7a0:	04 c0       	rjmp	.+8      	; 0x7aa <__fixsfsi+0x68>
     7a2:	56 95       	lsr	r21
     7a4:	47 95       	ror	r20
     7a6:	37 95       	ror	r19
     7a8:	27 95       	ror	r18
     7aa:	8a 95       	dec	r24
     7ac:	d2 f7       	brpl	.-12     	; 0x7a2 <__fixsfsi+0x60>
     7ae:	66 23       	and	r22, r22
     7b0:	b1 f0       	breq	.+44     	; 0x7de <__fixsfsi+0x9c>
     7b2:	50 95       	com	r21
     7b4:	40 95       	com	r20
     7b6:	30 95       	com	r19
     7b8:	21 95       	neg	r18
     7ba:	3f 4f       	sbci	r19, 0xFF	; 255
     7bc:	4f 4f       	sbci	r20, 0xFF	; 255
     7be:	5f 4f       	sbci	r21, 0xFF	; 255
     7c0:	0e c0       	rjmp	.+28     	; 0x7de <__fixsfsi+0x9c>
     7c2:	20 e0       	ldi	r18, 0x00	; 0
     7c4:	30 e0       	ldi	r19, 0x00	; 0
     7c6:	40 e0       	ldi	r20, 0x00	; 0
     7c8:	50 e0       	ldi	r21, 0x00	; 0
     7ca:	09 c0       	rjmp	.+18     	; 0x7de <__fixsfsi+0x9c>
     7cc:	2f ef       	ldi	r18, 0xFF	; 255
     7ce:	3f ef       	ldi	r19, 0xFF	; 255
     7d0:	4f ef       	ldi	r20, 0xFF	; 255
     7d2:	5f e7       	ldi	r21, 0x7F	; 127
     7d4:	04 c0       	rjmp	.+8      	; 0x7de <__fixsfsi+0x9c>
     7d6:	20 e0       	ldi	r18, 0x00	; 0
     7d8:	30 e0       	ldi	r19, 0x00	; 0
     7da:	40 e0       	ldi	r20, 0x00	; 0
     7dc:	50 e8       	ldi	r21, 0x80	; 128
     7de:	b9 01       	movw	r22, r18
     7e0:	ca 01       	movw	r24, r20
     7e2:	2c 96       	adiw	r28, 0x0c	; 12
     7e4:	e2 e0       	ldi	r30, 0x02	; 2
     7e6:	0c 94 b6 0c 	jmp	0x196c	; 0x196c <__epilogue_restores__+0x20>

000007ea <__pack_f>:
     7ea:	df 92       	push	r13
     7ec:	ef 92       	push	r14
     7ee:	ff 92       	push	r15
     7f0:	0f 93       	push	r16
     7f2:	1f 93       	push	r17
     7f4:	fc 01       	movw	r30, r24
     7f6:	e4 80       	ldd	r14, Z+4	; 0x04
     7f8:	f5 80       	ldd	r15, Z+5	; 0x05
     7fa:	06 81       	ldd	r16, Z+6	; 0x06
     7fc:	17 81       	ldd	r17, Z+7	; 0x07
     7fe:	d1 80       	ldd	r13, Z+1	; 0x01
     800:	80 81       	ld	r24, Z
     802:	82 30       	cpi	r24, 0x02	; 2
     804:	48 f4       	brcc	.+18     	; 0x818 <__pack_f+0x2e>
     806:	80 e0       	ldi	r24, 0x00	; 0
     808:	90 e0       	ldi	r25, 0x00	; 0
     80a:	a0 e1       	ldi	r26, 0x10	; 16
     80c:	b0 e0       	ldi	r27, 0x00	; 0
     80e:	e8 2a       	or	r14, r24
     810:	f9 2a       	or	r15, r25
     812:	0a 2b       	or	r16, r26
     814:	1b 2b       	or	r17, r27
     816:	a5 c0       	rjmp	.+330    	; 0x962 <__stack+0x103>
     818:	84 30       	cpi	r24, 0x04	; 4
     81a:	09 f4       	brne	.+2      	; 0x81e <__pack_f+0x34>
     81c:	9f c0       	rjmp	.+318    	; 0x95c <__stack+0xfd>
     81e:	82 30       	cpi	r24, 0x02	; 2
     820:	21 f4       	brne	.+8      	; 0x82a <__pack_f+0x40>
     822:	ee 24       	eor	r14, r14
     824:	ff 24       	eor	r15, r15
     826:	87 01       	movw	r16, r14
     828:	05 c0       	rjmp	.+10     	; 0x834 <__pack_f+0x4a>
     82a:	e1 14       	cp	r14, r1
     82c:	f1 04       	cpc	r15, r1
     82e:	01 05       	cpc	r16, r1
     830:	11 05       	cpc	r17, r1
     832:	19 f4       	brne	.+6      	; 0x83a <__pack_f+0x50>
     834:	e0 e0       	ldi	r30, 0x00	; 0
     836:	f0 e0       	ldi	r31, 0x00	; 0
     838:	96 c0       	rjmp	.+300    	; 0x966 <__stack+0x107>
     83a:	62 81       	ldd	r22, Z+2	; 0x02
     83c:	73 81       	ldd	r23, Z+3	; 0x03
     83e:	9f ef       	ldi	r25, 0xFF	; 255
     840:	62 38       	cpi	r22, 0x82	; 130
     842:	79 07       	cpc	r23, r25
     844:	0c f0       	brlt	.+2      	; 0x848 <__pack_f+0x5e>
     846:	5b c0       	rjmp	.+182    	; 0x8fe <__stack+0x9f>
     848:	22 e8       	ldi	r18, 0x82	; 130
     84a:	3f ef       	ldi	r19, 0xFF	; 255
     84c:	26 1b       	sub	r18, r22
     84e:	37 0b       	sbc	r19, r23
     850:	2a 31       	cpi	r18, 0x1A	; 26
     852:	31 05       	cpc	r19, r1
     854:	2c f0       	brlt	.+10     	; 0x860 <__stack+0x1>
     856:	20 e0       	ldi	r18, 0x00	; 0
     858:	30 e0       	ldi	r19, 0x00	; 0
     85a:	40 e0       	ldi	r20, 0x00	; 0
     85c:	50 e0       	ldi	r21, 0x00	; 0
     85e:	2a c0       	rjmp	.+84     	; 0x8b4 <__stack+0x55>
     860:	b8 01       	movw	r22, r16
     862:	a7 01       	movw	r20, r14
     864:	02 2e       	mov	r0, r18
     866:	04 c0       	rjmp	.+8      	; 0x870 <__stack+0x11>
     868:	76 95       	lsr	r23
     86a:	67 95       	ror	r22
     86c:	57 95       	ror	r21
     86e:	47 95       	ror	r20
     870:	0a 94       	dec	r0
     872:	d2 f7       	brpl	.-12     	; 0x868 <__stack+0x9>
     874:	81 e0       	ldi	r24, 0x01	; 1
     876:	90 e0       	ldi	r25, 0x00	; 0
     878:	a0 e0       	ldi	r26, 0x00	; 0
     87a:	b0 e0       	ldi	r27, 0x00	; 0
     87c:	04 c0       	rjmp	.+8      	; 0x886 <__stack+0x27>
     87e:	88 0f       	add	r24, r24
     880:	99 1f       	adc	r25, r25
     882:	aa 1f       	adc	r26, r26
     884:	bb 1f       	adc	r27, r27
     886:	2a 95       	dec	r18
     888:	d2 f7       	brpl	.-12     	; 0x87e <__stack+0x1f>
     88a:	01 97       	sbiw	r24, 0x01	; 1
     88c:	a1 09       	sbc	r26, r1
     88e:	b1 09       	sbc	r27, r1
     890:	8e 21       	and	r24, r14
     892:	9f 21       	and	r25, r15
     894:	a0 23       	and	r26, r16
     896:	b1 23       	and	r27, r17
     898:	00 97       	sbiw	r24, 0x00	; 0
     89a:	a1 05       	cpc	r26, r1
     89c:	b1 05       	cpc	r27, r1
     89e:	21 f0       	breq	.+8      	; 0x8a8 <__stack+0x49>
     8a0:	81 e0       	ldi	r24, 0x01	; 1
     8a2:	90 e0       	ldi	r25, 0x00	; 0
     8a4:	a0 e0       	ldi	r26, 0x00	; 0
     8a6:	b0 e0       	ldi	r27, 0x00	; 0
     8a8:	9a 01       	movw	r18, r20
     8aa:	ab 01       	movw	r20, r22
     8ac:	28 2b       	or	r18, r24
     8ae:	39 2b       	or	r19, r25
     8b0:	4a 2b       	or	r20, r26
     8b2:	5b 2b       	or	r21, r27
     8b4:	da 01       	movw	r26, r20
     8b6:	c9 01       	movw	r24, r18
     8b8:	8f 77       	andi	r24, 0x7F	; 127
     8ba:	90 70       	andi	r25, 0x00	; 0
     8bc:	a0 70       	andi	r26, 0x00	; 0
     8be:	b0 70       	andi	r27, 0x00	; 0
     8c0:	80 34       	cpi	r24, 0x40	; 64
     8c2:	91 05       	cpc	r25, r1
     8c4:	a1 05       	cpc	r26, r1
     8c6:	b1 05       	cpc	r27, r1
     8c8:	39 f4       	brne	.+14     	; 0x8d8 <__stack+0x79>
     8ca:	27 ff       	sbrs	r18, 7
     8cc:	09 c0       	rjmp	.+18     	; 0x8e0 <__stack+0x81>
     8ce:	20 5c       	subi	r18, 0xC0	; 192
     8d0:	3f 4f       	sbci	r19, 0xFF	; 255
     8d2:	4f 4f       	sbci	r20, 0xFF	; 255
     8d4:	5f 4f       	sbci	r21, 0xFF	; 255
     8d6:	04 c0       	rjmp	.+8      	; 0x8e0 <__stack+0x81>
     8d8:	21 5c       	subi	r18, 0xC1	; 193
     8da:	3f 4f       	sbci	r19, 0xFF	; 255
     8dc:	4f 4f       	sbci	r20, 0xFF	; 255
     8de:	5f 4f       	sbci	r21, 0xFF	; 255
     8e0:	e0 e0       	ldi	r30, 0x00	; 0
     8e2:	f0 e0       	ldi	r31, 0x00	; 0
     8e4:	20 30       	cpi	r18, 0x00	; 0
     8e6:	a0 e0       	ldi	r26, 0x00	; 0
     8e8:	3a 07       	cpc	r19, r26
     8ea:	a0 e0       	ldi	r26, 0x00	; 0
     8ec:	4a 07       	cpc	r20, r26
     8ee:	a0 e4       	ldi	r26, 0x40	; 64
     8f0:	5a 07       	cpc	r21, r26
     8f2:	10 f0       	brcs	.+4      	; 0x8f8 <__stack+0x99>
     8f4:	e1 e0       	ldi	r30, 0x01	; 1
     8f6:	f0 e0       	ldi	r31, 0x00	; 0
     8f8:	79 01       	movw	r14, r18
     8fa:	8a 01       	movw	r16, r20
     8fc:	27 c0       	rjmp	.+78     	; 0x94c <__stack+0xed>
     8fe:	60 38       	cpi	r22, 0x80	; 128
     900:	71 05       	cpc	r23, r1
     902:	64 f5       	brge	.+88     	; 0x95c <__stack+0xfd>
     904:	fb 01       	movw	r30, r22
     906:	e1 58       	subi	r30, 0x81	; 129
     908:	ff 4f       	sbci	r31, 0xFF	; 255
     90a:	d8 01       	movw	r26, r16
     90c:	c7 01       	movw	r24, r14
     90e:	8f 77       	andi	r24, 0x7F	; 127
     910:	90 70       	andi	r25, 0x00	; 0
     912:	a0 70       	andi	r26, 0x00	; 0
     914:	b0 70       	andi	r27, 0x00	; 0
     916:	80 34       	cpi	r24, 0x40	; 64
     918:	91 05       	cpc	r25, r1
     91a:	a1 05       	cpc	r26, r1
     91c:	b1 05       	cpc	r27, r1
     91e:	39 f4       	brne	.+14     	; 0x92e <__stack+0xcf>
     920:	e7 fe       	sbrs	r14, 7
     922:	0d c0       	rjmp	.+26     	; 0x93e <__stack+0xdf>
     924:	80 e4       	ldi	r24, 0x40	; 64
     926:	90 e0       	ldi	r25, 0x00	; 0
     928:	a0 e0       	ldi	r26, 0x00	; 0
     92a:	b0 e0       	ldi	r27, 0x00	; 0
     92c:	04 c0       	rjmp	.+8      	; 0x936 <__stack+0xd7>
     92e:	8f e3       	ldi	r24, 0x3F	; 63
     930:	90 e0       	ldi	r25, 0x00	; 0
     932:	a0 e0       	ldi	r26, 0x00	; 0
     934:	b0 e0       	ldi	r27, 0x00	; 0
     936:	e8 0e       	add	r14, r24
     938:	f9 1e       	adc	r15, r25
     93a:	0a 1f       	adc	r16, r26
     93c:	1b 1f       	adc	r17, r27
     93e:	17 ff       	sbrs	r17, 7
     940:	05 c0       	rjmp	.+10     	; 0x94c <__stack+0xed>
     942:	16 95       	lsr	r17
     944:	07 95       	ror	r16
     946:	f7 94       	ror	r15
     948:	e7 94       	ror	r14
     94a:	31 96       	adiw	r30, 0x01	; 1
     94c:	87 e0       	ldi	r24, 0x07	; 7
     94e:	16 95       	lsr	r17
     950:	07 95       	ror	r16
     952:	f7 94       	ror	r15
     954:	e7 94       	ror	r14
     956:	8a 95       	dec	r24
     958:	d1 f7       	brne	.-12     	; 0x94e <__stack+0xef>
     95a:	05 c0       	rjmp	.+10     	; 0x966 <__stack+0x107>
     95c:	ee 24       	eor	r14, r14
     95e:	ff 24       	eor	r15, r15
     960:	87 01       	movw	r16, r14
     962:	ef ef       	ldi	r30, 0xFF	; 255
     964:	f0 e0       	ldi	r31, 0x00	; 0
     966:	6e 2f       	mov	r22, r30
     968:	67 95       	ror	r22
     96a:	66 27       	eor	r22, r22
     96c:	67 95       	ror	r22
     96e:	90 2f       	mov	r25, r16
     970:	9f 77       	andi	r25, 0x7F	; 127
     972:	d7 94       	ror	r13
     974:	dd 24       	eor	r13, r13
     976:	d7 94       	ror	r13
     978:	8e 2f       	mov	r24, r30
     97a:	86 95       	lsr	r24
     97c:	49 2f       	mov	r20, r25
     97e:	46 2b       	or	r20, r22
     980:	58 2f       	mov	r21, r24
     982:	5d 29       	or	r21, r13
     984:	b7 01       	movw	r22, r14
     986:	ca 01       	movw	r24, r20
     988:	1f 91       	pop	r17
     98a:	0f 91       	pop	r16
     98c:	ff 90       	pop	r15
     98e:	ef 90       	pop	r14
     990:	df 90       	pop	r13
     992:	08 95       	ret

00000994 <__unpack_f>:
     994:	fc 01       	movw	r30, r24
     996:	db 01       	movw	r26, r22
     998:	40 81       	ld	r20, Z
     99a:	51 81       	ldd	r21, Z+1	; 0x01
     99c:	22 81       	ldd	r18, Z+2	; 0x02
     99e:	62 2f       	mov	r22, r18
     9a0:	6f 77       	andi	r22, 0x7F	; 127
     9a2:	70 e0       	ldi	r23, 0x00	; 0
     9a4:	22 1f       	adc	r18, r18
     9a6:	22 27       	eor	r18, r18
     9a8:	22 1f       	adc	r18, r18
     9aa:	93 81       	ldd	r25, Z+3	; 0x03
     9ac:	89 2f       	mov	r24, r25
     9ae:	88 0f       	add	r24, r24
     9b0:	82 2b       	or	r24, r18
     9b2:	28 2f       	mov	r18, r24
     9b4:	30 e0       	ldi	r19, 0x00	; 0
     9b6:	99 1f       	adc	r25, r25
     9b8:	99 27       	eor	r25, r25
     9ba:	99 1f       	adc	r25, r25
     9bc:	11 96       	adiw	r26, 0x01	; 1
     9be:	9c 93       	st	X, r25
     9c0:	11 97       	sbiw	r26, 0x01	; 1
     9c2:	21 15       	cp	r18, r1
     9c4:	31 05       	cpc	r19, r1
     9c6:	a9 f5       	brne	.+106    	; 0xa32 <__unpack_f+0x9e>
     9c8:	41 15       	cp	r20, r1
     9ca:	51 05       	cpc	r21, r1
     9cc:	61 05       	cpc	r22, r1
     9ce:	71 05       	cpc	r23, r1
     9d0:	11 f4       	brne	.+4      	; 0x9d6 <__unpack_f+0x42>
     9d2:	82 e0       	ldi	r24, 0x02	; 2
     9d4:	37 c0       	rjmp	.+110    	; 0xa44 <__unpack_f+0xb0>
     9d6:	82 e8       	ldi	r24, 0x82	; 130
     9d8:	9f ef       	ldi	r25, 0xFF	; 255
     9da:	13 96       	adiw	r26, 0x03	; 3
     9dc:	9c 93       	st	X, r25
     9de:	8e 93       	st	-X, r24
     9e0:	12 97       	sbiw	r26, 0x02	; 2
     9e2:	9a 01       	movw	r18, r20
     9e4:	ab 01       	movw	r20, r22
     9e6:	67 e0       	ldi	r22, 0x07	; 7
     9e8:	22 0f       	add	r18, r18
     9ea:	33 1f       	adc	r19, r19
     9ec:	44 1f       	adc	r20, r20
     9ee:	55 1f       	adc	r21, r21
     9f0:	6a 95       	dec	r22
     9f2:	d1 f7       	brne	.-12     	; 0x9e8 <__unpack_f+0x54>
     9f4:	83 e0       	ldi	r24, 0x03	; 3
     9f6:	8c 93       	st	X, r24
     9f8:	0d c0       	rjmp	.+26     	; 0xa14 <__unpack_f+0x80>
     9fa:	22 0f       	add	r18, r18
     9fc:	33 1f       	adc	r19, r19
     9fe:	44 1f       	adc	r20, r20
     a00:	55 1f       	adc	r21, r21
     a02:	12 96       	adiw	r26, 0x02	; 2
     a04:	8d 91       	ld	r24, X+
     a06:	9c 91       	ld	r25, X
     a08:	13 97       	sbiw	r26, 0x03	; 3
     a0a:	01 97       	sbiw	r24, 0x01	; 1
     a0c:	13 96       	adiw	r26, 0x03	; 3
     a0e:	9c 93       	st	X, r25
     a10:	8e 93       	st	-X, r24
     a12:	12 97       	sbiw	r26, 0x02	; 2
     a14:	20 30       	cpi	r18, 0x00	; 0
     a16:	80 e0       	ldi	r24, 0x00	; 0
     a18:	38 07       	cpc	r19, r24
     a1a:	80 e0       	ldi	r24, 0x00	; 0
     a1c:	48 07       	cpc	r20, r24
     a1e:	80 e4       	ldi	r24, 0x40	; 64
     a20:	58 07       	cpc	r21, r24
     a22:	58 f3       	brcs	.-42     	; 0x9fa <__unpack_f+0x66>
     a24:	14 96       	adiw	r26, 0x04	; 4
     a26:	2d 93       	st	X+, r18
     a28:	3d 93       	st	X+, r19
     a2a:	4d 93       	st	X+, r20
     a2c:	5c 93       	st	X, r21
     a2e:	17 97       	sbiw	r26, 0x07	; 7
     a30:	08 95       	ret
     a32:	2f 3f       	cpi	r18, 0xFF	; 255
     a34:	31 05       	cpc	r19, r1
     a36:	79 f4       	brne	.+30     	; 0xa56 <__unpack_f+0xc2>
     a38:	41 15       	cp	r20, r1
     a3a:	51 05       	cpc	r21, r1
     a3c:	61 05       	cpc	r22, r1
     a3e:	71 05       	cpc	r23, r1
     a40:	19 f4       	brne	.+6      	; 0xa48 <__unpack_f+0xb4>
     a42:	84 e0       	ldi	r24, 0x04	; 4
     a44:	8c 93       	st	X, r24
     a46:	08 95       	ret
     a48:	64 ff       	sbrs	r22, 4
     a4a:	03 c0       	rjmp	.+6      	; 0xa52 <__unpack_f+0xbe>
     a4c:	81 e0       	ldi	r24, 0x01	; 1
     a4e:	8c 93       	st	X, r24
     a50:	12 c0       	rjmp	.+36     	; 0xa76 <__unpack_f+0xe2>
     a52:	1c 92       	st	X, r1
     a54:	10 c0       	rjmp	.+32     	; 0xa76 <__unpack_f+0xe2>
     a56:	2f 57       	subi	r18, 0x7F	; 127
     a58:	30 40       	sbci	r19, 0x00	; 0
     a5a:	13 96       	adiw	r26, 0x03	; 3
     a5c:	3c 93       	st	X, r19
     a5e:	2e 93       	st	-X, r18
     a60:	12 97       	sbiw	r26, 0x02	; 2
     a62:	83 e0       	ldi	r24, 0x03	; 3
     a64:	8c 93       	st	X, r24
     a66:	87 e0       	ldi	r24, 0x07	; 7
     a68:	44 0f       	add	r20, r20
     a6a:	55 1f       	adc	r21, r21
     a6c:	66 1f       	adc	r22, r22
     a6e:	77 1f       	adc	r23, r23
     a70:	8a 95       	dec	r24
     a72:	d1 f7       	brne	.-12     	; 0xa68 <__unpack_f+0xd4>
     a74:	70 64       	ori	r23, 0x40	; 64
     a76:	14 96       	adiw	r26, 0x04	; 4
     a78:	4d 93       	st	X+, r20
     a7a:	5d 93       	st	X+, r21
     a7c:	6d 93       	st	X+, r22
     a7e:	7c 93       	st	X, r23
     a80:	17 97       	sbiw	r26, 0x07	; 7
     a82:	08 95       	ret

00000a84 <__fpcmp_parts_f>:
     a84:	1f 93       	push	r17
     a86:	dc 01       	movw	r26, r24
     a88:	fb 01       	movw	r30, r22
     a8a:	9c 91       	ld	r25, X
     a8c:	92 30       	cpi	r25, 0x02	; 2
     a8e:	08 f4       	brcc	.+2      	; 0xa92 <__fpcmp_parts_f+0xe>
     a90:	47 c0       	rjmp	.+142    	; 0xb20 <__fpcmp_parts_f+0x9c>
     a92:	80 81       	ld	r24, Z
     a94:	82 30       	cpi	r24, 0x02	; 2
     a96:	08 f4       	brcc	.+2      	; 0xa9a <__fpcmp_parts_f+0x16>
     a98:	43 c0       	rjmp	.+134    	; 0xb20 <__fpcmp_parts_f+0x9c>
     a9a:	94 30       	cpi	r25, 0x04	; 4
     a9c:	51 f4       	brne	.+20     	; 0xab2 <__fpcmp_parts_f+0x2e>
     a9e:	11 96       	adiw	r26, 0x01	; 1
     aa0:	1c 91       	ld	r17, X
     aa2:	84 30       	cpi	r24, 0x04	; 4
     aa4:	99 f5       	brne	.+102    	; 0xb0c <__fpcmp_parts_f+0x88>
     aa6:	81 81       	ldd	r24, Z+1	; 0x01
     aa8:	68 2f       	mov	r22, r24
     aaa:	70 e0       	ldi	r23, 0x00	; 0
     aac:	61 1b       	sub	r22, r17
     aae:	71 09       	sbc	r23, r1
     ab0:	3f c0       	rjmp	.+126    	; 0xb30 <__fpcmp_parts_f+0xac>
     ab2:	84 30       	cpi	r24, 0x04	; 4
     ab4:	21 f0       	breq	.+8      	; 0xabe <__fpcmp_parts_f+0x3a>
     ab6:	92 30       	cpi	r25, 0x02	; 2
     ab8:	31 f4       	brne	.+12     	; 0xac6 <__fpcmp_parts_f+0x42>
     aba:	82 30       	cpi	r24, 0x02	; 2
     abc:	b9 f1       	breq	.+110    	; 0xb2c <__fpcmp_parts_f+0xa8>
     abe:	81 81       	ldd	r24, Z+1	; 0x01
     ac0:	88 23       	and	r24, r24
     ac2:	89 f1       	breq	.+98     	; 0xb26 <__fpcmp_parts_f+0xa2>
     ac4:	2d c0       	rjmp	.+90     	; 0xb20 <__fpcmp_parts_f+0x9c>
     ac6:	11 96       	adiw	r26, 0x01	; 1
     ac8:	1c 91       	ld	r17, X
     aca:	11 97       	sbiw	r26, 0x01	; 1
     acc:	82 30       	cpi	r24, 0x02	; 2
     ace:	f1 f0       	breq	.+60     	; 0xb0c <__fpcmp_parts_f+0x88>
     ad0:	81 81       	ldd	r24, Z+1	; 0x01
     ad2:	18 17       	cp	r17, r24
     ad4:	d9 f4       	brne	.+54     	; 0xb0c <__fpcmp_parts_f+0x88>
     ad6:	12 96       	adiw	r26, 0x02	; 2
     ad8:	2d 91       	ld	r18, X+
     ada:	3c 91       	ld	r19, X
     adc:	13 97       	sbiw	r26, 0x03	; 3
     ade:	82 81       	ldd	r24, Z+2	; 0x02
     ae0:	93 81       	ldd	r25, Z+3	; 0x03
     ae2:	82 17       	cp	r24, r18
     ae4:	93 07       	cpc	r25, r19
     ae6:	94 f0       	brlt	.+36     	; 0xb0c <__fpcmp_parts_f+0x88>
     ae8:	28 17       	cp	r18, r24
     aea:	39 07       	cpc	r19, r25
     aec:	bc f0       	brlt	.+46     	; 0xb1c <__fpcmp_parts_f+0x98>
     aee:	14 96       	adiw	r26, 0x04	; 4
     af0:	8d 91       	ld	r24, X+
     af2:	9d 91       	ld	r25, X+
     af4:	0d 90       	ld	r0, X+
     af6:	bc 91       	ld	r27, X
     af8:	a0 2d       	mov	r26, r0
     afa:	24 81       	ldd	r18, Z+4	; 0x04
     afc:	35 81       	ldd	r19, Z+5	; 0x05
     afe:	46 81       	ldd	r20, Z+6	; 0x06
     b00:	57 81       	ldd	r21, Z+7	; 0x07
     b02:	28 17       	cp	r18, r24
     b04:	39 07       	cpc	r19, r25
     b06:	4a 07       	cpc	r20, r26
     b08:	5b 07       	cpc	r21, r27
     b0a:	18 f4       	brcc	.+6      	; 0xb12 <__fpcmp_parts_f+0x8e>
     b0c:	11 23       	and	r17, r17
     b0e:	41 f0       	breq	.+16     	; 0xb20 <__fpcmp_parts_f+0x9c>
     b10:	0a c0       	rjmp	.+20     	; 0xb26 <__fpcmp_parts_f+0xa2>
     b12:	82 17       	cp	r24, r18
     b14:	93 07       	cpc	r25, r19
     b16:	a4 07       	cpc	r26, r20
     b18:	b5 07       	cpc	r27, r21
     b1a:	40 f4       	brcc	.+16     	; 0xb2c <__fpcmp_parts_f+0xa8>
     b1c:	11 23       	and	r17, r17
     b1e:	19 f0       	breq	.+6      	; 0xb26 <__fpcmp_parts_f+0xa2>
     b20:	61 e0       	ldi	r22, 0x01	; 1
     b22:	70 e0       	ldi	r23, 0x00	; 0
     b24:	05 c0       	rjmp	.+10     	; 0xb30 <__fpcmp_parts_f+0xac>
     b26:	6f ef       	ldi	r22, 0xFF	; 255
     b28:	7f ef       	ldi	r23, 0xFF	; 255
     b2a:	02 c0       	rjmp	.+4      	; 0xb30 <__fpcmp_parts_f+0xac>
     b2c:	60 e0       	ldi	r22, 0x00	; 0
     b2e:	70 e0       	ldi	r23, 0x00	; 0
     b30:	cb 01       	movw	r24, r22
     b32:	1f 91       	pop	r17
     b34:	08 95       	ret

00000b36 <MDIO_stderrSetPortDirection>:
/* swc include */
#include "MDIO_private.h"
#include "MDIO_interface.h"

STD_error_t MDIO_stderrSetPortDirection(u8 ARG_u8Port, u8 ARG_u8Direction)
{
     b36:	df 93       	push	r29
     b38:	cf 93       	push	r28
     b3a:	00 d0       	rcall	.+0      	; 0xb3c <MDIO_stderrSetPortDirection+0x6>
     b3c:	00 d0       	rcall	.+0      	; 0xb3e <MDIO_stderrSetPortDirection+0x8>
     b3e:	0f 92       	push	r0
     b40:	cd b7       	in	r28, 0x3d	; 61
     b42:	de b7       	in	r29, 0x3e	; 62
     b44:	8a 83       	std	Y+2, r24	; 0x02
     b46:	6b 83       	std	Y+3, r22	; 0x03
	STD_error_t L_stderrError= E_OK;
     b48:	19 82       	std	Y+1, r1	; 0x01
	switch(ARG_u8Port)
     b4a:	8a 81       	ldd	r24, Y+2	; 0x02
     b4c:	28 2f       	mov	r18, r24
     b4e:	30 e0       	ldi	r19, 0x00	; 0
     b50:	3d 83       	std	Y+5, r19	; 0x05
     b52:	2c 83       	std	Y+4, r18	; 0x04
     b54:	8c 81       	ldd	r24, Y+4	; 0x04
     b56:	9d 81       	ldd	r25, Y+5	; 0x05
     b58:	82 30       	cpi	r24, 0x02	; 2
     b5a:	91 05       	cpc	r25, r1
     b5c:	d9 f0       	breq	.+54     	; 0xb94 <MDIO_stderrSetPortDirection+0x5e>
     b5e:	2c 81       	ldd	r18, Y+4	; 0x04
     b60:	3d 81       	ldd	r19, Y+5	; 0x05
     b62:	23 30       	cpi	r18, 0x03	; 3
     b64:	31 05       	cpc	r19, r1
     b66:	34 f4       	brge	.+12     	; 0xb74 <MDIO_stderrSetPortDirection+0x3e>
     b68:	8c 81       	ldd	r24, Y+4	; 0x04
     b6a:	9d 81       	ldd	r25, Y+5	; 0x05
     b6c:	81 30       	cpi	r24, 0x01	; 1
     b6e:	91 05       	cpc	r25, r1
     b70:	61 f0       	breq	.+24     	; 0xb8a <MDIO_stderrSetPortDirection+0x54>
     b72:	1f c0       	rjmp	.+62     	; 0xbb2 <MDIO_stderrSetPortDirection+0x7c>
     b74:	2c 81       	ldd	r18, Y+4	; 0x04
     b76:	3d 81       	ldd	r19, Y+5	; 0x05
     b78:	23 30       	cpi	r18, 0x03	; 3
     b7a:	31 05       	cpc	r19, r1
     b7c:	81 f0       	breq	.+32     	; 0xb9e <MDIO_stderrSetPortDirection+0x68>
     b7e:	8c 81       	ldd	r24, Y+4	; 0x04
     b80:	9d 81       	ldd	r25, Y+5	; 0x05
     b82:	84 30       	cpi	r24, 0x04	; 4
     b84:	91 05       	cpc	r25, r1
     b86:	81 f0       	breq	.+32     	; 0xba8 <MDIO_stderrSetPortDirection+0x72>
     b88:	14 c0       	rjmp	.+40     	; 0xbb2 <MDIO_stderrSetPortDirection+0x7c>
	{
		case MDIO_PORTA: GPIOA->DDR = ARG_u8Direction; break;
     b8a:	e9 e3       	ldi	r30, 0x39	; 57
     b8c:	f0 e0       	ldi	r31, 0x00	; 0
     b8e:	8b 81       	ldd	r24, Y+3	; 0x03
     b90:	81 83       	std	Z+1, r24	; 0x01
     b92:	11 c0       	rjmp	.+34     	; 0xbb6 <MDIO_stderrSetPortDirection+0x80>
		case MDIO_PORTB: GPIOB->DDR = ARG_u8Direction; break;
     b94:	e6 e3       	ldi	r30, 0x36	; 54
     b96:	f0 e0       	ldi	r31, 0x00	; 0
     b98:	8b 81       	ldd	r24, Y+3	; 0x03
     b9a:	81 83       	std	Z+1, r24	; 0x01
     b9c:	0c c0       	rjmp	.+24     	; 0xbb6 <MDIO_stderrSetPortDirection+0x80>
		case MDIO_PORTC: GPIOC->DDR = ARG_u8Direction; break;
     b9e:	e3 e3       	ldi	r30, 0x33	; 51
     ba0:	f0 e0       	ldi	r31, 0x00	; 0
     ba2:	8b 81       	ldd	r24, Y+3	; 0x03
     ba4:	81 83       	std	Z+1, r24	; 0x01
     ba6:	07 c0       	rjmp	.+14     	; 0xbb6 <MDIO_stderrSetPortDirection+0x80>
		case MDIO_PORTD: GPIOD->DDR = ARG_u8Direction; break;
     ba8:	e0 e3       	ldi	r30, 0x30	; 48
     baa:	f0 e0       	ldi	r31, 0x00	; 0
     bac:	8b 81       	ldd	r24, Y+3	; 0x03
     bae:	81 83       	std	Z+1, r24	; 0x01
     bb0:	02 c0       	rjmp	.+4      	; 0xbb6 <MDIO_stderrSetPortDirection+0x80>
		default: L_stderrError = E_NOK; break; /* reporrt error*/
     bb2:	81 e0       	ldi	r24, 0x01	; 1
     bb4:	89 83       	std	Y+1, r24	; 0x01
		
	}
	return L_stderrError;
     bb6:	89 81       	ldd	r24, Y+1	; 0x01
}
     bb8:	0f 90       	pop	r0
     bba:	0f 90       	pop	r0
     bbc:	0f 90       	pop	r0
     bbe:	0f 90       	pop	r0
     bc0:	0f 90       	pop	r0
     bc2:	cf 91       	pop	r28
     bc4:	df 91       	pop	r29
     bc6:	08 95       	ret

00000bc8 <MDIO_stderrSetPortValue>:

STD_error_t MDIO_stderrSetPortValue(u8 ARG_u8Port, u8 ARG_u8Value)
{
     bc8:	df 93       	push	r29
     bca:	cf 93       	push	r28
     bcc:	00 d0       	rcall	.+0      	; 0xbce <MDIO_stderrSetPortValue+0x6>
     bce:	00 d0       	rcall	.+0      	; 0xbd0 <MDIO_stderrSetPortValue+0x8>
     bd0:	0f 92       	push	r0
     bd2:	cd b7       	in	r28, 0x3d	; 61
     bd4:	de b7       	in	r29, 0x3e	; 62
     bd6:	8a 83       	std	Y+2, r24	; 0x02
     bd8:	6b 83       	std	Y+3, r22	; 0x03
	STD_error_t L_stderrError= E_OK;	
     bda:	19 82       	std	Y+1, r1	; 0x01
	switch(ARG_u8Port)
     bdc:	8a 81       	ldd	r24, Y+2	; 0x02
     bde:	28 2f       	mov	r18, r24
     be0:	30 e0       	ldi	r19, 0x00	; 0
     be2:	3d 83       	std	Y+5, r19	; 0x05
     be4:	2c 83       	std	Y+4, r18	; 0x04
     be6:	8c 81       	ldd	r24, Y+4	; 0x04
     be8:	9d 81       	ldd	r25, Y+5	; 0x05
     bea:	82 30       	cpi	r24, 0x02	; 2
     bec:	91 05       	cpc	r25, r1
     bee:	d9 f0       	breq	.+54     	; 0xc26 <MDIO_stderrSetPortValue+0x5e>
     bf0:	2c 81       	ldd	r18, Y+4	; 0x04
     bf2:	3d 81       	ldd	r19, Y+5	; 0x05
     bf4:	23 30       	cpi	r18, 0x03	; 3
     bf6:	31 05       	cpc	r19, r1
     bf8:	34 f4       	brge	.+12     	; 0xc06 <MDIO_stderrSetPortValue+0x3e>
     bfa:	8c 81       	ldd	r24, Y+4	; 0x04
     bfc:	9d 81       	ldd	r25, Y+5	; 0x05
     bfe:	81 30       	cpi	r24, 0x01	; 1
     c00:	91 05       	cpc	r25, r1
     c02:	61 f0       	breq	.+24     	; 0xc1c <MDIO_stderrSetPortValue+0x54>
     c04:	1f c0       	rjmp	.+62     	; 0xc44 <MDIO_stderrSetPortValue+0x7c>
     c06:	2c 81       	ldd	r18, Y+4	; 0x04
     c08:	3d 81       	ldd	r19, Y+5	; 0x05
     c0a:	23 30       	cpi	r18, 0x03	; 3
     c0c:	31 05       	cpc	r19, r1
     c0e:	81 f0       	breq	.+32     	; 0xc30 <MDIO_stderrSetPortValue+0x68>
     c10:	8c 81       	ldd	r24, Y+4	; 0x04
     c12:	9d 81       	ldd	r25, Y+5	; 0x05
     c14:	84 30       	cpi	r24, 0x04	; 4
     c16:	91 05       	cpc	r25, r1
     c18:	81 f0       	breq	.+32     	; 0xc3a <MDIO_stderrSetPortValue+0x72>
     c1a:	14 c0       	rjmp	.+40     	; 0xc44 <MDIO_stderrSetPortValue+0x7c>
	{
		case MDIO_PORTA:GPIOA->PORT = ARG_u8Value; break;
     c1c:	e9 e3       	ldi	r30, 0x39	; 57
     c1e:	f0 e0       	ldi	r31, 0x00	; 0
     c20:	8b 81       	ldd	r24, Y+3	; 0x03
     c22:	82 83       	std	Z+2, r24	; 0x02
     c24:	11 c0       	rjmp	.+34     	; 0xc48 <MDIO_stderrSetPortValue+0x80>
		case MDIO_PORTB:GPIOB->PORT = ARG_u8Value; break;
     c26:	e6 e3       	ldi	r30, 0x36	; 54
     c28:	f0 e0       	ldi	r31, 0x00	; 0
     c2a:	8b 81       	ldd	r24, Y+3	; 0x03
     c2c:	82 83       	std	Z+2, r24	; 0x02
     c2e:	0c c0       	rjmp	.+24     	; 0xc48 <MDIO_stderrSetPortValue+0x80>
		case MDIO_PORTC:GPIOC->PORT = ARG_u8Value; break;
     c30:	e3 e3       	ldi	r30, 0x33	; 51
     c32:	f0 e0       	ldi	r31, 0x00	; 0
     c34:	8b 81       	ldd	r24, Y+3	; 0x03
     c36:	82 83       	std	Z+2, r24	; 0x02
     c38:	07 c0       	rjmp	.+14     	; 0xc48 <MDIO_stderrSetPortValue+0x80>
		case MDIO_PORTD:GPIOD->PORT = ARG_u8Value; break;
     c3a:	e0 e3       	ldi	r30, 0x30	; 48
     c3c:	f0 e0       	ldi	r31, 0x00	; 0
     c3e:	8b 81       	ldd	r24, Y+3	; 0x03
     c40:	82 83       	std	Z+2, r24	; 0x02
     c42:	02 c0       	rjmp	.+4      	; 0xc48 <MDIO_stderrSetPortValue+0x80>
		default: L_stderrError = E_NOK; break; /* reporrt error*/
     c44:	81 e0       	ldi	r24, 0x01	; 1
     c46:	89 83       	std	Y+1, r24	; 0x01

	}
	return L_stderrError;
     c48:	89 81       	ldd	r24, Y+1	; 0x01
}
     c4a:	0f 90       	pop	r0
     c4c:	0f 90       	pop	r0
     c4e:	0f 90       	pop	r0
     c50:	0f 90       	pop	r0
     c52:	0f 90       	pop	r0
     c54:	cf 91       	pop	r28
     c56:	df 91       	pop	r29
     c58:	08 95       	ret

00000c5a <MDIO_stderrGetPortValue>:

STD_error_t MDIO_stderrGetPortValue(u8* ARG_u8PValue, u8 ARG_u8Port)
{
     c5a:	df 93       	push	r29
     c5c:	cf 93       	push	r28
     c5e:	00 d0       	rcall	.+0      	; 0xc60 <MDIO_stderrGetPortValue+0x6>
     c60:	00 d0       	rcall	.+0      	; 0xc62 <MDIO_stderrGetPortValue+0x8>
     c62:	00 d0       	rcall	.+0      	; 0xc64 <MDIO_stderrGetPortValue+0xa>
     c64:	cd b7       	in	r28, 0x3d	; 61
     c66:	de b7       	in	r29, 0x3e	; 62
     c68:	9b 83       	std	Y+3, r25	; 0x03
     c6a:	8a 83       	std	Y+2, r24	; 0x02
     c6c:	6c 83       	std	Y+4, r22	; 0x04
	STD_error_t L_stderrError= E_OK;
     c6e:	19 82       	std	Y+1, r1	; 0x01
	if(NULL_POINTER!=ARG_u8PValue)
     c70:	8a 81       	ldd	r24, Y+2	; 0x02
     c72:	9b 81       	ldd	r25, Y+3	; 0x03
     c74:	00 97       	sbiw	r24, 0x00	; 0
     c76:	09 f4       	brne	.+2      	; 0xc7a <MDIO_stderrGetPortValue+0x20>
     c78:	3f c0       	rjmp	.+126    	; 0xcf8 <MDIO_stderrGetPortValue+0x9e>
	{
		switch(ARG_u8Port)
     c7a:	8c 81       	ldd	r24, Y+4	; 0x04
     c7c:	28 2f       	mov	r18, r24
     c7e:	30 e0       	ldi	r19, 0x00	; 0
     c80:	3e 83       	std	Y+6, r19	; 0x06
     c82:	2d 83       	std	Y+5, r18	; 0x05
     c84:	8d 81       	ldd	r24, Y+5	; 0x05
     c86:	9e 81       	ldd	r25, Y+6	; 0x06
     c88:	82 30       	cpi	r24, 0x02	; 2
     c8a:	91 05       	cpc	r25, r1
     c8c:	e9 f0       	breq	.+58     	; 0xcc8 <MDIO_stderrGetPortValue+0x6e>
     c8e:	2d 81       	ldd	r18, Y+5	; 0x05
     c90:	3e 81       	ldd	r19, Y+6	; 0x06
     c92:	23 30       	cpi	r18, 0x03	; 3
     c94:	31 05       	cpc	r19, r1
     c96:	34 f4       	brge	.+12     	; 0xca4 <MDIO_stderrGetPortValue+0x4a>
     c98:	8d 81       	ldd	r24, Y+5	; 0x05
     c9a:	9e 81       	ldd	r25, Y+6	; 0x06
     c9c:	81 30       	cpi	r24, 0x01	; 1
     c9e:	91 05       	cpc	r25, r1
     ca0:	61 f0       	breq	.+24     	; 0xcba <MDIO_stderrGetPortValue+0x60>
     ca2:	27 c0       	rjmp	.+78     	; 0xcf2 <MDIO_stderrGetPortValue+0x98>
     ca4:	2d 81       	ldd	r18, Y+5	; 0x05
     ca6:	3e 81       	ldd	r19, Y+6	; 0x06
     ca8:	23 30       	cpi	r18, 0x03	; 3
     caa:	31 05       	cpc	r19, r1
     cac:	a1 f0       	breq	.+40     	; 0xcd6 <MDIO_stderrGetPortValue+0x7c>
     cae:	8d 81       	ldd	r24, Y+5	; 0x05
     cb0:	9e 81       	ldd	r25, Y+6	; 0x06
     cb2:	84 30       	cpi	r24, 0x04	; 4
     cb4:	91 05       	cpc	r25, r1
     cb6:	b1 f0       	breq	.+44     	; 0xce4 <MDIO_stderrGetPortValue+0x8a>
     cb8:	1c c0       	rjmp	.+56     	; 0xcf2 <MDIO_stderrGetPortValue+0x98>
		{
			case MDIO_PORTA: *ARG_u8PValue = GPIOA->PIN; break;
     cba:	e9 e3       	ldi	r30, 0x39	; 57
     cbc:	f0 e0       	ldi	r31, 0x00	; 0
     cbe:	80 81       	ld	r24, Z
     cc0:	ea 81       	ldd	r30, Y+2	; 0x02
     cc2:	fb 81       	ldd	r31, Y+3	; 0x03
     cc4:	80 83       	st	Z, r24
     cc6:	1a c0       	rjmp	.+52     	; 0xcfc <MDIO_stderrGetPortValue+0xa2>
			case MDIO_PORTB: *ARG_u8PValue = GPIOA->PIN; break;
     cc8:	e9 e3       	ldi	r30, 0x39	; 57
     cca:	f0 e0       	ldi	r31, 0x00	; 0
     ccc:	80 81       	ld	r24, Z
     cce:	ea 81       	ldd	r30, Y+2	; 0x02
     cd0:	fb 81       	ldd	r31, Y+3	; 0x03
     cd2:	80 83       	st	Z, r24
     cd4:	13 c0       	rjmp	.+38     	; 0xcfc <MDIO_stderrGetPortValue+0xa2>
			case MDIO_PORTC: *ARG_u8PValue = GPIOA->PIN; break;
     cd6:	e9 e3       	ldi	r30, 0x39	; 57
     cd8:	f0 e0       	ldi	r31, 0x00	; 0
     cda:	80 81       	ld	r24, Z
     cdc:	ea 81       	ldd	r30, Y+2	; 0x02
     cde:	fb 81       	ldd	r31, Y+3	; 0x03
     ce0:	80 83       	st	Z, r24
     ce2:	0c c0       	rjmp	.+24     	; 0xcfc <MDIO_stderrGetPortValue+0xa2>
			case MDIO_PORTD: *ARG_u8PValue = GPIOA->PIN; break;
     ce4:	e9 e3       	ldi	r30, 0x39	; 57
     ce6:	f0 e0       	ldi	r31, 0x00	; 0
     ce8:	80 81       	ld	r24, Z
     cea:	ea 81       	ldd	r30, Y+2	; 0x02
     cec:	fb 81       	ldd	r31, Y+3	; 0x03
     cee:	80 83       	st	Z, r24
     cf0:	05 c0       	rjmp	.+10     	; 0xcfc <MDIO_stderrGetPortValue+0xa2>
			default: L_stderrError = E_NOK; break; /* reporrt error*/
     cf2:	81 e0       	ldi	r24, 0x01	; 1
     cf4:	89 83       	std	Y+1, r24	; 0x01
     cf6:	02 c0       	rjmp	.+4      	; 0xcfc <MDIO_stderrGetPortValue+0xa2>
		}
	}
	else{
		L_stderrError=E_NULL_POINTER;
     cf8:	82 e0       	ldi	r24, 0x02	; 2
     cfa:	89 83       	std	Y+1, r24	; 0x01
	}	
	return L_stderrError;
     cfc:	89 81       	ldd	r24, Y+1	; 0x01
}
     cfe:	26 96       	adiw	r28, 0x06	; 6
     d00:	0f b6       	in	r0, 0x3f	; 63
     d02:	f8 94       	cli
     d04:	de bf       	out	0x3e, r29	; 62
     d06:	0f be       	out	0x3f, r0	; 63
     d08:	cd bf       	out	0x3d, r28	; 61
     d0a:	cf 91       	pop	r28
     d0c:	df 91       	pop	r29
     d0e:	08 95       	ret

00000d10 <MDIO_stderrSetPinDirection>:

STD_error_t MDIO_stderrSetPinDirection(u8 ARG_u8Port,u8 ARG_u8Pin, u8 ARG_u8Direction)
{
     d10:	df 93       	push	r29
     d12:	cf 93       	push	r28
     d14:	cd b7       	in	r28, 0x3d	; 61
     d16:	de b7       	in	r29, 0x3e	; 62
     d18:	29 97       	sbiw	r28, 0x09	; 9
     d1a:	0f b6       	in	r0, 0x3f	; 63
     d1c:	f8 94       	cli
     d1e:	de bf       	out	0x3e, r29	; 62
     d20:	0f be       	out	0x3f, r0	; 63
     d22:	cd bf       	out	0x3d, r28	; 61
     d24:	8b 83       	std	Y+3, r24	; 0x03
     d26:	6c 83       	std	Y+4, r22	; 0x04
     d28:	4d 83       	std	Y+5, r20	; 0x05
	STD_error_t L_stderrError= E_OK;	
     d2a:	1a 82       	std	Y+2, r1	; 0x02
	u8 L_u8EnablPullUP=0; /* this flag used to enable PULL UP or Disable */
     d2c:	19 82       	std	Y+1, r1	; 0x01
	
	if(ARG_u8Pin>= MDIO_PIN0 && ARG_u8Pin<= MDIO_PIN7 && ARG_u8Direction>= MDIO_INPUT && ARG_u8Direction<= MDIO_INPUT_PULLUP)
     d2e:	8c 81       	ldd	r24, Y+4	; 0x04
     d30:	88 30       	cpi	r24, 0x08	; 8
     d32:	08 f0       	brcs	.+2      	; 0xd36 <MDIO_stderrSetPinDirection+0x26>
     d34:	5f c1       	rjmp	.+702    	; 0xff4 <MDIO_stderrSetPinDirection+0x2e4>
     d36:	8d 81       	ldd	r24, Y+5	; 0x05
     d38:	83 30       	cpi	r24, 0x03	; 3
     d3a:	08 f0       	brcs	.+2      	; 0xd3e <MDIO_stderrSetPinDirection+0x2e>
     d3c:	5b c1       	rjmp	.+694    	; 0xff4 <MDIO_stderrSetPinDirection+0x2e4>
	{
		/* OK No error  */
		if(MDIO_INPUT_PULLUP==ARG_u8Direction)
     d3e:	8d 81       	ldd	r24, Y+5	; 0x05
     d40:	82 30       	cpi	r24, 0x02	; 2
     d42:	19 f4       	brne	.+6      	; 0xd4a <MDIO_stderrSetPinDirection+0x3a>
		{
			/* this for flag of INPUT_PULLUP */
			L_u8EnablPullUP=1;
     d44:	81 e0       	ldi	r24, 0x01	; 1
     d46:	89 83       	std	Y+1, r24	; 0x01
			ARG_u8Direction=MDIO_INPUT;/* assign it for value INPUT */
     d48:	1d 82       	std	Y+5, r1	; 0x05
		}
		else{ /* do nothing */ }
		
		/* Set direction for PINX using DDRX */
		switch(ARG_u8Port)
     d4a:	8b 81       	ldd	r24, Y+3	; 0x03
     d4c:	28 2f       	mov	r18, r24
     d4e:	30 e0       	ldi	r19, 0x00	; 0
     d50:	39 87       	std	Y+9, r19	; 0x09
     d52:	28 87       	std	Y+8, r18	; 0x08
     d54:	68 85       	ldd	r22, Y+8	; 0x08
     d56:	79 85       	ldd	r23, Y+9	; 0x09
     d58:	62 30       	cpi	r22, 0x02	; 2
     d5a:	71 05       	cpc	r23, r1
     d5c:	09 f4       	brne	.+2      	; 0xd60 <MDIO_stderrSetPinDirection+0x50>
     d5e:	44 c0       	rjmp	.+136    	; 0xde8 <MDIO_stderrSetPinDirection+0xd8>
     d60:	88 85       	ldd	r24, Y+8	; 0x08
     d62:	99 85       	ldd	r25, Y+9	; 0x09
     d64:	83 30       	cpi	r24, 0x03	; 3
     d66:	91 05       	cpc	r25, r1
     d68:	34 f4       	brge	.+12     	; 0xd76 <MDIO_stderrSetPinDirection+0x66>
     d6a:	28 85       	ldd	r18, Y+8	; 0x08
     d6c:	39 85       	ldd	r19, Y+9	; 0x09
     d6e:	21 30       	cpi	r18, 0x01	; 1
     d70:	31 05       	cpc	r19, r1
     d72:	71 f0       	breq	.+28     	; 0xd90 <MDIO_stderrSetPinDirection+0x80>
     d74:	bd c0       	rjmp	.+378    	; 0xef0 <MDIO_stderrSetPinDirection+0x1e0>
     d76:	68 85       	ldd	r22, Y+8	; 0x08
     d78:	79 85       	ldd	r23, Y+9	; 0x09
     d7a:	63 30       	cpi	r22, 0x03	; 3
     d7c:	71 05       	cpc	r23, r1
     d7e:	09 f4       	brne	.+2      	; 0xd82 <MDIO_stderrSetPinDirection+0x72>
     d80:	5f c0       	rjmp	.+190    	; 0xe40 <MDIO_stderrSetPinDirection+0x130>
     d82:	88 85       	ldd	r24, Y+8	; 0x08
     d84:	99 85       	ldd	r25, Y+9	; 0x09
     d86:	84 30       	cpi	r24, 0x04	; 4
     d88:	91 05       	cpc	r25, r1
     d8a:	09 f4       	brne	.+2      	; 0xd8e <MDIO_stderrSetPinDirection+0x7e>
     d8c:	85 c0       	rjmp	.+266    	; 0xe98 <MDIO_stderrSetPinDirection+0x188>
     d8e:	b0 c0       	rjmp	.+352    	; 0xef0 <MDIO_stderrSetPinDirection+0x1e0>
		{
			case MDIO_PORTA:
				GPIOA->DDR &= ~(1<<ARG_u8Pin); /* Clear bit*/
     d90:	a9 e3       	ldi	r26, 0x39	; 57
     d92:	b0 e0       	ldi	r27, 0x00	; 0
     d94:	e9 e3       	ldi	r30, 0x39	; 57
     d96:	f0 e0       	ldi	r31, 0x00	; 0
     d98:	81 81       	ldd	r24, Z+1	; 0x01
     d9a:	48 2f       	mov	r20, r24
     d9c:	8c 81       	ldd	r24, Y+4	; 0x04
     d9e:	28 2f       	mov	r18, r24
     da0:	30 e0       	ldi	r19, 0x00	; 0
     da2:	81 e0       	ldi	r24, 0x01	; 1
     da4:	90 e0       	ldi	r25, 0x00	; 0
     da6:	02 c0       	rjmp	.+4      	; 0xdac <MDIO_stderrSetPinDirection+0x9c>
     da8:	88 0f       	add	r24, r24
     daa:	99 1f       	adc	r25, r25
     dac:	2a 95       	dec	r18
     dae:	e2 f7       	brpl	.-8      	; 0xda8 <MDIO_stderrSetPinDirection+0x98>
     db0:	80 95       	com	r24
     db2:	84 23       	and	r24, r20
     db4:	11 96       	adiw	r26, 0x01	; 1
     db6:	8c 93       	st	X, r24
				GPIOA->DDR |= (ARG_u8Direction<<ARG_u8Pin); /* assign the Direction */
     db8:	a9 e3       	ldi	r26, 0x39	; 57
     dba:	b0 e0       	ldi	r27, 0x00	; 0
     dbc:	e9 e3       	ldi	r30, 0x39	; 57
     dbe:	f0 e0       	ldi	r31, 0x00	; 0
     dc0:	81 81       	ldd	r24, Z+1	; 0x01
     dc2:	48 2f       	mov	r20, r24
     dc4:	8d 81       	ldd	r24, Y+5	; 0x05
     dc6:	28 2f       	mov	r18, r24
     dc8:	30 e0       	ldi	r19, 0x00	; 0
     dca:	8c 81       	ldd	r24, Y+4	; 0x04
     dcc:	88 2f       	mov	r24, r24
     dce:	90 e0       	ldi	r25, 0x00	; 0
     dd0:	b9 01       	movw	r22, r18
     dd2:	02 c0       	rjmp	.+4      	; 0xdd8 <MDIO_stderrSetPinDirection+0xc8>
     dd4:	66 0f       	add	r22, r22
     dd6:	77 1f       	adc	r23, r23
     dd8:	8a 95       	dec	r24
     dda:	e2 f7       	brpl	.-8      	; 0xdd4 <MDIO_stderrSetPinDirection+0xc4>
     ddc:	cb 01       	movw	r24, r22
     dde:	84 2b       	or	r24, r20
     de0:	11 96       	adiw	r26, 0x01	; 1
     de2:	8c 93       	st	X, r24
     de4:	11 97       	sbiw	r26, 0x01	; 1
     de6:	86 c0       	rjmp	.+268    	; 0xef4 <MDIO_stderrSetPinDirection+0x1e4>
			break;
			case MDIO_PORTB:
				GPIOB->DDR &= ~(1<<ARG_u8Pin); /* Clear bit*/
     de8:	a6 e3       	ldi	r26, 0x36	; 54
     dea:	b0 e0       	ldi	r27, 0x00	; 0
     dec:	e6 e3       	ldi	r30, 0x36	; 54
     dee:	f0 e0       	ldi	r31, 0x00	; 0
     df0:	81 81       	ldd	r24, Z+1	; 0x01
     df2:	48 2f       	mov	r20, r24
     df4:	8c 81       	ldd	r24, Y+4	; 0x04
     df6:	28 2f       	mov	r18, r24
     df8:	30 e0       	ldi	r19, 0x00	; 0
     dfa:	81 e0       	ldi	r24, 0x01	; 1
     dfc:	90 e0       	ldi	r25, 0x00	; 0
     dfe:	02 c0       	rjmp	.+4      	; 0xe04 <MDIO_stderrSetPinDirection+0xf4>
     e00:	88 0f       	add	r24, r24
     e02:	99 1f       	adc	r25, r25
     e04:	2a 95       	dec	r18
     e06:	e2 f7       	brpl	.-8      	; 0xe00 <MDIO_stderrSetPinDirection+0xf0>
     e08:	80 95       	com	r24
     e0a:	84 23       	and	r24, r20
     e0c:	11 96       	adiw	r26, 0x01	; 1
     e0e:	8c 93       	st	X, r24
				GPIOB->DDR |= (ARG_u8Direction<<ARG_u8Pin); /* assign the Direction */
     e10:	a6 e3       	ldi	r26, 0x36	; 54
     e12:	b0 e0       	ldi	r27, 0x00	; 0
     e14:	e6 e3       	ldi	r30, 0x36	; 54
     e16:	f0 e0       	ldi	r31, 0x00	; 0
     e18:	81 81       	ldd	r24, Z+1	; 0x01
     e1a:	48 2f       	mov	r20, r24
     e1c:	8d 81       	ldd	r24, Y+5	; 0x05
     e1e:	28 2f       	mov	r18, r24
     e20:	30 e0       	ldi	r19, 0x00	; 0
     e22:	8c 81       	ldd	r24, Y+4	; 0x04
     e24:	88 2f       	mov	r24, r24
     e26:	90 e0       	ldi	r25, 0x00	; 0
     e28:	b9 01       	movw	r22, r18
     e2a:	02 c0       	rjmp	.+4      	; 0xe30 <MDIO_stderrSetPinDirection+0x120>
     e2c:	66 0f       	add	r22, r22
     e2e:	77 1f       	adc	r23, r23
     e30:	8a 95       	dec	r24
     e32:	e2 f7       	brpl	.-8      	; 0xe2c <MDIO_stderrSetPinDirection+0x11c>
     e34:	cb 01       	movw	r24, r22
     e36:	84 2b       	or	r24, r20
     e38:	11 96       	adiw	r26, 0x01	; 1
     e3a:	8c 93       	st	X, r24
     e3c:	11 97       	sbiw	r26, 0x01	; 1
     e3e:	5a c0       	rjmp	.+180    	; 0xef4 <MDIO_stderrSetPinDirection+0x1e4>
			break;
			case MDIO_PORTC:
				GPIOD->DDR &= ~(1<<ARG_u8Pin); /* Clear bit*/
     e40:	a0 e3       	ldi	r26, 0x30	; 48
     e42:	b0 e0       	ldi	r27, 0x00	; 0
     e44:	e0 e3       	ldi	r30, 0x30	; 48
     e46:	f0 e0       	ldi	r31, 0x00	; 0
     e48:	81 81       	ldd	r24, Z+1	; 0x01
     e4a:	48 2f       	mov	r20, r24
     e4c:	8c 81       	ldd	r24, Y+4	; 0x04
     e4e:	28 2f       	mov	r18, r24
     e50:	30 e0       	ldi	r19, 0x00	; 0
     e52:	81 e0       	ldi	r24, 0x01	; 1
     e54:	90 e0       	ldi	r25, 0x00	; 0
     e56:	02 c0       	rjmp	.+4      	; 0xe5c <MDIO_stderrSetPinDirection+0x14c>
     e58:	88 0f       	add	r24, r24
     e5a:	99 1f       	adc	r25, r25
     e5c:	2a 95       	dec	r18
     e5e:	e2 f7       	brpl	.-8      	; 0xe58 <MDIO_stderrSetPinDirection+0x148>
     e60:	80 95       	com	r24
     e62:	84 23       	and	r24, r20
     e64:	11 96       	adiw	r26, 0x01	; 1
     e66:	8c 93       	st	X, r24
				GPIOD->DDR |= (ARG_u8Direction<<ARG_u8Pin); /* assign the Direction */
     e68:	a0 e3       	ldi	r26, 0x30	; 48
     e6a:	b0 e0       	ldi	r27, 0x00	; 0
     e6c:	e0 e3       	ldi	r30, 0x30	; 48
     e6e:	f0 e0       	ldi	r31, 0x00	; 0
     e70:	81 81       	ldd	r24, Z+1	; 0x01
     e72:	48 2f       	mov	r20, r24
     e74:	8d 81       	ldd	r24, Y+5	; 0x05
     e76:	28 2f       	mov	r18, r24
     e78:	30 e0       	ldi	r19, 0x00	; 0
     e7a:	8c 81       	ldd	r24, Y+4	; 0x04
     e7c:	88 2f       	mov	r24, r24
     e7e:	90 e0       	ldi	r25, 0x00	; 0
     e80:	b9 01       	movw	r22, r18
     e82:	02 c0       	rjmp	.+4      	; 0xe88 <MDIO_stderrSetPinDirection+0x178>
     e84:	66 0f       	add	r22, r22
     e86:	77 1f       	adc	r23, r23
     e88:	8a 95       	dec	r24
     e8a:	e2 f7       	brpl	.-8      	; 0xe84 <MDIO_stderrSetPinDirection+0x174>
     e8c:	cb 01       	movw	r24, r22
     e8e:	84 2b       	or	r24, r20
     e90:	11 96       	adiw	r26, 0x01	; 1
     e92:	8c 93       	st	X, r24
     e94:	11 97       	sbiw	r26, 0x01	; 1
     e96:	2e c0       	rjmp	.+92     	; 0xef4 <MDIO_stderrSetPinDirection+0x1e4>
			break;
			case MDIO_PORTD:
				GPIOD->DDR &= ~(1<<ARG_u8Pin); /* Clear bit*/
     e98:	a0 e3       	ldi	r26, 0x30	; 48
     e9a:	b0 e0       	ldi	r27, 0x00	; 0
     e9c:	e0 e3       	ldi	r30, 0x30	; 48
     e9e:	f0 e0       	ldi	r31, 0x00	; 0
     ea0:	81 81       	ldd	r24, Z+1	; 0x01
     ea2:	48 2f       	mov	r20, r24
     ea4:	8c 81       	ldd	r24, Y+4	; 0x04
     ea6:	28 2f       	mov	r18, r24
     ea8:	30 e0       	ldi	r19, 0x00	; 0
     eaa:	81 e0       	ldi	r24, 0x01	; 1
     eac:	90 e0       	ldi	r25, 0x00	; 0
     eae:	02 c0       	rjmp	.+4      	; 0xeb4 <MDIO_stderrSetPinDirection+0x1a4>
     eb0:	88 0f       	add	r24, r24
     eb2:	99 1f       	adc	r25, r25
     eb4:	2a 95       	dec	r18
     eb6:	e2 f7       	brpl	.-8      	; 0xeb0 <MDIO_stderrSetPinDirection+0x1a0>
     eb8:	80 95       	com	r24
     eba:	84 23       	and	r24, r20
     ebc:	11 96       	adiw	r26, 0x01	; 1
     ebe:	8c 93       	st	X, r24
				GPIOD->DDR |= (ARG_u8Direction<<ARG_u8Pin); /* assign the Direction */
     ec0:	a0 e3       	ldi	r26, 0x30	; 48
     ec2:	b0 e0       	ldi	r27, 0x00	; 0
     ec4:	e0 e3       	ldi	r30, 0x30	; 48
     ec6:	f0 e0       	ldi	r31, 0x00	; 0
     ec8:	81 81       	ldd	r24, Z+1	; 0x01
     eca:	48 2f       	mov	r20, r24
     ecc:	8d 81       	ldd	r24, Y+5	; 0x05
     ece:	28 2f       	mov	r18, r24
     ed0:	30 e0       	ldi	r19, 0x00	; 0
     ed2:	8c 81       	ldd	r24, Y+4	; 0x04
     ed4:	88 2f       	mov	r24, r24
     ed6:	90 e0       	ldi	r25, 0x00	; 0
     ed8:	b9 01       	movw	r22, r18
     eda:	02 c0       	rjmp	.+4      	; 0xee0 <MDIO_stderrSetPinDirection+0x1d0>
     edc:	66 0f       	add	r22, r22
     ede:	77 1f       	adc	r23, r23
     ee0:	8a 95       	dec	r24
     ee2:	e2 f7       	brpl	.-8      	; 0xedc <MDIO_stderrSetPinDirection+0x1cc>
     ee4:	cb 01       	movw	r24, r22
     ee6:	84 2b       	or	r24, r20
     ee8:	11 96       	adiw	r26, 0x01	; 1
     eea:	8c 93       	st	X, r24
     eec:	11 97       	sbiw	r26, 0x01	; 1
     eee:	02 c0       	rjmp	.+4      	; 0xef4 <MDIO_stderrSetPinDirection+0x1e4>
			break;
			default: L_stderrError = E_NOK; break; /* report an error*/
     ef0:	81 e0       	ldi	r24, 0x01	; 1
     ef2:	8a 83       	std	Y+2, r24	; 0x02
		}		
		//check flag of PULLUP 
		if(1==L_u8EnablPullUP)
     ef4:	89 81       	ldd	r24, Y+1	; 0x01
     ef6:	81 30       	cpi	r24, 0x01	; 1
     ef8:	09 f0       	breq	.+2      	; 0xefc <MDIO_stderrSetPinDirection+0x1ec>
     efa:	7e c0       	rjmp	.+252    	; 0xff8 <MDIO_stderrSetPinDirection+0x2e8>
		{
			/* Enable PULL UP */
			switch(ARG_u8Port)
     efc:	8b 81       	ldd	r24, Y+3	; 0x03
     efe:	28 2f       	mov	r18, r24
     f00:	30 e0       	ldi	r19, 0x00	; 0
     f02:	3f 83       	std	Y+7, r19	; 0x07
     f04:	2e 83       	std	Y+6, r18	; 0x06
     f06:	6e 81       	ldd	r22, Y+6	; 0x06
     f08:	7f 81       	ldd	r23, Y+7	; 0x07
     f0a:	62 30       	cpi	r22, 0x02	; 2
     f0c:	71 05       	cpc	r23, r1
     f0e:	69 f1       	breq	.+90     	; 0xf6a <MDIO_stderrSetPinDirection+0x25a>
     f10:	8e 81       	ldd	r24, Y+6	; 0x06
     f12:	9f 81       	ldd	r25, Y+7	; 0x07
     f14:	83 30       	cpi	r24, 0x03	; 3
     f16:	91 05       	cpc	r25, r1
     f18:	34 f4       	brge	.+12     	; 0xf26 <MDIO_stderrSetPinDirection+0x216>
     f1a:	2e 81       	ldd	r18, Y+6	; 0x06
     f1c:	3f 81       	ldd	r19, Y+7	; 0x07
     f1e:	21 30       	cpi	r18, 0x01	; 1
     f20:	31 05       	cpc	r19, r1
     f22:	69 f0       	breq	.+26     	; 0xf3e <MDIO_stderrSetPinDirection+0x22e>
     f24:	64 c0       	rjmp	.+200    	; 0xfee <MDIO_stderrSetPinDirection+0x2de>
     f26:	6e 81       	ldd	r22, Y+6	; 0x06
     f28:	7f 81       	ldd	r23, Y+7	; 0x07
     f2a:	63 30       	cpi	r22, 0x03	; 3
     f2c:	71 05       	cpc	r23, r1
     f2e:	99 f1       	breq	.+102    	; 0xf96 <MDIO_stderrSetPinDirection+0x286>
     f30:	8e 81       	ldd	r24, Y+6	; 0x06
     f32:	9f 81       	ldd	r25, Y+7	; 0x07
     f34:	84 30       	cpi	r24, 0x04	; 4
     f36:	91 05       	cpc	r25, r1
     f38:	09 f4       	brne	.+2      	; 0xf3c <MDIO_stderrSetPinDirection+0x22c>
     f3a:	43 c0       	rjmp	.+134    	; 0xfc2 <MDIO_stderrSetPinDirection+0x2b2>
     f3c:	58 c0       	rjmp	.+176    	; 0xfee <MDIO_stderrSetPinDirection+0x2de>
			{
				case MDIO_PORTA:GPIOA->PORT |= (1<<ARG_u8Pin) ; break;
     f3e:	a9 e3       	ldi	r26, 0x39	; 57
     f40:	b0 e0       	ldi	r27, 0x00	; 0
     f42:	e9 e3       	ldi	r30, 0x39	; 57
     f44:	f0 e0       	ldi	r31, 0x00	; 0
     f46:	82 81       	ldd	r24, Z+2	; 0x02
     f48:	48 2f       	mov	r20, r24
     f4a:	8c 81       	ldd	r24, Y+4	; 0x04
     f4c:	28 2f       	mov	r18, r24
     f4e:	30 e0       	ldi	r19, 0x00	; 0
     f50:	81 e0       	ldi	r24, 0x01	; 1
     f52:	90 e0       	ldi	r25, 0x00	; 0
     f54:	02 2e       	mov	r0, r18
     f56:	02 c0       	rjmp	.+4      	; 0xf5c <MDIO_stderrSetPinDirection+0x24c>
     f58:	88 0f       	add	r24, r24
     f5a:	99 1f       	adc	r25, r25
     f5c:	0a 94       	dec	r0
     f5e:	e2 f7       	brpl	.-8      	; 0xf58 <MDIO_stderrSetPinDirection+0x248>
     f60:	84 2b       	or	r24, r20
     f62:	12 96       	adiw	r26, 0x02	; 2
     f64:	8c 93       	st	X, r24
     f66:	12 97       	sbiw	r26, 0x02	; 2
     f68:	47 c0       	rjmp	.+142    	; 0xff8 <MDIO_stderrSetPinDirection+0x2e8>
				case MDIO_PORTB:GPIOB->PORT |= (1<<ARG_u8Pin) ; break;
     f6a:	a6 e3       	ldi	r26, 0x36	; 54
     f6c:	b0 e0       	ldi	r27, 0x00	; 0
     f6e:	e6 e3       	ldi	r30, 0x36	; 54
     f70:	f0 e0       	ldi	r31, 0x00	; 0
     f72:	82 81       	ldd	r24, Z+2	; 0x02
     f74:	48 2f       	mov	r20, r24
     f76:	8c 81       	ldd	r24, Y+4	; 0x04
     f78:	28 2f       	mov	r18, r24
     f7a:	30 e0       	ldi	r19, 0x00	; 0
     f7c:	81 e0       	ldi	r24, 0x01	; 1
     f7e:	90 e0       	ldi	r25, 0x00	; 0
     f80:	02 2e       	mov	r0, r18
     f82:	02 c0       	rjmp	.+4      	; 0xf88 <MDIO_stderrSetPinDirection+0x278>
     f84:	88 0f       	add	r24, r24
     f86:	99 1f       	adc	r25, r25
     f88:	0a 94       	dec	r0
     f8a:	e2 f7       	brpl	.-8      	; 0xf84 <MDIO_stderrSetPinDirection+0x274>
     f8c:	84 2b       	or	r24, r20
     f8e:	12 96       	adiw	r26, 0x02	; 2
     f90:	8c 93       	st	X, r24
     f92:	12 97       	sbiw	r26, 0x02	; 2
     f94:	31 c0       	rjmp	.+98     	; 0xff8 <MDIO_stderrSetPinDirection+0x2e8>
				case MDIO_PORTC:GPIOC->PORT |= (1<<ARG_u8Pin) ; break;
     f96:	a3 e3       	ldi	r26, 0x33	; 51
     f98:	b0 e0       	ldi	r27, 0x00	; 0
     f9a:	e3 e3       	ldi	r30, 0x33	; 51
     f9c:	f0 e0       	ldi	r31, 0x00	; 0
     f9e:	82 81       	ldd	r24, Z+2	; 0x02
     fa0:	48 2f       	mov	r20, r24
     fa2:	8c 81       	ldd	r24, Y+4	; 0x04
     fa4:	28 2f       	mov	r18, r24
     fa6:	30 e0       	ldi	r19, 0x00	; 0
     fa8:	81 e0       	ldi	r24, 0x01	; 1
     faa:	90 e0       	ldi	r25, 0x00	; 0
     fac:	02 2e       	mov	r0, r18
     fae:	02 c0       	rjmp	.+4      	; 0xfb4 <MDIO_stderrSetPinDirection+0x2a4>
     fb0:	88 0f       	add	r24, r24
     fb2:	99 1f       	adc	r25, r25
     fb4:	0a 94       	dec	r0
     fb6:	e2 f7       	brpl	.-8      	; 0xfb0 <MDIO_stderrSetPinDirection+0x2a0>
     fb8:	84 2b       	or	r24, r20
     fba:	12 96       	adiw	r26, 0x02	; 2
     fbc:	8c 93       	st	X, r24
     fbe:	12 97       	sbiw	r26, 0x02	; 2
     fc0:	1b c0       	rjmp	.+54     	; 0xff8 <MDIO_stderrSetPinDirection+0x2e8>
				case MDIO_PORTD:GPIOD->PORT |= (1<<ARG_u8Pin) ; break;
     fc2:	a0 e3       	ldi	r26, 0x30	; 48
     fc4:	b0 e0       	ldi	r27, 0x00	; 0
     fc6:	e0 e3       	ldi	r30, 0x30	; 48
     fc8:	f0 e0       	ldi	r31, 0x00	; 0
     fca:	82 81       	ldd	r24, Z+2	; 0x02
     fcc:	48 2f       	mov	r20, r24
     fce:	8c 81       	ldd	r24, Y+4	; 0x04
     fd0:	28 2f       	mov	r18, r24
     fd2:	30 e0       	ldi	r19, 0x00	; 0
     fd4:	81 e0       	ldi	r24, 0x01	; 1
     fd6:	90 e0       	ldi	r25, 0x00	; 0
     fd8:	02 2e       	mov	r0, r18
     fda:	02 c0       	rjmp	.+4      	; 0xfe0 <MDIO_stderrSetPinDirection+0x2d0>
     fdc:	88 0f       	add	r24, r24
     fde:	99 1f       	adc	r25, r25
     fe0:	0a 94       	dec	r0
     fe2:	e2 f7       	brpl	.-8      	; 0xfdc <MDIO_stderrSetPinDirection+0x2cc>
     fe4:	84 2b       	or	r24, r20
     fe6:	12 96       	adiw	r26, 0x02	; 2
     fe8:	8c 93       	st	X, r24
     fea:	12 97       	sbiw	r26, 0x02	; 2
     fec:	05 c0       	rjmp	.+10     	; 0xff8 <MDIO_stderrSetPinDirection+0x2e8>
				default: L_stderrError = E_NOK; break; /* reporrt an error*/
     fee:	81 e0       	ldi	r24, 0x01	; 1
     ff0:	8a 83       	std	Y+2, r24	; 0x02
     ff2:	02 c0       	rjmp	.+4      	; 0xff8 <MDIO_stderrSetPinDirection+0x2e8>
		}
		else{ /* do nothing */ }

	}
	else{
		L_stderrError = E_NOK;
     ff4:	81 e0       	ldi	r24, 0x01	; 1
     ff6:	8a 83       	std	Y+2, r24	; 0x02
	}

	return L_stderrError;
     ff8:	8a 81       	ldd	r24, Y+2	; 0x02
}
     ffa:	29 96       	adiw	r28, 0x09	; 9
     ffc:	0f b6       	in	r0, 0x3f	; 63
     ffe:	f8 94       	cli
    1000:	de bf       	out	0x3e, r29	; 62
    1002:	0f be       	out	0x3f, r0	; 63
    1004:	cd bf       	out	0x3d, r28	; 61
    1006:	cf 91       	pop	r28
    1008:	df 91       	pop	r29
    100a:	08 95       	ret

0000100c <MDIO_stderrSetPinValue>:

STD_error_t MDIO_stderrSetPinValue(u8 ARG_u8Port,u8 ARG_u8Pin,u8 ARG_u8Value)
{
    100c:	df 93       	push	r29
    100e:	cf 93       	push	r28
    1010:	00 d0       	rcall	.+0      	; 0x1012 <MDIO_stderrSetPinValue+0x6>
    1012:	00 d0       	rcall	.+0      	; 0x1014 <MDIO_stderrSetPinValue+0x8>
    1014:	00 d0       	rcall	.+0      	; 0x1016 <MDIO_stderrSetPinValue+0xa>
    1016:	cd b7       	in	r28, 0x3d	; 61
    1018:	de b7       	in	r29, 0x3e	; 62
    101a:	8a 83       	std	Y+2, r24	; 0x02
    101c:	6b 83       	std	Y+3, r22	; 0x03
    101e:	4c 83       	std	Y+4, r20	; 0x04
	STD_error_t L_stderrError= E_OK;
    1020:	19 82       	std	Y+1, r1	; 0x01
	if(ARG_u8Pin>= MDIO_PIN0 && ARG_u8Pin<= MDIO_PIN7 && ARG_u8Value<= MDIO_HIGH && ARG_u8Value>= MDIO_LOW)
    1022:	8b 81       	ldd	r24, Y+3	; 0x03
    1024:	88 30       	cpi	r24, 0x08	; 8
    1026:	08 f0       	brcs	.+2      	; 0x102a <MDIO_stderrSetPinValue+0x1e>
    1028:	da c0       	rjmp	.+436    	; 0x11de <MDIO_stderrSetPinValue+0x1d2>
    102a:	8c 81       	ldd	r24, Y+4	; 0x04
    102c:	82 30       	cpi	r24, 0x02	; 2
    102e:	08 f0       	brcs	.+2      	; 0x1032 <MDIO_stderrSetPinValue+0x26>
    1030:	d6 c0       	rjmp	.+428    	; 0x11de <MDIO_stderrSetPinValue+0x1d2>
	{
		switch(ARG_u8Port)
    1032:	8a 81       	ldd	r24, Y+2	; 0x02
    1034:	28 2f       	mov	r18, r24
    1036:	30 e0       	ldi	r19, 0x00	; 0
    1038:	3e 83       	std	Y+6, r19	; 0x06
    103a:	2d 83       	std	Y+5, r18	; 0x05
    103c:	6d 81       	ldd	r22, Y+5	; 0x05
    103e:	7e 81       	ldd	r23, Y+6	; 0x06
    1040:	62 30       	cpi	r22, 0x02	; 2
    1042:	71 05       	cpc	r23, r1
    1044:	09 f4       	brne	.+2      	; 0x1048 <MDIO_stderrSetPinValue+0x3c>
    1046:	44 c0       	rjmp	.+136    	; 0x10d0 <MDIO_stderrSetPinValue+0xc4>
    1048:	8d 81       	ldd	r24, Y+5	; 0x05
    104a:	9e 81       	ldd	r25, Y+6	; 0x06
    104c:	83 30       	cpi	r24, 0x03	; 3
    104e:	91 05       	cpc	r25, r1
    1050:	34 f4       	brge	.+12     	; 0x105e <MDIO_stderrSetPinValue+0x52>
    1052:	2d 81       	ldd	r18, Y+5	; 0x05
    1054:	3e 81       	ldd	r19, Y+6	; 0x06
    1056:	21 30       	cpi	r18, 0x01	; 1
    1058:	31 05       	cpc	r19, r1
    105a:	71 f0       	breq	.+28     	; 0x1078 <MDIO_stderrSetPinValue+0x6c>
    105c:	bd c0       	rjmp	.+378    	; 0x11d8 <MDIO_stderrSetPinValue+0x1cc>
    105e:	6d 81       	ldd	r22, Y+5	; 0x05
    1060:	7e 81       	ldd	r23, Y+6	; 0x06
    1062:	63 30       	cpi	r22, 0x03	; 3
    1064:	71 05       	cpc	r23, r1
    1066:	09 f4       	brne	.+2      	; 0x106a <MDIO_stderrSetPinValue+0x5e>
    1068:	5f c0       	rjmp	.+190    	; 0x1128 <MDIO_stderrSetPinValue+0x11c>
    106a:	8d 81       	ldd	r24, Y+5	; 0x05
    106c:	9e 81       	ldd	r25, Y+6	; 0x06
    106e:	84 30       	cpi	r24, 0x04	; 4
    1070:	91 05       	cpc	r25, r1
    1072:	09 f4       	brne	.+2      	; 0x1076 <MDIO_stderrSetPinValue+0x6a>
    1074:	85 c0       	rjmp	.+266    	; 0x1180 <MDIO_stderrSetPinValue+0x174>
    1076:	b0 c0       	rjmp	.+352    	; 0x11d8 <MDIO_stderrSetPinValue+0x1cc>
		{
			case MDIO_PORTA:
				GPIOA->PORT &= ~(1<<ARG_u8Pin); /* Clear bit*/
    1078:	a9 e3       	ldi	r26, 0x39	; 57
    107a:	b0 e0       	ldi	r27, 0x00	; 0
    107c:	e9 e3       	ldi	r30, 0x39	; 57
    107e:	f0 e0       	ldi	r31, 0x00	; 0
    1080:	82 81       	ldd	r24, Z+2	; 0x02
    1082:	48 2f       	mov	r20, r24
    1084:	8b 81       	ldd	r24, Y+3	; 0x03
    1086:	28 2f       	mov	r18, r24
    1088:	30 e0       	ldi	r19, 0x00	; 0
    108a:	81 e0       	ldi	r24, 0x01	; 1
    108c:	90 e0       	ldi	r25, 0x00	; 0
    108e:	02 c0       	rjmp	.+4      	; 0x1094 <MDIO_stderrSetPinValue+0x88>
    1090:	88 0f       	add	r24, r24
    1092:	99 1f       	adc	r25, r25
    1094:	2a 95       	dec	r18
    1096:	e2 f7       	brpl	.-8      	; 0x1090 <MDIO_stderrSetPinValue+0x84>
    1098:	80 95       	com	r24
    109a:	84 23       	and	r24, r20
    109c:	12 96       	adiw	r26, 0x02	; 2
    109e:	8c 93       	st	X, r24
				GPIOA->PORT |= (ARG_u8Value<<ARG_u8Pin); /* assign the Direction */
    10a0:	a9 e3       	ldi	r26, 0x39	; 57
    10a2:	b0 e0       	ldi	r27, 0x00	; 0
    10a4:	e9 e3       	ldi	r30, 0x39	; 57
    10a6:	f0 e0       	ldi	r31, 0x00	; 0
    10a8:	82 81       	ldd	r24, Z+2	; 0x02
    10aa:	48 2f       	mov	r20, r24
    10ac:	8c 81       	ldd	r24, Y+4	; 0x04
    10ae:	28 2f       	mov	r18, r24
    10b0:	30 e0       	ldi	r19, 0x00	; 0
    10b2:	8b 81       	ldd	r24, Y+3	; 0x03
    10b4:	88 2f       	mov	r24, r24
    10b6:	90 e0       	ldi	r25, 0x00	; 0
    10b8:	b9 01       	movw	r22, r18
    10ba:	02 c0       	rjmp	.+4      	; 0x10c0 <MDIO_stderrSetPinValue+0xb4>
    10bc:	66 0f       	add	r22, r22
    10be:	77 1f       	adc	r23, r23
    10c0:	8a 95       	dec	r24
    10c2:	e2 f7       	brpl	.-8      	; 0x10bc <MDIO_stderrSetPinValue+0xb0>
    10c4:	cb 01       	movw	r24, r22
    10c6:	84 2b       	or	r24, r20
    10c8:	12 96       	adiw	r26, 0x02	; 2
    10ca:	8c 93       	st	X, r24
    10cc:	12 97       	sbiw	r26, 0x02	; 2
    10ce:	89 c0       	rjmp	.+274    	; 0x11e2 <MDIO_stderrSetPinValue+0x1d6>
			break;
			case MDIO_PORTB:
				GPIOB->PORT &= ~(1<<ARG_u8Pin); /* Clear bit*/
    10d0:	a6 e3       	ldi	r26, 0x36	; 54
    10d2:	b0 e0       	ldi	r27, 0x00	; 0
    10d4:	e6 e3       	ldi	r30, 0x36	; 54
    10d6:	f0 e0       	ldi	r31, 0x00	; 0
    10d8:	82 81       	ldd	r24, Z+2	; 0x02
    10da:	48 2f       	mov	r20, r24
    10dc:	8b 81       	ldd	r24, Y+3	; 0x03
    10de:	28 2f       	mov	r18, r24
    10e0:	30 e0       	ldi	r19, 0x00	; 0
    10e2:	81 e0       	ldi	r24, 0x01	; 1
    10e4:	90 e0       	ldi	r25, 0x00	; 0
    10e6:	02 c0       	rjmp	.+4      	; 0x10ec <MDIO_stderrSetPinValue+0xe0>
    10e8:	88 0f       	add	r24, r24
    10ea:	99 1f       	adc	r25, r25
    10ec:	2a 95       	dec	r18
    10ee:	e2 f7       	brpl	.-8      	; 0x10e8 <MDIO_stderrSetPinValue+0xdc>
    10f0:	80 95       	com	r24
    10f2:	84 23       	and	r24, r20
    10f4:	12 96       	adiw	r26, 0x02	; 2
    10f6:	8c 93       	st	X, r24
				GPIOB->PORT |= (ARG_u8Value<<ARG_u8Pin); /* assign the Direction */
    10f8:	a6 e3       	ldi	r26, 0x36	; 54
    10fa:	b0 e0       	ldi	r27, 0x00	; 0
    10fc:	e6 e3       	ldi	r30, 0x36	; 54
    10fe:	f0 e0       	ldi	r31, 0x00	; 0
    1100:	82 81       	ldd	r24, Z+2	; 0x02
    1102:	48 2f       	mov	r20, r24
    1104:	8c 81       	ldd	r24, Y+4	; 0x04
    1106:	28 2f       	mov	r18, r24
    1108:	30 e0       	ldi	r19, 0x00	; 0
    110a:	8b 81       	ldd	r24, Y+3	; 0x03
    110c:	88 2f       	mov	r24, r24
    110e:	90 e0       	ldi	r25, 0x00	; 0
    1110:	b9 01       	movw	r22, r18
    1112:	02 c0       	rjmp	.+4      	; 0x1118 <MDIO_stderrSetPinValue+0x10c>
    1114:	66 0f       	add	r22, r22
    1116:	77 1f       	adc	r23, r23
    1118:	8a 95       	dec	r24
    111a:	e2 f7       	brpl	.-8      	; 0x1114 <MDIO_stderrSetPinValue+0x108>
    111c:	cb 01       	movw	r24, r22
    111e:	84 2b       	or	r24, r20
    1120:	12 96       	adiw	r26, 0x02	; 2
    1122:	8c 93       	st	X, r24
    1124:	12 97       	sbiw	r26, 0x02	; 2
    1126:	5d c0       	rjmp	.+186    	; 0x11e2 <MDIO_stderrSetPinValue+0x1d6>
			break;
			case MDIO_PORTC:
				GPIOD->PORT &= ~(1<<ARG_u8Pin); /* Clear bit*/
    1128:	a0 e3       	ldi	r26, 0x30	; 48
    112a:	b0 e0       	ldi	r27, 0x00	; 0
    112c:	e0 e3       	ldi	r30, 0x30	; 48
    112e:	f0 e0       	ldi	r31, 0x00	; 0
    1130:	82 81       	ldd	r24, Z+2	; 0x02
    1132:	48 2f       	mov	r20, r24
    1134:	8b 81       	ldd	r24, Y+3	; 0x03
    1136:	28 2f       	mov	r18, r24
    1138:	30 e0       	ldi	r19, 0x00	; 0
    113a:	81 e0       	ldi	r24, 0x01	; 1
    113c:	90 e0       	ldi	r25, 0x00	; 0
    113e:	02 c0       	rjmp	.+4      	; 0x1144 <MDIO_stderrSetPinValue+0x138>
    1140:	88 0f       	add	r24, r24
    1142:	99 1f       	adc	r25, r25
    1144:	2a 95       	dec	r18
    1146:	e2 f7       	brpl	.-8      	; 0x1140 <MDIO_stderrSetPinValue+0x134>
    1148:	80 95       	com	r24
    114a:	84 23       	and	r24, r20
    114c:	12 96       	adiw	r26, 0x02	; 2
    114e:	8c 93       	st	X, r24
				GPIOD->PORT |= (ARG_u8Value<<ARG_u8Pin); /* assign the Direction */
    1150:	a0 e3       	ldi	r26, 0x30	; 48
    1152:	b0 e0       	ldi	r27, 0x00	; 0
    1154:	e0 e3       	ldi	r30, 0x30	; 48
    1156:	f0 e0       	ldi	r31, 0x00	; 0
    1158:	82 81       	ldd	r24, Z+2	; 0x02
    115a:	48 2f       	mov	r20, r24
    115c:	8c 81       	ldd	r24, Y+4	; 0x04
    115e:	28 2f       	mov	r18, r24
    1160:	30 e0       	ldi	r19, 0x00	; 0
    1162:	8b 81       	ldd	r24, Y+3	; 0x03
    1164:	88 2f       	mov	r24, r24
    1166:	90 e0       	ldi	r25, 0x00	; 0
    1168:	b9 01       	movw	r22, r18
    116a:	02 c0       	rjmp	.+4      	; 0x1170 <MDIO_stderrSetPinValue+0x164>
    116c:	66 0f       	add	r22, r22
    116e:	77 1f       	adc	r23, r23
    1170:	8a 95       	dec	r24
    1172:	e2 f7       	brpl	.-8      	; 0x116c <MDIO_stderrSetPinValue+0x160>
    1174:	cb 01       	movw	r24, r22
    1176:	84 2b       	or	r24, r20
    1178:	12 96       	adiw	r26, 0x02	; 2
    117a:	8c 93       	st	X, r24
    117c:	12 97       	sbiw	r26, 0x02	; 2
    117e:	31 c0       	rjmp	.+98     	; 0x11e2 <MDIO_stderrSetPinValue+0x1d6>
			break;
			case MDIO_PORTD:
				GPIOD->PORT &= ~(1<<ARG_u8Pin); /* Clear bit*/
    1180:	a0 e3       	ldi	r26, 0x30	; 48
    1182:	b0 e0       	ldi	r27, 0x00	; 0
    1184:	e0 e3       	ldi	r30, 0x30	; 48
    1186:	f0 e0       	ldi	r31, 0x00	; 0
    1188:	82 81       	ldd	r24, Z+2	; 0x02
    118a:	48 2f       	mov	r20, r24
    118c:	8b 81       	ldd	r24, Y+3	; 0x03
    118e:	28 2f       	mov	r18, r24
    1190:	30 e0       	ldi	r19, 0x00	; 0
    1192:	81 e0       	ldi	r24, 0x01	; 1
    1194:	90 e0       	ldi	r25, 0x00	; 0
    1196:	02 c0       	rjmp	.+4      	; 0x119c <MDIO_stderrSetPinValue+0x190>
    1198:	88 0f       	add	r24, r24
    119a:	99 1f       	adc	r25, r25
    119c:	2a 95       	dec	r18
    119e:	e2 f7       	brpl	.-8      	; 0x1198 <MDIO_stderrSetPinValue+0x18c>
    11a0:	80 95       	com	r24
    11a2:	84 23       	and	r24, r20
    11a4:	12 96       	adiw	r26, 0x02	; 2
    11a6:	8c 93       	st	X, r24
				GPIOD->PORT |= (ARG_u8Value<<ARG_u8Pin); /* assign the Direction */
    11a8:	a0 e3       	ldi	r26, 0x30	; 48
    11aa:	b0 e0       	ldi	r27, 0x00	; 0
    11ac:	e0 e3       	ldi	r30, 0x30	; 48
    11ae:	f0 e0       	ldi	r31, 0x00	; 0
    11b0:	82 81       	ldd	r24, Z+2	; 0x02
    11b2:	48 2f       	mov	r20, r24
    11b4:	8c 81       	ldd	r24, Y+4	; 0x04
    11b6:	28 2f       	mov	r18, r24
    11b8:	30 e0       	ldi	r19, 0x00	; 0
    11ba:	8b 81       	ldd	r24, Y+3	; 0x03
    11bc:	88 2f       	mov	r24, r24
    11be:	90 e0       	ldi	r25, 0x00	; 0
    11c0:	b9 01       	movw	r22, r18
    11c2:	02 c0       	rjmp	.+4      	; 0x11c8 <MDIO_stderrSetPinValue+0x1bc>
    11c4:	66 0f       	add	r22, r22
    11c6:	77 1f       	adc	r23, r23
    11c8:	8a 95       	dec	r24
    11ca:	e2 f7       	brpl	.-8      	; 0x11c4 <MDIO_stderrSetPinValue+0x1b8>
    11cc:	cb 01       	movw	r24, r22
    11ce:	84 2b       	or	r24, r20
    11d0:	12 96       	adiw	r26, 0x02	; 2
    11d2:	8c 93       	st	X, r24
    11d4:	12 97       	sbiw	r26, 0x02	; 2
    11d6:	05 c0       	rjmp	.+10     	; 0x11e2 <MDIO_stderrSetPinValue+0x1d6>
			break;
			default: L_stderrError = E_NOK; break; /* report an error*/
    11d8:	81 e0       	ldi	r24, 0x01	; 1
    11da:	89 83       	std	Y+1, r24	; 0x01
    11dc:	02 c0       	rjmp	.+4      	; 0x11e2 <MDIO_stderrSetPinValue+0x1d6>
			
		}
	}
	else{
		L_stderrError = E_NOK;
    11de:	81 e0       	ldi	r24, 0x01	; 1
    11e0:	89 83       	std	Y+1, r24	; 0x01
	}	
	return L_stderrError;
    11e2:	89 81       	ldd	r24, Y+1	; 0x01
}
    11e4:	26 96       	adiw	r28, 0x06	; 6
    11e6:	0f b6       	in	r0, 0x3f	; 63
    11e8:	f8 94       	cli
    11ea:	de bf       	out	0x3e, r29	; 62
    11ec:	0f be       	out	0x3f, r0	; 63
    11ee:	cd bf       	out	0x3d, r28	; 61
    11f0:	cf 91       	pop	r28
    11f2:	df 91       	pop	r29
    11f4:	08 95       	ret

000011f6 <MDIO_stderrGetPinValue>:

STD_error_t MDIO_stderrGetPinValue(u8* ARG_u8PValue ,u8 ARG_u8Port ,u8 ARG_u8Pin )
{
    11f6:	df 93       	push	r29
    11f8:	cf 93       	push	r28
    11fa:	cd b7       	in	r28, 0x3d	; 61
    11fc:	de b7       	in	r29, 0x3e	; 62
    11fe:	27 97       	sbiw	r28, 0x07	; 7
    1200:	0f b6       	in	r0, 0x3f	; 63
    1202:	f8 94       	cli
    1204:	de bf       	out	0x3e, r29	; 62
    1206:	0f be       	out	0x3f, r0	; 63
    1208:	cd bf       	out	0x3d, r28	; 61
    120a:	9b 83       	std	Y+3, r25	; 0x03
    120c:	8a 83       	std	Y+2, r24	; 0x02
    120e:	6c 83       	std	Y+4, r22	; 0x04
    1210:	4d 83       	std	Y+5, r20	; 0x05
	STD_error_t L_stderrError= E_OK;
    1212:	19 82       	std	Y+1, r1	; 0x01
	if(NULL_POINTER!=ARG_u8PValue )
    1214:	8a 81       	ldd	r24, Y+2	; 0x02
    1216:	9b 81       	ldd	r25, Y+3	; 0x03
    1218:	00 97       	sbiw	r24, 0x00	; 0
    121a:	09 f4       	brne	.+2      	; 0x121e <MDIO_stderrGetPinValue+0x28>
    121c:	7b c0       	rjmp	.+246    	; 0x1314 <MDIO_stderrGetPinValue+0x11e>
	{	
		if(ARG_u8Pin>= MDIO_PIN0 && ARG_u8Pin<= MDIO_PIN7)
    121e:	8d 81       	ldd	r24, Y+5	; 0x05
    1220:	88 30       	cpi	r24, 0x08	; 8
    1222:	08 f0       	brcs	.+2      	; 0x1226 <MDIO_stderrGetPinValue+0x30>
    1224:	74 c0       	rjmp	.+232    	; 0x130e <MDIO_stderrGetPinValue+0x118>
		{	
			switch(ARG_u8Port)
    1226:	8c 81       	ldd	r24, Y+4	; 0x04
    1228:	28 2f       	mov	r18, r24
    122a:	30 e0       	ldi	r19, 0x00	; 0
    122c:	3f 83       	std	Y+7, r19	; 0x07
    122e:	2e 83       	std	Y+6, r18	; 0x06
    1230:	4e 81       	ldd	r20, Y+6	; 0x06
    1232:	5f 81       	ldd	r21, Y+7	; 0x07
    1234:	42 30       	cpi	r20, 0x02	; 2
    1236:	51 05       	cpc	r21, r1
    1238:	59 f1       	breq	.+86     	; 0x1290 <MDIO_stderrGetPinValue+0x9a>
    123a:	8e 81       	ldd	r24, Y+6	; 0x06
    123c:	9f 81       	ldd	r25, Y+7	; 0x07
    123e:	83 30       	cpi	r24, 0x03	; 3
    1240:	91 05       	cpc	r25, r1
    1242:	34 f4       	brge	.+12     	; 0x1250 <MDIO_stderrGetPinValue+0x5a>
    1244:	2e 81       	ldd	r18, Y+6	; 0x06
    1246:	3f 81       	ldd	r19, Y+7	; 0x07
    1248:	21 30       	cpi	r18, 0x01	; 1
    124a:	31 05       	cpc	r19, r1
    124c:	69 f0       	breq	.+26     	; 0x1268 <MDIO_stderrGetPinValue+0x72>
    124e:	5c c0       	rjmp	.+184    	; 0x1308 <MDIO_stderrGetPinValue+0x112>
    1250:	4e 81       	ldd	r20, Y+6	; 0x06
    1252:	5f 81       	ldd	r21, Y+7	; 0x07
    1254:	43 30       	cpi	r20, 0x03	; 3
    1256:	51 05       	cpc	r21, r1
    1258:	79 f1       	breq	.+94     	; 0x12b8 <MDIO_stderrGetPinValue+0xc2>
    125a:	8e 81       	ldd	r24, Y+6	; 0x06
    125c:	9f 81       	ldd	r25, Y+7	; 0x07
    125e:	84 30       	cpi	r24, 0x04	; 4
    1260:	91 05       	cpc	r25, r1
    1262:	09 f4       	brne	.+2      	; 0x1266 <MDIO_stderrGetPinValue+0x70>
    1264:	3d c0       	rjmp	.+122    	; 0x12e0 <MDIO_stderrGetPinValue+0xea>
    1266:	50 c0       	rjmp	.+160    	; 0x1308 <MDIO_stderrGetPinValue+0x112>
			{
				case MDIO_PORTA: *ARG_u8PValue = ( (GPIOA->PIN)>>ARG_u8Pin ) & 1 ; break;
    1268:	e9 e3       	ldi	r30, 0x39	; 57
    126a:	f0 e0       	ldi	r31, 0x00	; 0
    126c:	80 81       	ld	r24, Z
    126e:	28 2f       	mov	r18, r24
    1270:	30 e0       	ldi	r19, 0x00	; 0
    1272:	8d 81       	ldd	r24, Y+5	; 0x05
    1274:	88 2f       	mov	r24, r24
    1276:	90 e0       	ldi	r25, 0x00	; 0
    1278:	a9 01       	movw	r20, r18
    127a:	02 c0       	rjmp	.+4      	; 0x1280 <MDIO_stderrGetPinValue+0x8a>
    127c:	55 95       	asr	r21
    127e:	47 95       	ror	r20
    1280:	8a 95       	dec	r24
    1282:	e2 f7       	brpl	.-8      	; 0x127c <MDIO_stderrGetPinValue+0x86>
    1284:	ca 01       	movw	r24, r20
    1286:	81 70       	andi	r24, 0x01	; 1
    1288:	ea 81       	ldd	r30, Y+2	; 0x02
    128a:	fb 81       	ldd	r31, Y+3	; 0x03
    128c:	80 83       	st	Z, r24
    128e:	44 c0       	rjmp	.+136    	; 0x1318 <MDIO_stderrGetPinValue+0x122>
				case MDIO_PORTB: *ARG_u8PValue = ( (GPIOB->PIN)>>ARG_u8Pin ) & 1 ; break;
    1290:	e6 e3       	ldi	r30, 0x36	; 54
    1292:	f0 e0       	ldi	r31, 0x00	; 0
    1294:	80 81       	ld	r24, Z
    1296:	28 2f       	mov	r18, r24
    1298:	30 e0       	ldi	r19, 0x00	; 0
    129a:	8d 81       	ldd	r24, Y+5	; 0x05
    129c:	88 2f       	mov	r24, r24
    129e:	90 e0       	ldi	r25, 0x00	; 0
    12a0:	a9 01       	movw	r20, r18
    12a2:	02 c0       	rjmp	.+4      	; 0x12a8 <MDIO_stderrGetPinValue+0xb2>
    12a4:	55 95       	asr	r21
    12a6:	47 95       	ror	r20
    12a8:	8a 95       	dec	r24
    12aa:	e2 f7       	brpl	.-8      	; 0x12a4 <MDIO_stderrGetPinValue+0xae>
    12ac:	ca 01       	movw	r24, r20
    12ae:	81 70       	andi	r24, 0x01	; 1
    12b0:	ea 81       	ldd	r30, Y+2	; 0x02
    12b2:	fb 81       	ldd	r31, Y+3	; 0x03
    12b4:	80 83       	st	Z, r24
    12b6:	30 c0       	rjmp	.+96     	; 0x1318 <MDIO_stderrGetPinValue+0x122>
				case MDIO_PORTC: *ARG_u8PValue = ( (GPIOC->PIN)>>ARG_u8Pin ) & 1 ; break;
    12b8:	e3 e3       	ldi	r30, 0x33	; 51
    12ba:	f0 e0       	ldi	r31, 0x00	; 0
    12bc:	80 81       	ld	r24, Z
    12be:	28 2f       	mov	r18, r24
    12c0:	30 e0       	ldi	r19, 0x00	; 0
    12c2:	8d 81       	ldd	r24, Y+5	; 0x05
    12c4:	88 2f       	mov	r24, r24
    12c6:	90 e0       	ldi	r25, 0x00	; 0
    12c8:	a9 01       	movw	r20, r18
    12ca:	02 c0       	rjmp	.+4      	; 0x12d0 <MDIO_stderrGetPinValue+0xda>
    12cc:	55 95       	asr	r21
    12ce:	47 95       	ror	r20
    12d0:	8a 95       	dec	r24
    12d2:	e2 f7       	brpl	.-8      	; 0x12cc <MDIO_stderrGetPinValue+0xd6>
    12d4:	ca 01       	movw	r24, r20
    12d6:	81 70       	andi	r24, 0x01	; 1
    12d8:	ea 81       	ldd	r30, Y+2	; 0x02
    12da:	fb 81       	ldd	r31, Y+3	; 0x03
    12dc:	80 83       	st	Z, r24
    12de:	1c c0       	rjmp	.+56     	; 0x1318 <MDIO_stderrGetPinValue+0x122>
				case MDIO_PORTD: *ARG_u8PValue = ( (GPIOD->PIN)>>ARG_u8Pin ) & 1 ; break;
    12e0:	e0 e3       	ldi	r30, 0x30	; 48
    12e2:	f0 e0       	ldi	r31, 0x00	; 0
    12e4:	80 81       	ld	r24, Z
    12e6:	28 2f       	mov	r18, r24
    12e8:	30 e0       	ldi	r19, 0x00	; 0
    12ea:	8d 81       	ldd	r24, Y+5	; 0x05
    12ec:	88 2f       	mov	r24, r24
    12ee:	90 e0       	ldi	r25, 0x00	; 0
    12f0:	a9 01       	movw	r20, r18
    12f2:	02 c0       	rjmp	.+4      	; 0x12f8 <MDIO_stderrGetPinValue+0x102>
    12f4:	55 95       	asr	r21
    12f6:	47 95       	ror	r20
    12f8:	8a 95       	dec	r24
    12fa:	e2 f7       	brpl	.-8      	; 0x12f4 <MDIO_stderrGetPinValue+0xfe>
    12fc:	ca 01       	movw	r24, r20
    12fe:	81 70       	andi	r24, 0x01	; 1
    1300:	ea 81       	ldd	r30, Y+2	; 0x02
    1302:	fb 81       	ldd	r31, Y+3	; 0x03
    1304:	80 83       	st	Z, r24
    1306:	08 c0       	rjmp	.+16     	; 0x1318 <MDIO_stderrGetPinValue+0x122>
				default: L_stderrError = E_NOK; break; /* report an error*/
    1308:	81 e0       	ldi	r24, 0x01	; 1
    130a:	89 83       	std	Y+1, r24	; 0x01
    130c:	05 c0       	rjmp	.+10     	; 0x1318 <MDIO_stderrGetPinValue+0x122>
			}
		}
		else{
			L_stderrError = E_NOK;
    130e:	81 e0       	ldi	r24, 0x01	; 1
    1310:	89 83       	std	Y+1, r24	; 0x01
    1312:	02 c0       	rjmp	.+4      	; 0x1318 <MDIO_stderrGetPinValue+0x122>
		}
	}
	else{
		L_stderrError=E_NULL_POINTER;
    1314:	82 e0       	ldi	r24, 0x02	; 2
    1316:	89 83       	std	Y+1, r24	; 0x01
	}	
	
	return L_stderrError;
    1318:	89 81       	ldd	r24, Y+1	; 0x01
}
    131a:	27 96       	adiw	r28, 0x07	; 7
    131c:	0f b6       	in	r0, 0x3f	; 63
    131e:	f8 94       	cli
    1320:	de bf       	out	0x3e, r29	; 62
    1322:	0f be       	out	0x3f, r0	; 63
    1324:	cd bf       	out	0x3d, r28	; 61
    1326:	cf 91       	pop	r28
    1328:	df 91       	pop	r29
    132a:	08 95       	ret

0000132c <MDIO_stderrTogglePinValue>:

STD_error_t MDIO_stderrTogglePinValue(u8 ARG_u8Port ,u8 ARG_u8Pin)
{
    132c:	df 93       	push	r29
    132e:	cf 93       	push	r28
    1330:	00 d0       	rcall	.+0      	; 0x1332 <MDIO_stderrTogglePinValue+0x6>
    1332:	00 d0       	rcall	.+0      	; 0x1334 <MDIO_stderrTogglePinValue+0x8>
    1334:	0f 92       	push	r0
    1336:	cd b7       	in	r28, 0x3d	; 61
    1338:	de b7       	in	r29, 0x3e	; 62
    133a:	8a 83       	std	Y+2, r24	; 0x02
    133c:	6b 83       	std	Y+3, r22	; 0x03
	STD_error_t L_stderrError= E_OK;
    133e:	19 82       	std	Y+1, r1	; 0x01
	if(ARG_u8Pin>= MDIO_PIN0 && ARG_u8Pin<= MDIO_PIN7)
    1340:	8b 81       	ldd	r24, Y+3	; 0x03
    1342:	88 30       	cpi	r24, 0x08	; 8
    1344:	08 f0       	brcs	.+2      	; 0x1348 <MDIO_stderrTogglePinValue+0x1c>
    1346:	7c c0       	rjmp	.+248    	; 0x1440 <MDIO_stderrTogglePinValue+0x114>
	{
		switch(ARG_u8Port)
    1348:	8a 81       	ldd	r24, Y+2	; 0x02
    134a:	28 2f       	mov	r18, r24
    134c:	30 e0       	ldi	r19, 0x00	; 0
    134e:	3d 83       	std	Y+5, r19	; 0x05
    1350:	2c 83       	std	Y+4, r18	; 0x04
    1352:	8c 81       	ldd	r24, Y+4	; 0x04
    1354:	9d 81       	ldd	r25, Y+5	; 0x05
    1356:	82 30       	cpi	r24, 0x02	; 2
    1358:	91 05       	cpc	r25, r1
    135a:	69 f1       	breq	.+90     	; 0x13b6 <MDIO_stderrTogglePinValue+0x8a>
    135c:	2c 81       	ldd	r18, Y+4	; 0x04
    135e:	3d 81       	ldd	r19, Y+5	; 0x05
    1360:	23 30       	cpi	r18, 0x03	; 3
    1362:	31 05       	cpc	r19, r1
    1364:	34 f4       	brge	.+12     	; 0x1372 <MDIO_stderrTogglePinValue+0x46>
    1366:	8c 81       	ldd	r24, Y+4	; 0x04
    1368:	9d 81       	ldd	r25, Y+5	; 0x05
    136a:	81 30       	cpi	r24, 0x01	; 1
    136c:	91 05       	cpc	r25, r1
    136e:	69 f0       	breq	.+26     	; 0x138a <MDIO_stderrTogglePinValue+0x5e>
    1370:	64 c0       	rjmp	.+200    	; 0x143a <MDIO_stderrTogglePinValue+0x10e>
    1372:	2c 81       	ldd	r18, Y+4	; 0x04
    1374:	3d 81       	ldd	r19, Y+5	; 0x05
    1376:	23 30       	cpi	r18, 0x03	; 3
    1378:	31 05       	cpc	r19, r1
    137a:	99 f1       	breq	.+102    	; 0x13e2 <MDIO_stderrTogglePinValue+0xb6>
    137c:	8c 81       	ldd	r24, Y+4	; 0x04
    137e:	9d 81       	ldd	r25, Y+5	; 0x05
    1380:	84 30       	cpi	r24, 0x04	; 4
    1382:	91 05       	cpc	r25, r1
    1384:	09 f4       	brne	.+2      	; 0x1388 <MDIO_stderrTogglePinValue+0x5c>
    1386:	43 c0       	rjmp	.+134    	; 0x140e <MDIO_stderrTogglePinValue+0xe2>
    1388:	58 c0       	rjmp	.+176    	; 0x143a <MDIO_stderrTogglePinValue+0x10e>
		{
			case MDIO_PORTA:GPIOA->PORT ^= (1<<ARG_u8Pin) ; break;
    138a:	a9 e3       	ldi	r26, 0x39	; 57
    138c:	b0 e0       	ldi	r27, 0x00	; 0
    138e:	e9 e3       	ldi	r30, 0x39	; 57
    1390:	f0 e0       	ldi	r31, 0x00	; 0
    1392:	82 81       	ldd	r24, Z+2	; 0x02
    1394:	48 2f       	mov	r20, r24
    1396:	8b 81       	ldd	r24, Y+3	; 0x03
    1398:	28 2f       	mov	r18, r24
    139a:	30 e0       	ldi	r19, 0x00	; 0
    139c:	81 e0       	ldi	r24, 0x01	; 1
    139e:	90 e0       	ldi	r25, 0x00	; 0
    13a0:	02 2e       	mov	r0, r18
    13a2:	02 c0       	rjmp	.+4      	; 0x13a8 <MDIO_stderrTogglePinValue+0x7c>
    13a4:	88 0f       	add	r24, r24
    13a6:	99 1f       	adc	r25, r25
    13a8:	0a 94       	dec	r0
    13aa:	e2 f7       	brpl	.-8      	; 0x13a4 <MDIO_stderrTogglePinValue+0x78>
    13ac:	84 27       	eor	r24, r20
    13ae:	12 96       	adiw	r26, 0x02	; 2
    13b0:	8c 93       	st	X, r24
    13b2:	12 97       	sbiw	r26, 0x02	; 2
    13b4:	47 c0       	rjmp	.+142    	; 0x1444 <MDIO_stderrTogglePinValue+0x118>
			case MDIO_PORTB:GPIOB->PORT ^= (1<<ARG_u8Pin) ; break;
    13b6:	a6 e3       	ldi	r26, 0x36	; 54
    13b8:	b0 e0       	ldi	r27, 0x00	; 0
    13ba:	e6 e3       	ldi	r30, 0x36	; 54
    13bc:	f0 e0       	ldi	r31, 0x00	; 0
    13be:	82 81       	ldd	r24, Z+2	; 0x02
    13c0:	48 2f       	mov	r20, r24
    13c2:	8b 81       	ldd	r24, Y+3	; 0x03
    13c4:	28 2f       	mov	r18, r24
    13c6:	30 e0       	ldi	r19, 0x00	; 0
    13c8:	81 e0       	ldi	r24, 0x01	; 1
    13ca:	90 e0       	ldi	r25, 0x00	; 0
    13cc:	02 2e       	mov	r0, r18
    13ce:	02 c0       	rjmp	.+4      	; 0x13d4 <MDIO_stderrTogglePinValue+0xa8>
    13d0:	88 0f       	add	r24, r24
    13d2:	99 1f       	adc	r25, r25
    13d4:	0a 94       	dec	r0
    13d6:	e2 f7       	brpl	.-8      	; 0x13d0 <MDIO_stderrTogglePinValue+0xa4>
    13d8:	84 27       	eor	r24, r20
    13da:	12 96       	adiw	r26, 0x02	; 2
    13dc:	8c 93       	st	X, r24
    13de:	12 97       	sbiw	r26, 0x02	; 2
    13e0:	31 c0       	rjmp	.+98     	; 0x1444 <MDIO_stderrTogglePinValue+0x118>
			case MDIO_PORTC:GPIOC->PORT ^= (1<<ARG_u8Pin) ; break;
    13e2:	a3 e3       	ldi	r26, 0x33	; 51
    13e4:	b0 e0       	ldi	r27, 0x00	; 0
    13e6:	e3 e3       	ldi	r30, 0x33	; 51
    13e8:	f0 e0       	ldi	r31, 0x00	; 0
    13ea:	82 81       	ldd	r24, Z+2	; 0x02
    13ec:	48 2f       	mov	r20, r24
    13ee:	8b 81       	ldd	r24, Y+3	; 0x03
    13f0:	28 2f       	mov	r18, r24
    13f2:	30 e0       	ldi	r19, 0x00	; 0
    13f4:	81 e0       	ldi	r24, 0x01	; 1
    13f6:	90 e0       	ldi	r25, 0x00	; 0
    13f8:	02 2e       	mov	r0, r18
    13fa:	02 c0       	rjmp	.+4      	; 0x1400 <MDIO_stderrTogglePinValue+0xd4>
    13fc:	88 0f       	add	r24, r24
    13fe:	99 1f       	adc	r25, r25
    1400:	0a 94       	dec	r0
    1402:	e2 f7       	brpl	.-8      	; 0x13fc <MDIO_stderrTogglePinValue+0xd0>
    1404:	84 27       	eor	r24, r20
    1406:	12 96       	adiw	r26, 0x02	; 2
    1408:	8c 93       	st	X, r24
    140a:	12 97       	sbiw	r26, 0x02	; 2
    140c:	1b c0       	rjmp	.+54     	; 0x1444 <MDIO_stderrTogglePinValue+0x118>
			case MDIO_PORTD:GPIOD->PORT ^= (1<<ARG_u8Pin) ; break;
    140e:	a0 e3       	ldi	r26, 0x30	; 48
    1410:	b0 e0       	ldi	r27, 0x00	; 0
    1412:	e0 e3       	ldi	r30, 0x30	; 48
    1414:	f0 e0       	ldi	r31, 0x00	; 0
    1416:	82 81       	ldd	r24, Z+2	; 0x02
    1418:	48 2f       	mov	r20, r24
    141a:	8b 81       	ldd	r24, Y+3	; 0x03
    141c:	28 2f       	mov	r18, r24
    141e:	30 e0       	ldi	r19, 0x00	; 0
    1420:	81 e0       	ldi	r24, 0x01	; 1
    1422:	90 e0       	ldi	r25, 0x00	; 0
    1424:	02 2e       	mov	r0, r18
    1426:	02 c0       	rjmp	.+4      	; 0x142c <MDIO_stderrTogglePinValue+0x100>
    1428:	88 0f       	add	r24, r24
    142a:	99 1f       	adc	r25, r25
    142c:	0a 94       	dec	r0
    142e:	e2 f7       	brpl	.-8      	; 0x1428 <MDIO_stderrTogglePinValue+0xfc>
    1430:	84 27       	eor	r24, r20
    1432:	12 96       	adiw	r26, 0x02	; 2
    1434:	8c 93       	st	X, r24
    1436:	12 97       	sbiw	r26, 0x02	; 2
    1438:	05 c0       	rjmp	.+10     	; 0x1444 <MDIO_stderrTogglePinValue+0x118>
			default: L_stderrError = E_NOK; break; /* report an error*/
    143a:	81 e0       	ldi	r24, 0x01	; 1
    143c:	89 83       	std	Y+1, r24	; 0x01
    143e:	02 c0       	rjmp	.+4      	; 0x1444 <MDIO_stderrTogglePinValue+0x118>
		}	
	}
	else{
		L_stderrError=E_NULL_POINTER;
    1440:	82 e0       	ldi	r24, 0x02	; 2
    1442:	89 83       	std	Y+1, r24	; 0x01
	}
	return L_stderrError;
    1444:	89 81       	ldd	r24, Y+1	; 0x01
}
    1446:	0f 90       	pop	r0
    1448:	0f 90       	pop	r0
    144a:	0f 90       	pop	r0
    144c:	0f 90       	pop	r0
    144e:	0f 90       	pop	r0
    1450:	cf 91       	pop	r28
    1452:	df 91       	pop	r29
    1454:	08 95       	ret

00001456 <MDIO_stderrEnablePullUP>:


/* will not be used*/

STD_error_t MDIO_stderrEnablePullUP(u8 ARG_u8Port ,u8 ARG_u8Pin)
{
    1456:	df 93       	push	r29
    1458:	cf 93       	push	r28
    145a:	00 d0       	rcall	.+0      	; 0x145c <MDIO_stderrEnablePullUP+0x6>
    145c:	00 d0       	rcall	.+0      	; 0x145e <MDIO_stderrEnablePullUP+0x8>
    145e:	0f 92       	push	r0
    1460:	cd b7       	in	r28, 0x3d	; 61
    1462:	de b7       	in	r29, 0x3e	; 62
    1464:	8a 83       	std	Y+2, r24	; 0x02
    1466:	6b 83       	std	Y+3, r22	; 0x03
	STD_error_t L_stderrError= E_OK;
    1468:	19 82       	std	Y+1, r1	; 0x01
	/* Set bit */
	switch(ARG_u8Port)
    146a:	8a 81       	ldd	r24, Y+2	; 0x02
    146c:	28 2f       	mov	r18, r24
    146e:	30 e0       	ldi	r19, 0x00	; 0
    1470:	3d 83       	std	Y+5, r19	; 0x05
    1472:	2c 83       	std	Y+4, r18	; 0x04
    1474:	8c 81       	ldd	r24, Y+4	; 0x04
    1476:	9d 81       	ldd	r25, Y+5	; 0x05
    1478:	82 30       	cpi	r24, 0x02	; 2
    147a:	91 05       	cpc	r25, r1
    147c:	69 f1       	breq	.+90     	; 0x14d8 <MDIO_stderrEnablePullUP+0x82>
    147e:	2c 81       	ldd	r18, Y+4	; 0x04
    1480:	3d 81       	ldd	r19, Y+5	; 0x05
    1482:	23 30       	cpi	r18, 0x03	; 3
    1484:	31 05       	cpc	r19, r1
    1486:	34 f4       	brge	.+12     	; 0x1494 <MDIO_stderrEnablePullUP+0x3e>
    1488:	8c 81       	ldd	r24, Y+4	; 0x04
    148a:	9d 81       	ldd	r25, Y+5	; 0x05
    148c:	81 30       	cpi	r24, 0x01	; 1
    148e:	91 05       	cpc	r25, r1
    1490:	69 f0       	breq	.+26     	; 0x14ac <MDIO_stderrEnablePullUP+0x56>
    1492:	64 c0       	rjmp	.+200    	; 0x155c <MDIO_stderrEnablePullUP+0x106>
    1494:	2c 81       	ldd	r18, Y+4	; 0x04
    1496:	3d 81       	ldd	r19, Y+5	; 0x05
    1498:	23 30       	cpi	r18, 0x03	; 3
    149a:	31 05       	cpc	r19, r1
    149c:	99 f1       	breq	.+102    	; 0x1504 <MDIO_stderrEnablePullUP+0xae>
    149e:	8c 81       	ldd	r24, Y+4	; 0x04
    14a0:	9d 81       	ldd	r25, Y+5	; 0x05
    14a2:	84 30       	cpi	r24, 0x04	; 4
    14a4:	91 05       	cpc	r25, r1
    14a6:	09 f4       	brne	.+2      	; 0x14aa <MDIO_stderrEnablePullUP+0x54>
    14a8:	43 c0       	rjmp	.+134    	; 0x1530 <MDIO_stderrEnablePullUP+0xda>
    14aa:	58 c0       	rjmp	.+176    	; 0x155c <MDIO_stderrEnablePullUP+0x106>
	{
		case MDIO_PORTA:GPIOA->PORT |= (1<<ARG_u8Pin) ; break;
    14ac:	a9 e3       	ldi	r26, 0x39	; 57
    14ae:	b0 e0       	ldi	r27, 0x00	; 0
    14b0:	e9 e3       	ldi	r30, 0x39	; 57
    14b2:	f0 e0       	ldi	r31, 0x00	; 0
    14b4:	82 81       	ldd	r24, Z+2	; 0x02
    14b6:	48 2f       	mov	r20, r24
    14b8:	8b 81       	ldd	r24, Y+3	; 0x03
    14ba:	28 2f       	mov	r18, r24
    14bc:	30 e0       	ldi	r19, 0x00	; 0
    14be:	81 e0       	ldi	r24, 0x01	; 1
    14c0:	90 e0       	ldi	r25, 0x00	; 0
    14c2:	02 2e       	mov	r0, r18
    14c4:	02 c0       	rjmp	.+4      	; 0x14ca <MDIO_stderrEnablePullUP+0x74>
    14c6:	88 0f       	add	r24, r24
    14c8:	99 1f       	adc	r25, r25
    14ca:	0a 94       	dec	r0
    14cc:	e2 f7       	brpl	.-8      	; 0x14c6 <MDIO_stderrEnablePullUP+0x70>
    14ce:	84 2b       	or	r24, r20
    14d0:	12 96       	adiw	r26, 0x02	; 2
    14d2:	8c 93       	st	X, r24
    14d4:	12 97       	sbiw	r26, 0x02	; 2
    14d6:	44 c0       	rjmp	.+136    	; 0x1560 <MDIO_stderrEnablePullUP+0x10a>
		case MDIO_PORTB:GPIOB->PORT |= (1<<ARG_u8Pin) ; break;
    14d8:	a6 e3       	ldi	r26, 0x36	; 54
    14da:	b0 e0       	ldi	r27, 0x00	; 0
    14dc:	e6 e3       	ldi	r30, 0x36	; 54
    14de:	f0 e0       	ldi	r31, 0x00	; 0
    14e0:	82 81       	ldd	r24, Z+2	; 0x02
    14e2:	48 2f       	mov	r20, r24
    14e4:	8b 81       	ldd	r24, Y+3	; 0x03
    14e6:	28 2f       	mov	r18, r24
    14e8:	30 e0       	ldi	r19, 0x00	; 0
    14ea:	81 e0       	ldi	r24, 0x01	; 1
    14ec:	90 e0       	ldi	r25, 0x00	; 0
    14ee:	02 2e       	mov	r0, r18
    14f0:	02 c0       	rjmp	.+4      	; 0x14f6 <MDIO_stderrEnablePullUP+0xa0>
    14f2:	88 0f       	add	r24, r24
    14f4:	99 1f       	adc	r25, r25
    14f6:	0a 94       	dec	r0
    14f8:	e2 f7       	brpl	.-8      	; 0x14f2 <MDIO_stderrEnablePullUP+0x9c>
    14fa:	84 2b       	or	r24, r20
    14fc:	12 96       	adiw	r26, 0x02	; 2
    14fe:	8c 93       	st	X, r24
    1500:	12 97       	sbiw	r26, 0x02	; 2
    1502:	2e c0       	rjmp	.+92     	; 0x1560 <MDIO_stderrEnablePullUP+0x10a>
		case MDIO_PORTC:GPIOC->PORT |= (1<<ARG_u8Pin) ; break;
    1504:	a3 e3       	ldi	r26, 0x33	; 51
    1506:	b0 e0       	ldi	r27, 0x00	; 0
    1508:	e3 e3       	ldi	r30, 0x33	; 51
    150a:	f0 e0       	ldi	r31, 0x00	; 0
    150c:	82 81       	ldd	r24, Z+2	; 0x02
    150e:	48 2f       	mov	r20, r24
    1510:	8b 81       	ldd	r24, Y+3	; 0x03
    1512:	28 2f       	mov	r18, r24
    1514:	30 e0       	ldi	r19, 0x00	; 0
    1516:	81 e0       	ldi	r24, 0x01	; 1
    1518:	90 e0       	ldi	r25, 0x00	; 0
    151a:	02 2e       	mov	r0, r18
    151c:	02 c0       	rjmp	.+4      	; 0x1522 <MDIO_stderrEnablePullUP+0xcc>
    151e:	88 0f       	add	r24, r24
    1520:	99 1f       	adc	r25, r25
    1522:	0a 94       	dec	r0
    1524:	e2 f7       	brpl	.-8      	; 0x151e <MDIO_stderrEnablePullUP+0xc8>
    1526:	84 2b       	or	r24, r20
    1528:	12 96       	adiw	r26, 0x02	; 2
    152a:	8c 93       	st	X, r24
    152c:	12 97       	sbiw	r26, 0x02	; 2
    152e:	18 c0       	rjmp	.+48     	; 0x1560 <MDIO_stderrEnablePullUP+0x10a>
		case MDIO_PORTD:GPIOD->PORT |= (1<<ARG_u8Pin) ; break;
    1530:	a0 e3       	ldi	r26, 0x30	; 48
    1532:	b0 e0       	ldi	r27, 0x00	; 0
    1534:	e0 e3       	ldi	r30, 0x30	; 48
    1536:	f0 e0       	ldi	r31, 0x00	; 0
    1538:	82 81       	ldd	r24, Z+2	; 0x02
    153a:	48 2f       	mov	r20, r24
    153c:	8b 81       	ldd	r24, Y+3	; 0x03
    153e:	28 2f       	mov	r18, r24
    1540:	30 e0       	ldi	r19, 0x00	; 0
    1542:	81 e0       	ldi	r24, 0x01	; 1
    1544:	90 e0       	ldi	r25, 0x00	; 0
    1546:	02 2e       	mov	r0, r18
    1548:	02 c0       	rjmp	.+4      	; 0x154e <MDIO_stderrEnablePullUP+0xf8>
    154a:	88 0f       	add	r24, r24
    154c:	99 1f       	adc	r25, r25
    154e:	0a 94       	dec	r0
    1550:	e2 f7       	brpl	.-8      	; 0x154a <MDIO_stderrEnablePullUP+0xf4>
    1552:	84 2b       	or	r24, r20
    1554:	12 96       	adiw	r26, 0x02	; 2
    1556:	8c 93       	st	X, r24
    1558:	12 97       	sbiw	r26, 0x02	; 2
    155a:	02 c0       	rjmp	.+4      	; 0x1560 <MDIO_stderrEnablePullUP+0x10a>
		default: L_stderrError = E_NOK; break; /* reporrt an error*/
    155c:	81 e0       	ldi	r24, 0x01	; 1
    155e:	89 83       	std	Y+1, r24	; 0x01
		
	}
	return L_stderrError;
    1560:	89 81       	ldd	r24, Y+1	; 0x01
}
    1562:	0f 90       	pop	r0
    1564:	0f 90       	pop	r0
    1566:	0f 90       	pop	r0
    1568:	0f 90       	pop	r0
    156a:	0f 90       	pop	r0
    156c:	cf 91       	pop	r28
    156e:	df 91       	pop	r29
    1570:	08 95       	ret

00001572 <MDIO_stderrDisablePullUP>:

STD_error_t MDIO_stderrDisablePullUP(u8 ARG_u8Port ,u8 ARG_u8Pin)
{
    1572:	df 93       	push	r29
    1574:	cf 93       	push	r28
    1576:	00 d0       	rcall	.+0      	; 0x1578 <MDIO_stderrDisablePullUP+0x6>
    1578:	00 d0       	rcall	.+0      	; 0x157a <MDIO_stderrDisablePullUP+0x8>
    157a:	0f 92       	push	r0
    157c:	cd b7       	in	r28, 0x3d	; 61
    157e:	de b7       	in	r29, 0x3e	; 62
    1580:	8a 83       	std	Y+2, r24	; 0x02
    1582:	6b 83       	std	Y+3, r22	; 0x03
	STD_error_t L_stderrError= E_OK;
    1584:	19 82       	std	Y+1, r1	; 0x01
	/* Clear bit */
	switch(ARG_u8Port)
    1586:	8a 81       	ldd	r24, Y+2	; 0x02
    1588:	28 2f       	mov	r18, r24
    158a:	30 e0       	ldi	r19, 0x00	; 0
    158c:	3d 83       	std	Y+5, r19	; 0x05
    158e:	2c 83       	std	Y+4, r18	; 0x04
    1590:	8c 81       	ldd	r24, Y+4	; 0x04
    1592:	9d 81       	ldd	r25, Y+5	; 0x05
    1594:	82 30       	cpi	r24, 0x02	; 2
    1596:	91 05       	cpc	r25, r1
    1598:	71 f1       	breq	.+92     	; 0x15f6 <MDIO_stderrDisablePullUP+0x84>
    159a:	2c 81       	ldd	r18, Y+4	; 0x04
    159c:	3d 81       	ldd	r19, Y+5	; 0x05
    159e:	23 30       	cpi	r18, 0x03	; 3
    15a0:	31 05       	cpc	r19, r1
    15a2:	34 f4       	brge	.+12     	; 0x15b0 <MDIO_stderrDisablePullUP+0x3e>
    15a4:	8c 81       	ldd	r24, Y+4	; 0x04
    15a6:	9d 81       	ldd	r25, Y+5	; 0x05
    15a8:	81 30       	cpi	r24, 0x01	; 1
    15aa:	91 05       	cpc	r25, r1
    15ac:	69 f0       	breq	.+26     	; 0x15c8 <MDIO_stderrDisablePullUP+0x56>
    15ae:	68 c0       	rjmp	.+208    	; 0x1680 <MDIO_stderrDisablePullUP+0x10e>
    15b0:	2c 81       	ldd	r18, Y+4	; 0x04
    15b2:	3d 81       	ldd	r19, Y+5	; 0x05
    15b4:	23 30       	cpi	r18, 0x03	; 3
    15b6:	31 05       	cpc	r19, r1
    15b8:	a9 f1       	breq	.+106    	; 0x1624 <MDIO_stderrDisablePullUP+0xb2>
    15ba:	8c 81       	ldd	r24, Y+4	; 0x04
    15bc:	9d 81       	ldd	r25, Y+5	; 0x05
    15be:	84 30       	cpi	r24, 0x04	; 4
    15c0:	91 05       	cpc	r25, r1
    15c2:	09 f4       	brne	.+2      	; 0x15c6 <MDIO_stderrDisablePullUP+0x54>
    15c4:	46 c0       	rjmp	.+140    	; 0x1652 <MDIO_stderrDisablePullUP+0xe0>
    15c6:	5c c0       	rjmp	.+184    	; 0x1680 <MDIO_stderrDisablePullUP+0x10e>
	{
		case MDIO_PORTA:GPIOA->PORT &= ~(1<<ARG_u8Pin) ; break;
    15c8:	a9 e3       	ldi	r26, 0x39	; 57
    15ca:	b0 e0       	ldi	r27, 0x00	; 0
    15cc:	e9 e3       	ldi	r30, 0x39	; 57
    15ce:	f0 e0       	ldi	r31, 0x00	; 0
    15d0:	82 81       	ldd	r24, Z+2	; 0x02
    15d2:	48 2f       	mov	r20, r24
    15d4:	8b 81       	ldd	r24, Y+3	; 0x03
    15d6:	28 2f       	mov	r18, r24
    15d8:	30 e0       	ldi	r19, 0x00	; 0
    15da:	81 e0       	ldi	r24, 0x01	; 1
    15dc:	90 e0       	ldi	r25, 0x00	; 0
    15de:	02 2e       	mov	r0, r18
    15e0:	02 c0       	rjmp	.+4      	; 0x15e6 <MDIO_stderrDisablePullUP+0x74>
    15e2:	88 0f       	add	r24, r24
    15e4:	99 1f       	adc	r25, r25
    15e6:	0a 94       	dec	r0
    15e8:	e2 f7       	brpl	.-8      	; 0x15e2 <MDIO_stderrDisablePullUP+0x70>
    15ea:	80 95       	com	r24
    15ec:	84 23       	and	r24, r20
    15ee:	12 96       	adiw	r26, 0x02	; 2
    15f0:	8c 93       	st	X, r24
    15f2:	12 97       	sbiw	r26, 0x02	; 2
    15f4:	47 c0       	rjmp	.+142    	; 0x1684 <MDIO_stderrDisablePullUP+0x112>
		case MDIO_PORTB:GPIOB->PORT &= ~(1<<ARG_u8Pin) ; break;
    15f6:	a6 e3       	ldi	r26, 0x36	; 54
    15f8:	b0 e0       	ldi	r27, 0x00	; 0
    15fa:	e6 e3       	ldi	r30, 0x36	; 54
    15fc:	f0 e0       	ldi	r31, 0x00	; 0
    15fe:	82 81       	ldd	r24, Z+2	; 0x02
    1600:	48 2f       	mov	r20, r24
    1602:	8b 81       	ldd	r24, Y+3	; 0x03
    1604:	28 2f       	mov	r18, r24
    1606:	30 e0       	ldi	r19, 0x00	; 0
    1608:	81 e0       	ldi	r24, 0x01	; 1
    160a:	90 e0       	ldi	r25, 0x00	; 0
    160c:	02 2e       	mov	r0, r18
    160e:	02 c0       	rjmp	.+4      	; 0x1614 <MDIO_stderrDisablePullUP+0xa2>
    1610:	88 0f       	add	r24, r24
    1612:	99 1f       	adc	r25, r25
    1614:	0a 94       	dec	r0
    1616:	e2 f7       	brpl	.-8      	; 0x1610 <MDIO_stderrDisablePullUP+0x9e>
    1618:	80 95       	com	r24
    161a:	84 23       	and	r24, r20
    161c:	12 96       	adiw	r26, 0x02	; 2
    161e:	8c 93       	st	X, r24
    1620:	12 97       	sbiw	r26, 0x02	; 2
    1622:	30 c0       	rjmp	.+96     	; 0x1684 <MDIO_stderrDisablePullUP+0x112>
		case MDIO_PORTC:GPIOC->PORT &= ~(1<<ARG_u8Pin) ; break;
    1624:	a3 e3       	ldi	r26, 0x33	; 51
    1626:	b0 e0       	ldi	r27, 0x00	; 0
    1628:	e3 e3       	ldi	r30, 0x33	; 51
    162a:	f0 e0       	ldi	r31, 0x00	; 0
    162c:	82 81       	ldd	r24, Z+2	; 0x02
    162e:	48 2f       	mov	r20, r24
    1630:	8b 81       	ldd	r24, Y+3	; 0x03
    1632:	28 2f       	mov	r18, r24
    1634:	30 e0       	ldi	r19, 0x00	; 0
    1636:	81 e0       	ldi	r24, 0x01	; 1
    1638:	90 e0       	ldi	r25, 0x00	; 0
    163a:	02 2e       	mov	r0, r18
    163c:	02 c0       	rjmp	.+4      	; 0x1642 <MDIO_stderrDisablePullUP+0xd0>
    163e:	88 0f       	add	r24, r24
    1640:	99 1f       	adc	r25, r25
    1642:	0a 94       	dec	r0
    1644:	e2 f7       	brpl	.-8      	; 0x163e <MDIO_stderrDisablePullUP+0xcc>
    1646:	80 95       	com	r24
    1648:	84 23       	and	r24, r20
    164a:	12 96       	adiw	r26, 0x02	; 2
    164c:	8c 93       	st	X, r24
    164e:	12 97       	sbiw	r26, 0x02	; 2
    1650:	19 c0       	rjmp	.+50     	; 0x1684 <MDIO_stderrDisablePullUP+0x112>
		case MDIO_PORTD:GPIOD->PORT &= ~(1<<ARG_u8Pin) ; break;
    1652:	a0 e3       	ldi	r26, 0x30	; 48
    1654:	b0 e0       	ldi	r27, 0x00	; 0
    1656:	e0 e3       	ldi	r30, 0x30	; 48
    1658:	f0 e0       	ldi	r31, 0x00	; 0
    165a:	82 81       	ldd	r24, Z+2	; 0x02
    165c:	48 2f       	mov	r20, r24
    165e:	8b 81       	ldd	r24, Y+3	; 0x03
    1660:	28 2f       	mov	r18, r24
    1662:	30 e0       	ldi	r19, 0x00	; 0
    1664:	81 e0       	ldi	r24, 0x01	; 1
    1666:	90 e0       	ldi	r25, 0x00	; 0
    1668:	02 2e       	mov	r0, r18
    166a:	02 c0       	rjmp	.+4      	; 0x1670 <MDIO_stderrDisablePullUP+0xfe>
    166c:	88 0f       	add	r24, r24
    166e:	99 1f       	adc	r25, r25
    1670:	0a 94       	dec	r0
    1672:	e2 f7       	brpl	.-8      	; 0x166c <MDIO_stderrDisablePullUP+0xfa>
    1674:	80 95       	com	r24
    1676:	84 23       	and	r24, r20
    1678:	12 96       	adiw	r26, 0x02	; 2
    167a:	8c 93       	st	X, r24
    167c:	12 97       	sbiw	r26, 0x02	; 2
    167e:	02 c0       	rjmp	.+4      	; 0x1684 <MDIO_stderrDisablePullUP+0x112>
		default: L_stderrError = E_NOK; break; /* reporrt an error*/
    1680:	81 e0       	ldi	r24, 0x01	; 1
    1682:	89 83       	std	Y+1, r24	; 0x01
		
	}
	return L_stderrError;
    1684:	89 81       	ldd	r24, Y+1	; 0x01
}
    1686:	0f 90       	pop	r0
    1688:	0f 90       	pop	r0
    168a:	0f 90       	pop	r0
    168c:	0f 90       	pop	r0
    168e:	0f 90       	pop	r0
    1690:	cf 91       	pop	r28
    1692:	df 91       	pop	r29
    1694:	08 95       	ret

00001696 <main>:
#include "LSTD_types.h"

#include "MDIO_interface.h"


int main(void){
    1696:	df 93       	push	r29
    1698:	cf 93       	push	r28
    169a:	cd b7       	in	r28, 0x3d	; 61
    169c:	de b7       	in	r29, 0x3e	; 62
    169e:	6e 97       	sbiw	r28, 0x1e	; 30
    16a0:	0f b6       	in	r0, 0x3f	; 63
    16a2:	f8 94       	cli
    16a4:	de bf       	out	0x3e, r29	; 62
    16a6:	0f be       	out	0x3f, r0	; 63
    16a8:	cd bf       	out	0x3d, r28	; 61

    // Initialization  (Run Once)
	s8 i=0;
    16aa:	1d 8e       	std	Y+29, r1	; 0x1d
	u8 L_u8P0Value=1; //
    16ac:	81 e0       	ldi	r24, 0x01	; 1
    16ae:	8e 8f       	std	Y+30, r24	; 0x1e

	for(i=0;i<8;i++){
    16b0:	1d 8e       	std	Y+29, r1	; 0x1d
    16b2:	09 c0       	rjmp	.+18     	; 0x16c6 <main+0x30>
		MDIO_stderrSetPinDirection(MDIO_PORTA,i,MDIO_OUTPUT);
    16b4:	9d 8d       	ldd	r25, Y+29	; 0x1d
    16b6:	81 e0       	ldi	r24, 0x01	; 1
    16b8:	69 2f       	mov	r22, r25
    16ba:	41 e0       	ldi	r20, 0x01	; 1
    16bc:	0e 94 88 06 	call	0xd10	; 0xd10 <MDIO_stderrSetPinDirection>

    // Initialization  (Run Once)
	s8 i=0;
	u8 L_u8P0Value=1; //

	for(i=0;i<8;i++){
    16c0:	8d 8d       	ldd	r24, Y+29	; 0x1d
    16c2:	8f 5f       	subi	r24, 0xFF	; 255
    16c4:	8d 8f       	std	Y+29, r24	; 0x1d
    16c6:	8d 8d       	ldd	r24, Y+29	; 0x1d
    16c8:	88 30       	cpi	r24, 0x08	; 8
    16ca:	a4 f3       	brlt	.-24     	; 0x16b4 <main+0x1e>
		MDIO_stderrSetPinDirection(MDIO_PORTA,i,MDIO_OUTPUT);
	}
	MDIO_stderrSetPinDirection(MDIO_PORTB,MDIO_PIN0,MDIO_INPUT_PULLUP);
    16cc:	82 e0       	ldi	r24, 0x02	; 2
    16ce:	60 e0       	ldi	r22, 0x00	; 0
    16d0:	42 e0       	ldi	r20, 0x02	; 2
    16d2:	0e 94 88 06 	call	0xd10	; 0xd10 <MDIO_stderrSetPinDirection>

	while(1){
		// Application (Run )
		MDIO_stderrGetPinValue(&L_u8P0Value,MDIO_PORTB,MDIO_PIN0);
    16d6:	ce 01       	movw	r24, r28
    16d8:	4e 96       	adiw	r24, 0x1e	; 30
    16da:	62 e0       	ldi	r22, 0x02	; 2
    16dc:	40 e0       	ldi	r20, 0x00	; 0
    16de:	0e 94 fb 08 	call	0x11f6	; 0x11f6 <MDIO_stderrGetPinValue>

		if(0==L_u8P0Value){
    16e2:	8e 8d       	ldd	r24, Y+30	; 0x1e
    16e4:	88 23       	and	r24, r24
    16e6:	09 f0       	breq	.+2      	; 0x16ea <main+0x54>
    16e8:	88 c0       	rjmp	.+272    	; 0x17fa <main+0x164>

			for(i=0;i<8;i++){
    16ea:	1d 8e       	std	Y+29, r1	; 0x1d
    16ec:	81 c0       	rjmp	.+258    	; 0x17f0 <main+0x15a>
				MDIO_stderrSetPinValue(MDIO_PORTA,i,MDIO_HIGH);
    16ee:	9d 8d       	ldd	r25, Y+29	; 0x1d
    16f0:	81 e0       	ldi	r24, 0x01	; 1
    16f2:	69 2f       	mov	r22, r25
    16f4:	41 e0       	ldi	r20, 0x01	; 1
    16f6:	0e 94 06 08 	call	0x100c	; 0x100c <MDIO_stderrSetPinValue>
    16fa:	80 e0       	ldi	r24, 0x00	; 0
    16fc:	90 e0       	ldi	r25, 0x00	; 0
    16fe:	a8 e4       	ldi	r26, 0x48	; 72
    1700:	b4 e4       	ldi	r27, 0x44	; 68
    1702:	89 8f       	std	Y+25, r24	; 0x19
    1704:	9a 8f       	std	Y+26, r25	; 0x1a
    1706:	ab 8f       	std	Y+27, r26	; 0x1b
    1708:	bc 8f       	std	Y+28, r27	; 0x1c
 */
void
_delay_ms(double __ms)
{
	uint16_t __ticks;
	double __tmp = ((F_CPU) / 4e3) * __ms;
    170a:	69 8d       	ldd	r22, Y+25	; 0x19
    170c:	7a 8d       	ldd	r23, Y+26	; 0x1a
    170e:	8b 8d       	ldd	r24, Y+27	; 0x1b
    1710:	9c 8d       	ldd	r25, Y+28	; 0x1c
    1712:	20 e0       	ldi	r18, 0x00	; 0
    1714:	30 e0       	ldi	r19, 0x00	; 0
    1716:	4a ef       	ldi	r20, 0xFA	; 250
    1718:	54 e4       	ldi	r21, 0x44	; 68
    171a:	0e 94 17 02 	call	0x42e	; 0x42e <__mulsf3>
    171e:	dc 01       	movw	r26, r24
    1720:	cb 01       	movw	r24, r22
    1722:	8d 8b       	std	Y+21, r24	; 0x15
    1724:	9e 8b       	std	Y+22, r25	; 0x16
    1726:	af 8b       	std	Y+23, r26	; 0x17
    1728:	b8 8f       	std	Y+24, r27	; 0x18
	if (__tmp < 1.0)
    172a:	6d 89       	ldd	r22, Y+21	; 0x15
    172c:	7e 89       	ldd	r23, Y+22	; 0x16
    172e:	8f 89       	ldd	r24, Y+23	; 0x17
    1730:	98 8d       	ldd	r25, Y+24	; 0x18
    1732:	20 e0       	ldi	r18, 0x00	; 0
    1734:	30 e0       	ldi	r19, 0x00	; 0
    1736:	40 e8       	ldi	r20, 0x80	; 128
    1738:	5f e3       	ldi	r21, 0x3F	; 63
    173a:	0e 94 71 03 	call	0x6e2	; 0x6e2 <__ltsf2>
    173e:	88 23       	and	r24, r24
    1740:	2c f4       	brge	.+10     	; 0x174c <main+0xb6>
		__ticks = 1;
    1742:	81 e0       	ldi	r24, 0x01	; 1
    1744:	90 e0       	ldi	r25, 0x00	; 0
    1746:	9c 8b       	std	Y+20, r25	; 0x14
    1748:	8b 8b       	std	Y+19, r24	; 0x13
    174a:	3f c0       	rjmp	.+126    	; 0x17ca <main+0x134>
	else if (__tmp > 65535)
    174c:	6d 89       	ldd	r22, Y+21	; 0x15
    174e:	7e 89       	ldd	r23, Y+22	; 0x16
    1750:	8f 89       	ldd	r24, Y+23	; 0x17
    1752:	98 8d       	ldd	r25, Y+24	; 0x18
    1754:	20 e0       	ldi	r18, 0x00	; 0
    1756:	3f ef       	ldi	r19, 0xFF	; 255
    1758:	4f e7       	ldi	r20, 0x7F	; 127
    175a:	57 e4       	ldi	r21, 0x47	; 71
    175c:	0e 94 11 03 	call	0x622	; 0x622 <__gtsf2>
    1760:	18 16       	cp	r1, r24
    1762:	4c f5       	brge	.+82     	; 0x17b6 <main+0x120>
	{
		//	__ticks = requested delay in 1/10 ms
		__ticks = (uint16_t) (__ms * 10.0);
    1764:	69 8d       	ldd	r22, Y+25	; 0x19
    1766:	7a 8d       	ldd	r23, Y+26	; 0x1a
    1768:	8b 8d       	ldd	r24, Y+27	; 0x1b
    176a:	9c 8d       	ldd	r25, Y+28	; 0x1c
    176c:	20 e0       	ldi	r18, 0x00	; 0
    176e:	30 e0       	ldi	r19, 0x00	; 0
    1770:	40 e2       	ldi	r20, 0x20	; 32
    1772:	51 e4       	ldi	r21, 0x41	; 65
    1774:	0e 94 17 02 	call	0x42e	; 0x42e <__mulsf3>
    1778:	dc 01       	movw	r26, r24
    177a:	cb 01       	movw	r24, r22
    177c:	bc 01       	movw	r22, r24
    177e:	cd 01       	movw	r24, r26
    1780:	0e 94 41 00 	call	0x82	; 0x82 <__fixunssfsi>
    1784:	dc 01       	movw	r26, r24
    1786:	cb 01       	movw	r24, r22
    1788:	9c 8b       	std	Y+20, r25	; 0x14
    178a:	8b 8b       	std	Y+19, r24	; 0x13
    178c:	0f c0       	rjmp	.+30     	; 0x17ac <main+0x116>
    178e:	88 ec       	ldi	r24, 0xC8	; 200
    1790:	90 e0       	ldi	r25, 0x00	; 0
    1792:	9a 8b       	std	Y+18, r25	; 0x12
    1794:	89 8b       	std	Y+17, r24	; 0x11
    milliseconds can be achieved.
 */
void
_delay_loop_2(uint16_t __count)
{
	__asm__ volatile (
    1796:	89 89       	ldd	r24, Y+17	; 0x11
    1798:	9a 89       	ldd	r25, Y+18	; 0x12
    179a:	01 97       	sbiw	r24, 0x01	; 1
    179c:	f1 f7       	brne	.-4      	; 0x179a <main+0x104>
    179e:	9a 8b       	std	Y+18, r25	; 0x12
    17a0:	89 8b       	std	Y+17, r24	; 0x11
		while(__ticks)
		{
			// wait 1/10 ms
			_delay_loop_2(((F_CPU) / 4e3) / 10);
			__ticks --;
    17a2:	8b 89       	ldd	r24, Y+19	; 0x13
    17a4:	9c 89       	ldd	r25, Y+20	; 0x14
    17a6:	01 97       	sbiw	r24, 0x01	; 1
    17a8:	9c 8b       	std	Y+20, r25	; 0x14
    17aa:	8b 8b       	std	Y+19, r24	; 0x13
		__ticks = 1;
	else if (__tmp > 65535)
	{
		//	__ticks = requested delay in 1/10 ms
		__ticks = (uint16_t) (__ms * 10.0);
		while(__ticks)
    17ac:	8b 89       	ldd	r24, Y+19	; 0x13
    17ae:	9c 89       	ldd	r25, Y+20	; 0x14
    17b0:	00 97       	sbiw	r24, 0x00	; 0
    17b2:	69 f7       	brne	.-38     	; 0x178e <main+0xf8>
    17b4:	14 c0       	rjmp	.+40     	; 0x17de <main+0x148>
			__ticks --;
		}
		return;
	}
	else
		__ticks = (uint16_t)__tmp;
    17b6:	6d 89       	ldd	r22, Y+21	; 0x15
    17b8:	7e 89       	ldd	r23, Y+22	; 0x16
    17ba:	8f 89       	ldd	r24, Y+23	; 0x17
    17bc:	98 8d       	ldd	r25, Y+24	; 0x18
    17be:	0e 94 41 00 	call	0x82	; 0x82 <__fixunssfsi>
    17c2:	dc 01       	movw	r26, r24
    17c4:	cb 01       	movw	r24, r22
    17c6:	9c 8b       	std	Y+20, r25	; 0x14
    17c8:	8b 8b       	std	Y+19, r24	; 0x13
    17ca:	8b 89       	ldd	r24, Y+19	; 0x13
    17cc:	9c 89       	ldd	r25, Y+20	; 0x14
    17ce:	98 8b       	std	Y+16, r25	; 0x10
    17d0:	8f 87       	std	Y+15, r24	; 0x0f
    17d2:	8f 85       	ldd	r24, Y+15	; 0x0f
    17d4:	98 89       	ldd	r25, Y+16	; 0x10
    17d6:	01 97       	sbiw	r24, 0x01	; 1
    17d8:	f1 f7       	brne	.-4      	; 0x17d6 <main+0x140>
    17da:	98 8b       	std	Y+16, r25	; 0x10
    17dc:	8f 87       	std	Y+15, r24	; 0x0f
				_delay_ms(800);
				MDIO_stderrSetPinValue(MDIO_PORTA,i,MDIO_LOW);
    17de:	9d 8d       	ldd	r25, Y+29	; 0x1d
    17e0:	81 e0       	ldi	r24, 0x01	; 1
    17e2:	69 2f       	mov	r22, r25
    17e4:	40 e0       	ldi	r20, 0x00	; 0
    17e6:	0e 94 06 08 	call	0x100c	; 0x100c <MDIO_stderrSetPinValue>
		// Application (Run )
		MDIO_stderrGetPinValue(&L_u8P0Value,MDIO_PORTB,MDIO_PIN0);

		if(0==L_u8P0Value){

			for(i=0;i<8;i++){
    17ea:	8d 8d       	ldd	r24, Y+29	; 0x1d
    17ec:	8f 5f       	subi	r24, 0xFF	; 255
    17ee:	8d 8f       	std	Y+29, r24	; 0x1d
    17f0:	8d 8d       	ldd	r24, Y+29	; 0x1d
    17f2:	88 30       	cpi	r24, 0x08	; 8
    17f4:	0c f4       	brge	.+2      	; 0x17f8 <main+0x162>
    17f6:	7b cf       	rjmp	.-266    	; 0x16ee <main+0x58>
    17f8:	6e cf       	rjmp	.-292    	; 0x16d6 <main+0x40>
				MDIO_stderrSetPinValue(MDIO_PORTA,i,MDIO_HIGH);
				_delay_ms(800);
				MDIO_stderrSetPinValue(MDIO_PORTA,i,MDIO_LOW);
			}
		}
		else if(1==L_u8P0Value){
    17fa:	8e 8d       	ldd	r24, Y+30	; 0x1e
    17fc:	81 30       	cpi	r24, 0x01	; 1
    17fe:	09 f0       	breq	.+2      	; 0x1802 <main+0x16c>
    1800:	6a cf       	rjmp	.-300    	; 0x16d6 <main+0x40>

			for(i=7;i>=0;i--){
    1802:	87 e0       	ldi	r24, 0x07	; 7
    1804:	8d 8f       	std	Y+29, r24	; 0x1d
    1806:	81 c0       	rjmp	.+258    	; 0x190a <main+0x274>
				MDIO_stderrSetPinValue(MDIO_PORTA,i,MDIO_HIGH);
    1808:	9d 8d       	ldd	r25, Y+29	; 0x1d
    180a:	81 e0       	ldi	r24, 0x01	; 1
    180c:	69 2f       	mov	r22, r25
    180e:	41 e0       	ldi	r20, 0x01	; 1
    1810:	0e 94 06 08 	call	0x100c	; 0x100c <MDIO_stderrSetPinValue>
    1814:	80 e0       	ldi	r24, 0x00	; 0
    1816:	90 e0       	ldi	r25, 0x00	; 0
    1818:	a8 e4       	ldi	r26, 0x48	; 72
    181a:	b4 e4       	ldi	r27, 0x44	; 68
    181c:	8b 87       	std	Y+11, r24	; 0x0b
    181e:	9c 87       	std	Y+12, r25	; 0x0c
    1820:	ad 87       	std	Y+13, r26	; 0x0d
    1822:	be 87       	std	Y+14, r27	; 0x0e
 */
void
_delay_ms(double __ms)
{
	uint16_t __ticks;
	double __tmp = ((F_CPU) / 4e3) * __ms;
    1824:	6b 85       	ldd	r22, Y+11	; 0x0b
    1826:	7c 85       	ldd	r23, Y+12	; 0x0c
    1828:	8d 85       	ldd	r24, Y+13	; 0x0d
    182a:	9e 85       	ldd	r25, Y+14	; 0x0e
    182c:	20 e0       	ldi	r18, 0x00	; 0
    182e:	30 e0       	ldi	r19, 0x00	; 0
    1830:	4a ef       	ldi	r20, 0xFA	; 250
    1832:	54 e4       	ldi	r21, 0x44	; 68
    1834:	0e 94 17 02 	call	0x42e	; 0x42e <__mulsf3>
    1838:	dc 01       	movw	r26, r24
    183a:	cb 01       	movw	r24, r22
    183c:	8f 83       	std	Y+7, r24	; 0x07
    183e:	98 87       	std	Y+8, r25	; 0x08
    1840:	a9 87       	std	Y+9, r26	; 0x09
    1842:	ba 87       	std	Y+10, r27	; 0x0a
	if (__tmp < 1.0)
    1844:	6f 81       	ldd	r22, Y+7	; 0x07
    1846:	78 85       	ldd	r23, Y+8	; 0x08
    1848:	89 85       	ldd	r24, Y+9	; 0x09
    184a:	9a 85       	ldd	r25, Y+10	; 0x0a
    184c:	20 e0       	ldi	r18, 0x00	; 0
    184e:	30 e0       	ldi	r19, 0x00	; 0
    1850:	40 e8       	ldi	r20, 0x80	; 128
    1852:	5f e3       	ldi	r21, 0x3F	; 63
    1854:	0e 94 71 03 	call	0x6e2	; 0x6e2 <__ltsf2>
    1858:	88 23       	and	r24, r24
    185a:	2c f4       	brge	.+10     	; 0x1866 <main+0x1d0>
		__ticks = 1;
    185c:	81 e0       	ldi	r24, 0x01	; 1
    185e:	90 e0       	ldi	r25, 0x00	; 0
    1860:	9e 83       	std	Y+6, r25	; 0x06
    1862:	8d 83       	std	Y+5, r24	; 0x05
    1864:	3f c0       	rjmp	.+126    	; 0x18e4 <main+0x24e>
	else if (__tmp > 65535)
    1866:	6f 81       	ldd	r22, Y+7	; 0x07
    1868:	78 85       	ldd	r23, Y+8	; 0x08
    186a:	89 85       	ldd	r24, Y+9	; 0x09
    186c:	9a 85       	ldd	r25, Y+10	; 0x0a
    186e:	20 e0       	ldi	r18, 0x00	; 0
    1870:	3f ef       	ldi	r19, 0xFF	; 255
    1872:	4f e7       	ldi	r20, 0x7F	; 127
    1874:	57 e4       	ldi	r21, 0x47	; 71
    1876:	0e 94 11 03 	call	0x622	; 0x622 <__gtsf2>
    187a:	18 16       	cp	r1, r24
    187c:	4c f5       	brge	.+82     	; 0x18d0 <main+0x23a>
	{
		//	__ticks = requested delay in 1/10 ms
		__ticks = (uint16_t) (__ms * 10.0);
    187e:	6b 85       	ldd	r22, Y+11	; 0x0b
    1880:	7c 85       	ldd	r23, Y+12	; 0x0c
    1882:	8d 85       	ldd	r24, Y+13	; 0x0d
    1884:	9e 85       	ldd	r25, Y+14	; 0x0e
    1886:	20 e0       	ldi	r18, 0x00	; 0
    1888:	30 e0       	ldi	r19, 0x00	; 0
    188a:	40 e2       	ldi	r20, 0x20	; 32
    188c:	51 e4       	ldi	r21, 0x41	; 65
    188e:	0e 94 17 02 	call	0x42e	; 0x42e <__mulsf3>
    1892:	dc 01       	movw	r26, r24
    1894:	cb 01       	movw	r24, r22
    1896:	bc 01       	movw	r22, r24
    1898:	cd 01       	movw	r24, r26
    189a:	0e 94 41 00 	call	0x82	; 0x82 <__fixunssfsi>
    189e:	dc 01       	movw	r26, r24
    18a0:	cb 01       	movw	r24, r22
    18a2:	9e 83       	std	Y+6, r25	; 0x06
    18a4:	8d 83       	std	Y+5, r24	; 0x05
    18a6:	0f c0       	rjmp	.+30     	; 0x18c6 <main+0x230>
    18a8:	88 ec       	ldi	r24, 0xC8	; 200
    18aa:	90 e0       	ldi	r25, 0x00	; 0
    18ac:	9c 83       	std	Y+4, r25	; 0x04
    18ae:	8b 83       	std	Y+3, r24	; 0x03
    18b0:	8b 81       	ldd	r24, Y+3	; 0x03
    18b2:	9c 81       	ldd	r25, Y+4	; 0x04
    18b4:	01 97       	sbiw	r24, 0x01	; 1
    18b6:	f1 f7       	brne	.-4      	; 0x18b4 <main+0x21e>
    18b8:	9c 83       	std	Y+4, r25	; 0x04
    18ba:	8b 83       	std	Y+3, r24	; 0x03
		while(__ticks)
		{
			// wait 1/10 ms
			_delay_loop_2(((F_CPU) / 4e3) / 10);
			__ticks --;
    18bc:	8d 81       	ldd	r24, Y+5	; 0x05
    18be:	9e 81       	ldd	r25, Y+6	; 0x06
    18c0:	01 97       	sbiw	r24, 0x01	; 1
    18c2:	9e 83       	std	Y+6, r25	; 0x06
    18c4:	8d 83       	std	Y+5, r24	; 0x05
		__ticks = 1;
	else if (__tmp > 65535)
	{
		//	__ticks = requested delay in 1/10 ms
		__ticks = (uint16_t) (__ms * 10.0);
		while(__ticks)
    18c6:	8d 81       	ldd	r24, Y+5	; 0x05
    18c8:	9e 81       	ldd	r25, Y+6	; 0x06
    18ca:	00 97       	sbiw	r24, 0x00	; 0
    18cc:	69 f7       	brne	.-38     	; 0x18a8 <main+0x212>
    18ce:	14 c0       	rjmp	.+40     	; 0x18f8 <main+0x262>
			__ticks --;
		}
		return;
	}
	else
		__ticks = (uint16_t)__tmp;
    18d0:	6f 81       	ldd	r22, Y+7	; 0x07
    18d2:	78 85       	ldd	r23, Y+8	; 0x08
    18d4:	89 85       	ldd	r24, Y+9	; 0x09
    18d6:	9a 85       	ldd	r25, Y+10	; 0x0a
    18d8:	0e 94 41 00 	call	0x82	; 0x82 <__fixunssfsi>
    18dc:	dc 01       	movw	r26, r24
    18de:	cb 01       	movw	r24, r22
    18e0:	9e 83       	std	Y+6, r25	; 0x06
    18e2:	8d 83       	std	Y+5, r24	; 0x05
    18e4:	8d 81       	ldd	r24, Y+5	; 0x05
    18e6:	9e 81       	ldd	r25, Y+6	; 0x06
    18e8:	9a 83       	std	Y+2, r25	; 0x02
    18ea:	89 83       	std	Y+1, r24	; 0x01
    18ec:	89 81       	ldd	r24, Y+1	; 0x01
    18ee:	9a 81       	ldd	r25, Y+2	; 0x02
    18f0:	01 97       	sbiw	r24, 0x01	; 1
    18f2:	f1 f7       	brne	.-4      	; 0x18f0 <main+0x25a>
    18f4:	9a 83       	std	Y+2, r25	; 0x02
    18f6:	89 83       	std	Y+1, r24	; 0x01
				_delay_ms(800);
				MDIO_stderrSetPinValue(MDIO_PORTA,i,MDIO_LOW);
    18f8:	9d 8d       	ldd	r25, Y+29	; 0x1d
    18fa:	81 e0       	ldi	r24, 0x01	; 1
    18fc:	69 2f       	mov	r22, r25
    18fe:	40 e0       	ldi	r20, 0x00	; 0
    1900:	0e 94 06 08 	call	0x100c	; 0x100c <MDIO_stderrSetPinValue>
				MDIO_stderrSetPinValue(MDIO_PORTA,i,MDIO_LOW);
			}
		}
		else if(1==L_u8P0Value){

			for(i=7;i>=0;i--){
    1904:	8d 8d       	ldd	r24, Y+29	; 0x1d
    1906:	81 50       	subi	r24, 0x01	; 1
    1908:	8d 8f       	std	Y+29, r24	; 0x1d
    190a:	8d 8d       	ldd	r24, Y+29	; 0x1d
    190c:	88 23       	and	r24, r24
    190e:	0c f0       	brlt	.+2      	; 0x1912 <main+0x27c>
    1910:	7b cf       	rjmp	.-266    	; 0x1808 <main+0x172>
    1912:	e1 ce       	rjmp	.-574    	; 0x16d6 <main+0x40>

00001914 <__prologue_saves__>:
    1914:	2f 92       	push	r2
    1916:	3f 92       	push	r3
    1918:	4f 92       	push	r4
    191a:	5f 92       	push	r5
    191c:	6f 92       	push	r6
    191e:	7f 92       	push	r7
    1920:	8f 92       	push	r8
    1922:	9f 92       	push	r9
    1924:	af 92       	push	r10
    1926:	bf 92       	push	r11
    1928:	cf 92       	push	r12
    192a:	df 92       	push	r13
    192c:	ef 92       	push	r14
    192e:	ff 92       	push	r15
    1930:	0f 93       	push	r16
    1932:	1f 93       	push	r17
    1934:	cf 93       	push	r28
    1936:	df 93       	push	r29
    1938:	cd b7       	in	r28, 0x3d	; 61
    193a:	de b7       	in	r29, 0x3e	; 62
    193c:	ca 1b       	sub	r28, r26
    193e:	db 0b       	sbc	r29, r27
    1940:	0f b6       	in	r0, 0x3f	; 63
    1942:	f8 94       	cli
    1944:	de bf       	out	0x3e, r29	; 62
    1946:	0f be       	out	0x3f, r0	; 63
    1948:	cd bf       	out	0x3d, r28	; 61
    194a:	09 94       	ijmp

0000194c <__epilogue_restores__>:
    194c:	2a 88       	ldd	r2, Y+18	; 0x12
    194e:	39 88       	ldd	r3, Y+17	; 0x11
    1950:	48 88       	ldd	r4, Y+16	; 0x10
    1952:	5f 84       	ldd	r5, Y+15	; 0x0f
    1954:	6e 84       	ldd	r6, Y+14	; 0x0e
    1956:	7d 84       	ldd	r7, Y+13	; 0x0d
    1958:	8c 84       	ldd	r8, Y+12	; 0x0c
    195a:	9b 84       	ldd	r9, Y+11	; 0x0b
    195c:	aa 84       	ldd	r10, Y+10	; 0x0a
    195e:	b9 84       	ldd	r11, Y+9	; 0x09
    1960:	c8 84       	ldd	r12, Y+8	; 0x08
    1962:	df 80       	ldd	r13, Y+7	; 0x07
    1964:	ee 80       	ldd	r14, Y+6	; 0x06
    1966:	fd 80       	ldd	r15, Y+5	; 0x05
    1968:	0c 81       	ldd	r16, Y+4	; 0x04
    196a:	1b 81       	ldd	r17, Y+3	; 0x03
    196c:	aa 81       	ldd	r26, Y+2	; 0x02
    196e:	b9 81       	ldd	r27, Y+1	; 0x01
    1970:	ce 0f       	add	r28, r30
    1972:	d1 1d       	adc	r29, r1
    1974:	0f b6       	in	r0, 0x3f	; 63
    1976:	f8 94       	cli
    1978:	de bf       	out	0x3e, r29	; 62
    197a:	0f be       	out	0x3f, r0	; 63
    197c:	cd bf       	out	0x3d, r28	; 61
    197e:	ed 01       	movw	r28, r26
    1980:	08 95       	ret

00001982 <_exit>:
    1982:	f8 94       	cli

00001984 <__stop_program>:
    1984:	ff cf       	rjmp	.-2      	; 0x1984 <__stop_program>
