
SPI_Driver_Master.elf:     file format elf32-avr

Sections:
Idx Name          Size      VMA       LMA       File off  Algn
  0 .text         00001a4c  00000000  00000000  00000094  2**1
                  CONTENTS, ALLOC, LOAD, READONLY, CODE
  1 .data         00000008  00800060  00001a4c  00001ae0  2**0
                  CONTENTS, ALLOC, LOAD, DATA
  2 .bss          00000002  00800068  00800068  00001ae8  2**0
                  ALLOC
  3 .stab         000011e8  00000000  00000000  00001ae8  2**2
                  CONTENTS, READONLY, DEBUGGING
  4 .stabstr      00000b0e  00000000  00000000  00002cd0  2**0
                  CONTENTS, READONLY, DEBUGGING
  5 .debug_aranges 00000140  00000000  00000000  000037de  2**0
                  CONTENTS, READONLY, DEBUGGING
  6 .debug_pubnames 00000170  00000000  00000000  0000391e  2**0
                  CONTENTS, READONLY, DEBUGGING
  7 .debug_info   00001c49  00000000  00000000  00003a8e  2**0
                  CONTENTS, READONLY, DEBUGGING
  8 .debug_abbrev 00000eeb  00000000  00000000  000056d7  2**0
                  CONTENTS, READONLY, DEBUGGING
  9 .debug_line   00000dad  00000000  00000000  000065c2  2**0
                  CONTENTS, READONLY, DEBUGGING
 10 .debug_frame  00000160  00000000  00000000  00007370  2**2
                  CONTENTS, READONLY, DEBUGGING
 11 .debug_str    0000028d  00000000  00000000  000074d0  2**0
                  CONTENTS, READONLY, DEBUGGING
 12 .debug_loc    000007ce  00000000  00000000  0000775d  2**0
                  CONTENTS, READONLY, DEBUGGING
 13 .debug_ranges 00000050  00000000  00000000  00007f2b  2**0
                  CONTENTS, READONLY, DEBUGGING

Disassembly of section .text:

00000000 <__vectors>:
       0:	0c 94 2a 00 	jmp	0x54	; 0x54 <__ctors_end>
       4:	0c 94 47 00 	jmp	0x8e	; 0x8e <__bad_interrupt>
       8:	0c 94 47 00 	jmp	0x8e	; 0x8e <__bad_interrupt>
       c:	0c 94 47 00 	jmp	0x8e	; 0x8e <__bad_interrupt>
      10:	0c 94 47 00 	jmp	0x8e	; 0x8e <__bad_interrupt>
      14:	0c 94 47 00 	jmp	0x8e	; 0x8e <__bad_interrupt>
      18:	0c 94 47 00 	jmp	0x8e	; 0x8e <__bad_interrupt>
      1c:	0c 94 47 00 	jmp	0x8e	; 0x8e <__bad_interrupt>
      20:	0c 94 47 00 	jmp	0x8e	; 0x8e <__bad_interrupt>
      24:	0c 94 47 00 	jmp	0x8e	; 0x8e <__bad_interrupt>
      28:	0c 94 47 00 	jmp	0x8e	; 0x8e <__bad_interrupt>
      2c:	0c 94 47 00 	jmp	0x8e	; 0x8e <__bad_interrupt>
      30:	0c 94 47 00 	jmp	0x8e	; 0x8e <__bad_interrupt>
      34:	0c 94 47 00 	jmp	0x8e	; 0x8e <__bad_interrupt>
      38:	0c 94 47 00 	jmp	0x8e	; 0x8e <__bad_interrupt>
      3c:	0c 94 47 00 	jmp	0x8e	; 0x8e <__bad_interrupt>
      40:	0c 94 47 00 	jmp	0x8e	; 0x8e <__bad_interrupt>
      44:	0c 94 47 00 	jmp	0x8e	; 0x8e <__bad_interrupt>
      48:	0c 94 47 00 	jmp	0x8e	; 0x8e <__bad_interrupt>
      4c:	0c 94 47 00 	jmp	0x8e	; 0x8e <__bad_interrupt>
      50:	0c 94 47 00 	jmp	0x8e	; 0x8e <__bad_interrupt>

00000054 <__ctors_end>:
      54:	11 24       	eor	r1, r1
      56:	1f be       	out	0x3f, r1	; 63
      58:	cf e5       	ldi	r28, 0x5F	; 95
      5a:	d8 e0       	ldi	r29, 0x08	; 8
      5c:	de bf       	out	0x3e, r29	; 62
      5e:	cd bf       	out	0x3d, r28	; 61

00000060 <__do_clear_bss>:
      60:	10 e0       	ldi	r17, 0x00	; 0
      62:	a8 e6       	ldi	r26, 0x68	; 104
      64:	b0 e0       	ldi	r27, 0x00	; 0
      66:	01 c0       	rjmp	.+2      	; 0x6a <.do_clear_bss_start>

00000068 <.do_clear_bss_loop>:
      68:	1d 92       	st	X+, r1

0000006a <.do_clear_bss_start>:
      6a:	aa 36       	cpi	r26, 0x6A	; 106
      6c:	b1 07       	cpc	r27, r17
      6e:	e1 f7       	brne	.-8      	; 0x68 <.do_clear_bss_loop>

00000070 <__do_copy_data>:
      70:	10 e0       	ldi	r17, 0x00	; 0
      72:	a0 e6       	ldi	r26, 0x60	; 96
      74:	b0 e0       	ldi	r27, 0x00	; 0
      76:	ec e4       	ldi	r30, 0x4C	; 76
      78:	fa e1       	ldi	r31, 0x1A	; 26
      7a:	02 c0       	rjmp	.+4      	; 0x80 <.do_copy_data_start>

0000007c <.do_copy_data_loop>:
      7c:	05 90       	lpm	r0, Z+
      7e:	0d 92       	st	X+, r0

00000080 <.do_copy_data_start>:
      80:	a8 36       	cpi	r26, 0x68	; 104
      82:	b1 07       	cpc	r27, r17
      84:	d9 f7       	brne	.-10     	; 0x7c <.do_copy_data_loop>
      86:	0e 94 99 0b 	call	0x1732	; 0x1732 <main>
      8a:	0c 94 24 0d 	jmp	0x1a48	; 0x1a48 <_exit>

0000008e <__bad_interrupt>:
      8e:	0c 94 00 00 	jmp	0	; 0x0 <__vectors>

00000092 <__fixunssfsi>:
      92:	ef 92       	push	r14
      94:	ff 92       	push	r15
      96:	0f 93       	push	r16
      98:	1f 93       	push	r17
      9a:	7b 01       	movw	r14, r22
      9c:	8c 01       	movw	r16, r24
      9e:	20 e0       	ldi	r18, 0x00	; 0
      a0:	30 e0       	ldi	r19, 0x00	; 0
      a2:	40 e0       	ldi	r20, 0x00	; 0
      a4:	5f e4       	ldi	r21, 0x4F	; 79
      a6:	0e 94 49 03 	call	0x692	; 0x692 <__gesf2>
      aa:	88 23       	and	r24, r24
      ac:	8c f0       	brlt	.+34     	; 0xd0 <__fixunssfsi+0x3e>
      ae:	c8 01       	movw	r24, r16
      b0:	b7 01       	movw	r22, r14
      b2:	20 e0       	ldi	r18, 0x00	; 0
      b4:	30 e0       	ldi	r19, 0x00	; 0
      b6:	40 e0       	ldi	r20, 0x00	; 0
      b8:	5f e4       	ldi	r21, 0x4F	; 79
      ba:	0e 94 c1 01 	call	0x382	; 0x382 <__subsf3>
      be:	0e 94 a9 03 	call	0x752	; 0x752 <__fixsfsi>
      c2:	9b 01       	movw	r18, r22
      c4:	ac 01       	movw	r20, r24
      c6:	20 50       	subi	r18, 0x00	; 0
      c8:	30 40       	sbci	r19, 0x00	; 0
      ca:	40 40       	sbci	r20, 0x00	; 0
      cc:	50 48       	sbci	r21, 0x80	; 128
      ce:	06 c0       	rjmp	.+12     	; 0xdc <__fixunssfsi+0x4a>
      d0:	c8 01       	movw	r24, r16
      d2:	b7 01       	movw	r22, r14
      d4:	0e 94 a9 03 	call	0x752	; 0x752 <__fixsfsi>
      d8:	9b 01       	movw	r18, r22
      da:	ac 01       	movw	r20, r24
      dc:	b9 01       	movw	r22, r18
      de:	ca 01       	movw	r24, r20
      e0:	1f 91       	pop	r17
      e2:	0f 91       	pop	r16
      e4:	ff 90       	pop	r15
      e6:	ef 90       	pop	r14
      e8:	08 95       	ret

000000ea <_fpadd_parts>:
      ea:	a0 e0       	ldi	r26, 0x00	; 0
      ec:	b0 e0       	ldi	r27, 0x00	; 0
      ee:	eb e7       	ldi	r30, 0x7B	; 123
      f0:	f0 e0       	ldi	r31, 0x00	; 0
      f2:	0c 94 ed 0c 	jmp	0x19da	; 0x19da <__prologue_saves__>
      f6:	dc 01       	movw	r26, r24
      f8:	2b 01       	movw	r4, r22
      fa:	fa 01       	movw	r30, r20
      fc:	9c 91       	ld	r25, X
      fe:	92 30       	cpi	r25, 0x02	; 2
     100:	08 f4       	brcc	.+2      	; 0x104 <_fpadd_parts+0x1a>
     102:	39 c1       	rjmp	.+626    	; 0x376 <_fpadd_parts+0x28c>
     104:	eb 01       	movw	r28, r22
     106:	88 81       	ld	r24, Y
     108:	82 30       	cpi	r24, 0x02	; 2
     10a:	08 f4       	brcc	.+2      	; 0x10e <_fpadd_parts+0x24>
     10c:	33 c1       	rjmp	.+614    	; 0x374 <_fpadd_parts+0x28a>
     10e:	94 30       	cpi	r25, 0x04	; 4
     110:	69 f4       	brne	.+26     	; 0x12c <_fpadd_parts+0x42>
     112:	84 30       	cpi	r24, 0x04	; 4
     114:	09 f0       	breq	.+2      	; 0x118 <_fpadd_parts+0x2e>
     116:	2f c1       	rjmp	.+606    	; 0x376 <_fpadd_parts+0x28c>
     118:	11 96       	adiw	r26, 0x01	; 1
     11a:	9c 91       	ld	r25, X
     11c:	11 97       	sbiw	r26, 0x01	; 1
     11e:	89 81       	ldd	r24, Y+1	; 0x01
     120:	98 17       	cp	r25, r24
     122:	09 f4       	brne	.+2      	; 0x126 <_fpadd_parts+0x3c>
     124:	28 c1       	rjmp	.+592    	; 0x376 <_fpadd_parts+0x28c>
     126:	a0 e6       	ldi	r26, 0x60	; 96
     128:	b0 e0       	ldi	r27, 0x00	; 0
     12a:	25 c1       	rjmp	.+586    	; 0x376 <_fpadd_parts+0x28c>
     12c:	84 30       	cpi	r24, 0x04	; 4
     12e:	09 f4       	brne	.+2      	; 0x132 <_fpadd_parts+0x48>
     130:	21 c1       	rjmp	.+578    	; 0x374 <_fpadd_parts+0x28a>
     132:	82 30       	cpi	r24, 0x02	; 2
     134:	a9 f4       	brne	.+42     	; 0x160 <_fpadd_parts+0x76>
     136:	92 30       	cpi	r25, 0x02	; 2
     138:	09 f0       	breq	.+2      	; 0x13c <_fpadd_parts+0x52>
     13a:	1d c1       	rjmp	.+570    	; 0x376 <_fpadd_parts+0x28c>
     13c:	9a 01       	movw	r18, r20
     13e:	ad 01       	movw	r20, r26
     140:	88 e0       	ldi	r24, 0x08	; 8
     142:	ea 01       	movw	r28, r20
     144:	09 90       	ld	r0, Y+
     146:	ae 01       	movw	r20, r28
     148:	e9 01       	movw	r28, r18
     14a:	09 92       	st	Y+, r0
     14c:	9e 01       	movw	r18, r28
     14e:	81 50       	subi	r24, 0x01	; 1
     150:	c1 f7       	brne	.-16     	; 0x142 <_fpadd_parts+0x58>
     152:	e2 01       	movw	r28, r4
     154:	89 81       	ldd	r24, Y+1	; 0x01
     156:	11 96       	adiw	r26, 0x01	; 1
     158:	9c 91       	ld	r25, X
     15a:	89 23       	and	r24, r25
     15c:	81 83       	std	Z+1, r24	; 0x01
     15e:	08 c1       	rjmp	.+528    	; 0x370 <_fpadd_parts+0x286>
     160:	92 30       	cpi	r25, 0x02	; 2
     162:	09 f4       	brne	.+2      	; 0x166 <_fpadd_parts+0x7c>
     164:	07 c1       	rjmp	.+526    	; 0x374 <_fpadd_parts+0x28a>
     166:	12 96       	adiw	r26, 0x02	; 2
     168:	2d 90       	ld	r2, X+
     16a:	3c 90       	ld	r3, X
     16c:	13 97       	sbiw	r26, 0x03	; 3
     16e:	eb 01       	movw	r28, r22
     170:	8a 81       	ldd	r24, Y+2	; 0x02
     172:	9b 81       	ldd	r25, Y+3	; 0x03
     174:	14 96       	adiw	r26, 0x04	; 4
     176:	ad 90       	ld	r10, X+
     178:	bd 90       	ld	r11, X+
     17a:	cd 90       	ld	r12, X+
     17c:	dc 90       	ld	r13, X
     17e:	17 97       	sbiw	r26, 0x07	; 7
     180:	ec 80       	ldd	r14, Y+4	; 0x04
     182:	fd 80       	ldd	r15, Y+5	; 0x05
     184:	0e 81       	ldd	r16, Y+6	; 0x06
     186:	1f 81       	ldd	r17, Y+7	; 0x07
     188:	91 01       	movw	r18, r2
     18a:	28 1b       	sub	r18, r24
     18c:	39 0b       	sbc	r19, r25
     18e:	b9 01       	movw	r22, r18
     190:	37 ff       	sbrs	r19, 7
     192:	04 c0       	rjmp	.+8      	; 0x19c <_fpadd_parts+0xb2>
     194:	66 27       	eor	r22, r22
     196:	77 27       	eor	r23, r23
     198:	62 1b       	sub	r22, r18
     19a:	73 0b       	sbc	r23, r19
     19c:	60 32       	cpi	r22, 0x20	; 32
     19e:	71 05       	cpc	r23, r1
     1a0:	0c f0       	brlt	.+2      	; 0x1a4 <_fpadd_parts+0xba>
     1a2:	61 c0       	rjmp	.+194    	; 0x266 <_fpadd_parts+0x17c>
     1a4:	12 16       	cp	r1, r18
     1a6:	13 06       	cpc	r1, r19
     1a8:	6c f5       	brge	.+90     	; 0x204 <_fpadd_parts+0x11a>
     1aa:	37 01       	movw	r6, r14
     1ac:	48 01       	movw	r8, r16
     1ae:	06 2e       	mov	r0, r22
     1b0:	04 c0       	rjmp	.+8      	; 0x1ba <_fpadd_parts+0xd0>
     1b2:	96 94       	lsr	r9
     1b4:	87 94       	ror	r8
     1b6:	77 94       	ror	r7
     1b8:	67 94       	ror	r6
     1ba:	0a 94       	dec	r0
     1bc:	d2 f7       	brpl	.-12     	; 0x1b2 <_fpadd_parts+0xc8>
     1be:	21 e0       	ldi	r18, 0x01	; 1
     1c0:	30 e0       	ldi	r19, 0x00	; 0
     1c2:	40 e0       	ldi	r20, 0x00	; 0
     1c4:	50 e0       	ldi	r21, 0x00	; 0
     1c6:	04 c0       	rjmp	.+8      	; 0x1d0 <_fpadd_parts+0xe6>
     1c8:	22 0f       	add	r18, r18
     1ca:	33 1f       	adc	r19, r19
     1cc:	44 1f       	adc	r20, r20
     1ce:	55 1f       	adc	r21, r21
     1d0:	6a 95       	dec	r22
     1d2:	d2 f7       	brpl	.-12     	; 0x1c8 <_fpadd_parts+0xde>
     1d4:	21 50       	subi	r18, 0x01	; 1
     1d6:	30 40       	sbci	r19, 0x00	; 0
     1d8:	40 40       	sbci	r20, 0x00	; 0
     1da:	50 40       	sbci	r21, 0x00	; 0
     1dc:	2e 21       	and	r18, r14
     1de:	3f 21       	and	r19, r15
     1e0:	40 23       	and	r20, r16
     1e2:	51 23       	and	r21, r17
     1e4:	21 15       	cp	r18, r1
     1e6:	31 05       	cpc	r19, r1
     1e8:	41 05       	cpc	r20, r1
     1ea:	51 05       	cpc	r21, r1
     1ec:	21 f0       	breq	.+8      	; 0x1f6 <_fpadd_parts+0x10c>
     1ee:	21 e0       	ldi	r18, 0x01	; 1
     1f0:	30 e0       	ldi	r19, 0x00	; 0
     1f2:	40 e0       	ldi	r20, 0x00	; 0
     1f4:	50 e0       	ldi	r21, 0x00	; 0
     1f6:	79 01       	movw	r14, r18
     1f8:	8a 01       	movw	r16, r20
     1fa:	e6 28       	or	r14, r6
     1fc:	f7 28       	or	r15, r7
     1fe:	08 29       	or	r16, r8
     200:	19 29       	or	r17, r9
     202:	3c c0       	rjmp	.+120    	; 0x27c <_fpadd_parts+0x192>
     204:	23 2b       	or	r18, r19
     206:	d1 f1       	breq	.+116    	; 0x27c <_fpadd_parts+0x192>
     208:	26 0e       	add	r2, r22
     20a:	37 1e       	adc	r3, r23
     20c:	35 01       	movw	r6, r10
     20e:	46 01       	movw	r8, r12
     210:	06 2e       	mov	r0, r22
     212:	04 c0       	rjmp	.+8      	; 0x21c <_fpadd_parts+0x132>
     214:	96 94       	lsr	r9
     216:	87 94       	ror	r8
     218:	77 94       	ror	r7
     21a:	67 94       	ror	r6
     21c:	0a 94       	dec	r0
     21e:	d2 f7       	brpl	.-12     	; 0x214 <_fpadd_parts+0x12a>
     220:	21 e0       	ldi	r18, 0x01	; 1
     222:	30 e0       	ldi	r19, 0x00	; 0
     224:	40 e0       	ldi	r20, 0x00	; 0
     226:	50 e0       	ldi	r21, 0x00	; 0
     228:	04 c0       	rjmp	.+8      	; 0x232 <_fpadd_parts+0x148>
     22a:	22 0f       	add	r18, r18
     22c:	33 1f       	adc	r19, r19
     22e:	44 1f       	adc	r20, r20
     230:	55 1f       	adc	r21, r21
     232:	6a 95       	dec	r22
     234:	d2 f7       	brpl	.-12     	; 0x22a <_fpadd_parts+0x140>
     236:	21 50       	subi	r18, 0x01	; 1
     238:	30 40       	sbci	r19, 0x00	; 0
     23a:	40 40       	sbci	r20, 0x00	; 0
     23c:	50 40       	sbci	r21, 0x00	; 0
     23e:	2a 21       	and	r18, r10
     240:	3b 21       	and	r19, r11
     242:	4c 21       	and	r20, r12
     244:	5d 21       	and	r21, r13
     246:	21 15       	cp	r18, r1
     248:	31 05       	cpc	r19, r1
     24a:	41 05       	cpc	r20, r1
     24c:	51 05       	cpc	r21, r1
     24e:	21 f0       	breq	.+8      	; 0x258 <_fpadd_parts+0x16e>
     250:	21 e0       	ldi	r18, 0x01	; 1
     252:	30 e0       	ldi	r19, 0x00	; 0
     254:	40 e0       	ldi	r20, 0x00	; 0
     256:	50 e0       	ldi	r21, 0x00	; 0
     258:	59 01       	movw	r10, r18
     25a:	6a 01       	movw	r12, r20
     25c:	a6 28       	or	r10, r6
     25e:	b7 28       	or	r11, r7
     260:	c8 28       	or	r12, r8
     262:	d9 28       	or	r13, r9
     264:	0b c0       	rjmp	.+22     	; 0x27c <_fpadd_parts+0x192>
     266:	82 15       	cp	r24, r2
     268:	93 05       	cpc	r25, r3
     26a:	2c f0       	brlt	.+10     	; 0x276 <_fpadd_parts+0x18c>
     26c:	1c 01       	movw	r2, r24
     26e:	aa 24       	eor	r10, r10
     270:	bb 24       	eor	r11, r11
     272:	65 01       	movw	r12, r10
     274:	03 c0       	rjmp	.+6      	; 0x27c <_fpadd_parts+0x192>
     276:	ee 24       	eor	r14, r14
     278:	ff 24       	eor	r15, r15
     27a:	87 01       	movw	r16, r14
     27c:	11 96       	adiw	r26, 0x01	; 1
     27e:	9c 91       	ld	r25, X
     280:	d2 01       	movw	r26, r4
     282:	11 96       	adiw	r26, 0x01	; 1
     284:	8c 91       	ld	r24, X
     286:	98 17       	cp	r25, r24
     288:	09 f4       	brne	.+2      	; 0x28c <_fpadd_parts+0x1a2>
     28a:	45 c0       	rjmp	.+138    	; 0x316 <_fpadd_parts+0x22c>
     28c:	99 23       	and	r25, r25
     28e:	39 f0       	breq	.+14     	; 0x29e <_fpadd_parts+0x1b4>
     290:	a8 01       	movw	r20, r16
     292:	97 01       	movw	r18, r14
     294:	2a 19       	sub	r18, r10
     296:	3b 09       	sbc	r19, r11
     298:	4c 09       	sbc	r20, r12
     29a:	5d 09       	sbc	r21, r13
     29c:	06 c0       	rjmp	.+12     	; 0x2aa <_fpadd_parts+0x1c0>
     29e:	a6 01       	movw	r20, r12
     2a0:	95 01       	movw	r18, r10
     2a2:	2e 19       	sub	r18, r14
     2a4:	3f 09       	sbc	r19, r15
     2a6:	40 0b       	sbc	r20, r16
     2a8:	51 0b       	sbc	r21, r17
     2aa:	57 fd       	sbrc	r21, 7
     2ac:	08 c0       	rjmp	.+16     	; 0x2be <_fpadd_parts+0x1d4>
     2ae:	11 82       	std	Z+1, r1	; 0x01
     2b0:	33 82       	std	Z+3, r3	; 0x03
     2b2:	22 82       	std	Z+2, r2	; 0x02
     2b4:	24 83       	std	Z+4, r18	; 0x04
     2b6:	35 83       	std	Z+5, r19	; 0x05
     2b8:	46 83       	std	Z+6, r20	; 0x06
     2ba:	57 83       	std	Z+7, r21	; 0x07
     2bc:	1d c0       	rjmp	.+58     	; 0x2f8 <_fpadd_parts+0x20e>
     2be:	81 e0       	ldi	r24, 0x01	; 1
     2c0:	81 83       	std	Z+1, r24	; 0x01
     2c2:	33 82       	std	Z+3, r3	; 0x03
     2c4:	22 82       	std	Z+2, r2	; 0x02
     2c6:	88 27       	eor	r24, r24
     2c8:	99 27       	eor	r25, r25
     2ca:	dc 01       	movw	r26, r24
     2cc:	82 1b       	sub	r24, r18
     2ce:	93 0b       	sbc	r25, r19
     2d0:	a4 0b       	sbc	r26, r20
     2d2:	b5 0b       	sbc	r27, r21
     2d4:	84 83       	std	Z+4, r24	; 0x04
     2d6:	95 83       	std	Z+5, r25	; 0x05
     2d8:	a6 83       	std	Z+6, r26	; 0x06
     2da:	b7 83       	std	Z+7, r27	; 0x07
     2dc:	0d c0       	rjmp	.+26     	; 0x2f8 <_fpadd_parts+0x20e>
     2de:	22 0f       	add	r18, r18
     2e0:	33 1f       	adc	r19, r19
     2e2:	44 1f       	adc	r20, r20
     2e4:	55 1f       	adc	r21, r21
     2e6:	24 83       	std	Z+4, r18	; 0x04
     2e8:	35 83       	std	Z+5, r19	; 0x05
     2ea:	46 83       	std	Z+6, r20	; 0x06
     2ec:	57 83       	std	Z+7, r21	; 0x07
     2ee:	82 81       	ldd	r24, Z+2	; 0x02
     2f0:	93 81       	ldd	r25, Z+3	; 0x03
     2f2:	01 97       	sbiw	r24, 0x01	; 1
     2f4:	93 83       	std	Z+3, r25	; 0x03
     2f6:	82 83       	std	Z+2, r24	; 0x02
     2f8:	24 81       	ldd	r18, Z+4	; 0x04
     2fa:	35 81       	ldd	r19, Z+5	; 0x05
     2fc:	46 81       	ldd	r20, Z+6	; 0x06
     2fe:	57 81       	ldd	r21, Z+7	; 0x07
     300:	da 01       	movw	r26, r20
     302:	c9 01       	movw	r24, r18
     304:	01 97       	sbiw	r24, 0x01	; 1
     306:	a1 09       	sbc	r26, r1
     308:	b1 09       	sbc	r27, r1
     30a:	8f 5f       	subi	r24, 0xFF	; 255
     30c:	9f 4f       	sbci	r25, 0xFF	; 255
     30e:	af 4f       	sbci	r26, 0xFF	; 255
     310:	bf 43       	sbci	r27, 0x3F	; 63
     312:	28 f3       	brcs	.-54     	; 0x2de <_fpadd_parts+0x1f4>
     314:	0b c0       	rjmp	.+22     	; 0x32c <_fpadd_parts+0x242>
     316:	91 83       	std	Z+1, r25	; 0x01
     318:	33 82       	std	Z+3, r3	; 0x03
     31a:	22 82       	std	Z+2, r2	; 0x02
     31c:	ea 0c       	add	r14, r10
     31e:	fb 1c       	adc	r15, r11
     320:	0c 1d       	adc	r16, r12
     322:	1d 1d       	adc	r17, r13
     324:	e4 82       	std	Z+4, r14	; 0x04
     326:	f5 82       	std	Z+5, r15	; 0x05
     328:	06 83       	std	Z+6, r16	; 0x06
     32a:	17 83       	std	Z+7, r17	; 0x07
     32c:	83 e0       	ldi	r24, 0x03	; 3
     32e:	80 83       	st	Z, r24
     330:	24 81       	ldd	r18, Z+4	; 0x04
     332:	35 81       	ldd	r19, Z+5	; 0x05
     334:	46 81       	ldd	r20, Z+6	; 0x06
     336:	57 81       	ldd	r21, Z+7	; 0x07
     338:	57 ff       	sbrs	r21, 7
     33a:	1a c0       	rjmp	.+52     	; 0x370 <_fpadd_parts+0x286>
     33c:	c9 01       	movw	r24, r18
     33e:	aa 27       	eor	r26, r26
     340:	97 fd       	sbrc	r25, 7
     342:	a0 95       	com	r26
     344:	ba 2f       	mov	r27, r26
     346:	81 70       	andi	r24, 0x01	; 1
     348:	90 70       	andi	r25, 0x00	; 0
     34a:	a0 70       	andi	r26, 0x00	; 0
     34c:	b0 70       	andi	r27, 0x00	; 0
     34e:	56 95       	lsr	r21
     350:	47 95       	ror	r20
     352:	37 95       	ror	r19
     354:	27 95       	ror	r18
     356:	82 2b       	or	r24, r18
     358:	93 2b       	or	r25, r19
     35a:	a4 2b       	or	r26, r20
     35c:	b5 2b       	or	r27, r21
     35e:	84 83       	std	Z+4, r24	; 0x04
     360:	95 83       	std	Z+5, r25	; 0x05
     362:	a6 83       	std	Z+6, r26	; 0x06
     364:	b7 83       	std	Z+7, r27	; 0x07
     366:	82 81       	ldd	r24, Z+2	; 0x02
     368:	93 81       	ldd	r25, Z+3	; 0x03
     36a:	01 96       	adiw	r24, 0x01	; 1
     36c:	93 83       	std	Z+3, r25	; 0x03
     36e:	82 83       	std	Z+2, r24	; 0x02
     370:	df 01       	movw	r26, r30
     372:	01 c0       	rjmp	.+2      	; 0x376 <_fpadd_parts+0x28c>
     374:	d2 01       	movw	r26, r4
     376:	cd 01       	movw	r24, r26
     378:	cd b7       	in	r28, 0x3d	; 61
     37a:	de b7       	in	r29, 0x3e	; 62
     37c:	e2 e1       	ldi	r30, 0x12	; 18
     37e:	0c 94 09 0d 	jmp	0x1a12	; 0x1a12 <__epilogue_restores__>

00000382 <__subsf3>:
     382:	a0 e2       	ldi	r26, 0x20	; 32
     384:	b0 e0       	ldi	r27, 0x00	; 0
     386:	e7 ec       	ldi	r30, 0xC7	; 199
     388:	f1 e0       	ldi	r31, 0x01	; 1
     38a:	0c 94 f9 0c 	jmp	0x19f2	; 0x19f2 <__prologue_saves__+0x18>
     38e:	69 83       	std	Y+1, r22	; 0x01
     390:	7a 83       	std	Y+2, r23	; 0x02
     392:	8b 83       	std	Y+3, r24	; 0x03
     394:	9c 83       	std	Y+4, r25	; 0x04
     396:	2d 83       	std	Y+5, r18	; 0x05
     398:	3e 83       	std	Y+6, r19	; 0x06
     39a:	4f 83       	std	Y+7, r20	; 0x07
     39c:	58 87       	std	Y+8, r21	; 0x08
     39e:	e9 e0       	ldi	r30, 0x09	; 9
     3a0:	ee 2e       	mov	r14, r30
     3a2:	f1 2c       	mov	r15, r1
     3a4:	ec 0e       	add	r14, r28
     3a6:	fd 1e       	adc	r15, r29
     3a8:	ce 01       	movw	r24, r28
     3aa:	01 96       	adiw	r24, 0x01	; 1
     3ac:	b7 01       	movw	r22, r14
     3ae:	0e 94 d2 04 	call	0x9a4	; 0x9a4 <__unpack_f>
     3b2:	8e 01       	movw	r16, r28
     3b4:	0f 5e       	subi	r16, 0xEF	; 239
     3b6:	1f 4f       	sbci	r17, 0xFF	; 255
     3b8:	ce 01       	movw	r24, r28
     3ba:	05 96       	adiw	r24, 0x05	; 5
     3bc:	b8 01       	movw	r22, r16
     3be:	0e 94 d2 04 	call	0x9a4	; 0x9a4 <__unpack_f>
     3c2:	8a 89       	ldd	r24, Y+18	; 0x12
     3c4:	91 e0       	ldi	r25, 0x01	; 1
     3c6:	89 27       	eor	r24, r25
     3c8:	8a 8b       	std	Y+18, r24	; 0x12
     3ca:	c7 01       	movw	r24, r14
     3cc:	b8 01       	movw	r22, r16
     3ce:	ae 01       	movw	r20, r28
     3d0:	47 5e       	subi	r20, 0xE7	; 231
     3d2:	5f 4f       	sbci	r21, 0xFF	; 255
     3d4:	0e 94 75 00 	call	0xea	; 0xea <_fpadd_parts>
     3d8:	0e 94 fd 03 	call	0x7fa	; 0x7fa <__pack_f>
     3dc:	a0 96       	adiw	r28, 0x20	; 32
     3de:	e6 e0       	ldi	r30, 0x06	; 6
     3e0:	0c 94 15 0d 	jmp	0x1a2a	; 0x1a2a <__epilogue_restores__+0x18>

000003e4 <__addsf3>:
     3e4:	a0 e2       	ldi	r26, 0x20	; 32
     3e6:	b0 e0       	ldi	r27, 0x00	; 0
     3e8:	e8 ef       	ldi	r30, 0xF8	; 248
     3ea:	f1 e0       	ldi	r31, 0x01	; 1
     3ec:	0c 94 f9 0c 	jmp	0x19f2	; 0x19f2 <__prologue_saves__+0x18>
     3f0:	69 83       	std	Y+1, r22	; 0x01
     3f2:	7a 83       	std	Y+2, r23	; 0x02
     3f4:	8b 83       	std	Y+3, r24	; 0x03
     3f6:	9c 83       	std	Y+4, r25	; 0x04
     3f8:	2d 83       	std	Y+5, r18	; 0x05
     3fa:	3e 83       	std	Y+6, r19	; 0x06
     3fc:	4f 83       	std	Y+7, r20	; 0x07
     3fe:	58 87       	std	Y+8, r21	; 0x08
     400:	f9 e0       	ldi	r31, 0x09	; 9
     402:	ef 2e       	mov	r14, r31
     404:	f1 2c       	mov	r15, r1
     406:	ec 0e       	add	r14, r28
     408:	fd 1e       	adc	r15, r29
     40a:	ce 01       	movw	r24, r28
     40c:	01 96       	adiw	r24, 0x01	; 1
     40e:	b7 01       	movw	r22, r14
     410:	0e 94 d2 04 	call	0x9a4	; 0x9a4 <__unpack_f>
     414:	8e 01       	movw	r16, r28
     416:	0f 5e       	subi	r16, 0xEF	; 239
     418:	1f 4f       	sbci	r17, 0xFF	; 255
     41a:	ce 01       	movw	r24, r28
     41c:	05 96       	adiw	r24, 0x05	; 5
     41e:	b8 01       	movw	r22, r16
     420:	0e 94 d2 04 	call	0x9a4	; 0x9a4 <__unpack_f>
     424:	c7 01       	movw	r24, r14
     426:	b8 01       	movw	r22, r16
     428:	ae 01       	movw	r20, r28
     42a:	47 5e       	subi	r20, 0xE7	; 231
     42c:	5f 4f       	sbci	r21, 0xFF	; 255
     42e:	0e 94 75 00 	call	0xea	; 0xea <_fpadd_parts>
     432:	0e 94 fd 03 	call	0x7fa	; 0x7fa <__pack_f>
     436:	a0 96       	adiw	r28, 0x20	; 32
     438:	e6 e0       	ldi	r30, 0x06	; 6
     43a:	0c 94 15 0d 	jmp	0x1a2a	; 0x1a2a <__epilogue_restores__+0x18>

0000043e <__mulsf3>:
     43e:	a0 e2       	ldi	r26, 0x20	; 32
     440:	b0 e0       	ldi	r27, 0x00	; 0
     442:	e5 e2       	ldi	r30, 0x25	; 37
     444:	f2 e0       	ldi	r31, 0x02	; 2
     446:	0c 94 ed 0c 	jmp	0x19da	; 0x19da <__prologue_saves__>
     44a:	69 83       	std	Y+1, r22	; 0x01
     44c:	7a 83       	std	Y+2, r23	; 0x02
     44e:	8b 83       	std	Y+3, r24	; 0x03
     450:	9c 83       	std	Y+4, r25	; 0x04
     452:	2d 83       	std	Y+5, r18	; 0x05
     454:	3e 83       	std	Y+6, r19	; 0x06
     456:	4f 83       	std	Y+7, r20	; 0x07
     458:	58 87       	std	Y+8, r21	; 0x08
     45a:	ce 01       	movw	r24, r28
     45c:	01 96       	adiw	r24, 0x01	; 1
     45e:	be 01       	movw	r22, r28
     460:	67 5f       	subi	r22, 0xF7	; 247
     462:	7f 4f       	sbci	r23, 0xFF	; 255
     464:	0e 94 d2 04 	call	0x9a4	; 0x9a4 <__unpack_f>
     468:	ce 01       	movw	r24, r28
     46a:	05 96       	adiw	r24, 0x05	; 5
     46c:	be 01       	movw	r22, r28
     46e:	6f 5e       	subi	r22, 0xEF	; 239
     470:	7f 4f       	sbci	r23, 0xFF	; 255
     472:	0e 94 d2 04 	call	0x9a4	; 0x9a4 <__unpack_f>
     476:	99 85       	ldd	r25, Y+9	; 0x09
     478:	92 30       	cpi	r25, 0x02	; 2
     47a:	88 f0       	brcs	.+34     	; 0x49e <__mulsf3+0x60>
     47c:	89 89       	ldd	r24, Y+17	; 0x11
     47e:	82 30       	cpi	r24, 0x02	; 2
     480:	c8 f0       	brcs	.+50     	; 0x4b4 <__mulsf3+0x76>
     482:	94 30       	cpi	r25, 0x04	; 4
     484:	19 f4       	brne	.+6      	; 0x48c <__mulsf3+0x4e>
     486:	82 30       	cpi	r24, 0x02	; 2
     488:	51 f4       	brne	.+20     	; 0x49e <__mulsf3+0x60>
     48a:	04 c0       	rjmp	.+8      	; 0x494 <__mulsf3+0x56>
     48c:	84 30       	cpi	r24, 0x04	; 4
     48e:	29 f4       	brne	.+10     	; 0x49a <__mulsf3+0x5c>
     490:	92 30       	cpi	r25, 0x02	; 2
     492:	81 f4       	brne	.+32     	; 0x4b4 <__mulsf3+0x76>
     494:	80 e6       	ldi	r24, 0x60	; 96
     496:	90 e0       	ldi	r25, 0x00	; 0
     498:	c6 c0       	rjmp	.+396    	; 0x626 <__mulsf3+0x1e8>
     49a:	92 30       	cpi	r25, 0x02	; 2
     49c:	49 f4       	brne	.+18     	; 0x4b0 <__mulsf3+0x72>
     49e:	20 e0       	ldi	r18, 0x00	; 0
     4a0:	9a 85       	ldd	r25, Y+10	; 0x0a
     4a2:	8a 89       	ldd	r24, Y+18	; 0x12
     4a4:	98 13       	cpse	r25, r24
     4a6:	21 e0       	ldi	r18, 0x01	; 1
     4a8:	2a 87       	std	Y+10, r18	; 0x0a
     4aa:	ce 01       	movw	r24, r28
     4ac:	09 96       	adiw	r24, 0x09	; 9
     4ae:	bb c0       	rjmp	.+374    	; 0x626 <__mulsf3+0x1e8>
     4b0:	82 30       	cpi	r24, 0x02	; 2
     4b2:	49 f4       	brne	.+18     	; 0x4c6 <__mulsf3+0x88>
     4b4:	20 e0       	ldi	r18, 0x00	; 0
     4b6:	9a 85       	ldd	r25, Y+10	; 0x0a
     4b8:	8a 89       	ldd	r24, Y+18	; 0x12
     4ba:	98 13       	cpse	r25, r24
     4bc:	21 e0       	ldi	r18, 0x01	; 1
     4be:	2a 8b       	std	Y+18, r18	; 0x12
     4c0:	ce 01       	movw	r24, r28
     4c2:	41 96       	adiw	r24, 0x11	; 17
     4c4:	b0 c0       	rjmp	.+352    	; 0x626 <__mulsf3+0x1e8>
     4c6:	2d 84       	ldd	r2, Y+13	; 0x0d
     4c8:	3e 84       	ldd	r3, Y+14	; 0x0e
     4ca:	4f 84       	ldd	r4, Y+15	; 0x0f
     4cc:	58 88       	ldd	r5, Y+16	; 0x10
     4ce:	6d 88       	ldd	r6, Y+21	; 0x15
     4d0:	7e 88       	ldd	r7, Y+22	; 0x16
     4d2:	8f 88       	ldd	r8, Y+23	; 0x17
     4d4:	98 8c       	ldd	r9, Y+24	; 0x18
     4d6:	ee 24       	eor	r14, r14
     4d8:	ff 24       	eor	r15, r15
     4da:	87 01       	movw	r16, r14
     4dc:	aa 24       	eor	r10, r10
     4de:	bb 24       	eor	r11, r11
     4e0:	65 01       	movw	r12, r10
     4e2:	40 e0       	ldi	r20, 0x00	; 0
     4e4:	50 e0       	ldi	r21, 0x00	; 0
     4e6:	60 e0       	ldi	r22, 0x00	; 0
     4e8:	70 e0       	ldi	r23, 0x00	; 0
     4ea:	e0 e0       	ldi	r30, 0x00	; 0
     4ec:	f0 e0       	ldi	r31, 0x00	; 0
     4ee:	c1 01       	movw	r24, r2
     4f0:	81 70       	andi	r24, 0x01	; 1
     4f2:	90 70       	andi	r25, 0x00	; 0
     4f4:	89 2b       	or	r24, r25
     4f6:	e9 f0       	breq	.+58     	; 0x532 <__mulsf3+0xf4>
     4f8:	e6 0c       	add	r14, r6
     4fa:	f7 1c       	adc	r15, r7
     4fc:	08 1d       	adc	r16, r8
     4fe:	19 1d       	adc	r17, r9
     500:	9a 01       	movw	r18, r20
     502:	ab 01       	movw	r20, r22
     504:	2a 0d       	add	r18, r10
     506:	3b 1d       	adc	r19, r11
     508:	4c 1d       	adc	r20, r12
     50a:	5d 1d       	adc	r21, r13
     50c:	80 e0       	ldi	r24, 0x00	; 0
     50e:	90 e0       	ldi	r25, 0x00	; 0
     510:	a0 e0       	ldi	r26, 0x00	; 0
     512:	b0 e0       	ldi	r27, 0x00	; 0
     514:	e6 14       	cp	r14, r6
     516:	f7 04       	cpc	r15, r7
     518:	08 05       	cpc	r16, r8
     51a:	19 05       	cpc	r17, r9
     51c:	20 f4       	brcc	.+8      	; 0x526 <__mulsf3+0xe8>
     51e:	81 e0       	ldi	r24, 0x01	; 1
     520:	90 e0       	ldi	r25, 0x00	; 0
     522:	a0 e0       	ldi	r26, 0x00	; 0
     524:	b0 e0       	ldi	r27, 0x00	; 0
     526:	ba 01       	movw	r22, r20
     528:	a9 01       	movw	r20, r18
     52a:	48 0f       	add	r20, r24
     52c:	59 1f       	adc	r21, r25
     52e:	6a 1f       	adc	r22, r26
     530:	7b 1f       	adc	r23, r27
     532:	aa 0c       	add	r10, r10
     534:	bb 1c       	adc	r11, r11
     536:	cc 1c       	adc	r12, r12
     538:	dd 1c       	adc	r13, r13
     53a:	97 fe       	sbrs	r9, 7
     53c:	08 c0       	rjmp	.+16     	; 0x54e <__mulsf3+0x110>
     53e:	81 e0       	ldi	r24, 0x01	; 1
     540:	90 e0       	ldi	r25, 0x00	; 0
     542:	a0 e0       	ldi	r26, 0x00	; 0
     544:	b0 e0       	ldi	r27, 0x00	; 0
     546:	a8 2a       	or	r10, r24
     548:	b9 2a       	or	r11, r25
     54a:	ca 2a       	or	r12, r26
     54c:	db 2a       	or	r13, r27
     54e:	31 96       	adiw	r30, 0x01	; 1
     550:	e0 32       	cpi	r30, 0x20	; 32
     552:	f1 05       	cpc	r31, r1
     554:	49 f0       	breq	.+18     	; 0x568 <__mulsf3+0x12a>
     556:	66 0c       	add	r6, r6
     558:	77 1c       	adc	r7, r7
     55a:	88 1c       	adc	r8, r8
     55c:	99 1c       	adc	r9, r9
     55e:	56 94       	lsr	r5
     560:	47 94       	ror	r4
     562:	37 94       	ror	r3
     564:	27 94       	ror	r2
     566:	c3 cf       	rjmp	.-122    	; 0x4ee <__mulsf3+0xb0>
     568:	fa 85       	ldd	r31, Y+10	; 0x0a
     56a:	ea 89       	ldd	r30, Y+18	; 0x12
     56c:	2b 89       	ldd	r18, Y+19	; 0x13
     56e:	3c 89       	ldd	r19, Y+20	; 0x14
     570:	8b 85       	ldd	r24, Y+11	; 0x0b
     572:	9c 85       	ldd	r25, Y+12	; 0x0c
     574:	28 0f       	add	r18, r24
     576:	39 1f       	adc	r19, r25
     578:	2e 5f       	subi	r18, 0xFE	; 254
     57a:	3f 4f       	sbci	r19, 0xFF	; 255
     57c:	17 c0       	rjmp	.+46     	; 0x5ac <__mulsf3+0x16e>
     57e:	ca 01       	movw	r24, r20
     580:	81 70       	andi	r24, 0x01	; 1
     582:	90 70       	andi	r25, 0x00	; 0
     584:	89 2b       	or	r24, r25
     586:	61 f0       	breq	.+24     	; 0x5a0 <__mulsf3+0x162>
     588:	16 95       	lsr	r17
     58a:	07 95       	ror	r16
     58c:	f7 94       	ror	r15
     58e:	e7 94       	ror	r14
     590:	80 e0       	ldi	r24, 0x00	; 0
     592:	90 e0       	ldi	r25, 0x00	; 0
     594:	a0 e0       	ldi	r26, 0x00	; 0
     596:	b0 e8       	ldi	r27, 0x80	; 128
     598:	e8 2a       	or	r14, r24
     59a:	f9 2a       	or	r15, r25
     59c:	0a 2b       	or	r16, r26
     59e:	1b 2b       	or	r17, r27
     5a0:	76 95       	lsr	r23
     5a2:	67 95       	ror	r22
     5a4:	57 95       	ror	r21
     5a6:	47 95       	ror	r20
     5a8:	2f 5f       	subi	r18, 0xFF	; 255
     5aa:	3f 4f       	sbci	r19, 0xFF	; 255
     5ac:	77 fd       	sbrc	r23, 7
     5ae:	e7 cf       	rjmp	.-50     	; 0x57e <__mulsf3+0x140>
     5b0:	0c c0       	rjmp	.+24     	; 0x5ca <__mulsf3+0x18c>
     5b2:	44 0f       	add	r20, r20
     5b4:	55 1f       	adc	r21, r21
     5b6:	66 1f       	adc	r22, r22
     5b8:	77 1f       	adc	r23, r23
     5ba:	17 fd       	sbrc	r17, 7
     5bc:	41 60       	ori	r20, 0x01	; 1
     5be:	ee 0c       	add	r14, r14
     5c0:	ff 1c       	adc	r15, r15
     5c2:	00 1f       	adc	r16, r16
     5c4:	11 1f       	adc	r17, r17
     5c6:	21 50       	subi	r18, 0x01	; 1
     5c8:	30 40       	sbci	r19, 0x00	; 0
     5ca:	40 30       	cpi	r20, 0x00	; 0
     5cc:	90 e0       	ldi	r25, 0x00	; 0
     5ce:	59 07       	cpc	r21, r25
     5d0:	90 e0       	ldi	r25, 0x00	; 0
     5d2:	69 07       	cpc	r22, r25
     5d4:	90 e4       	ldi	r25, 0x40	; 64
     5d6:	79 07       	cpc	r23, r25
     5d8:	60 f3       	brcs	.-40     	; 0x5b2 <__mulsf3+0x174>
     5da:	2b 8f       	std	Y+27, r18	; 0x1b
     5dc:	3c 8f       	std	Y+28, r19	; 0x1c
     5de:	db 01       	movw	r26, r22
     5e0:	ca 01       	movw	r24, r20
     5e2:	8f 77       	andi	r24, 0x7F	; 127
     5e4:	90 70       	andi	r25, 0x00	; 0
     5e6:	a0 70       	andi	r26, 0x00	; 0
     5e8:	b0 70       	andi	r27, 0x00	; 0
     5ea:	80 34       	cpi	r24, 0x40	; 64
     5ec:	91 05       	cpc	r25, r1
     5ee:	a1 05       	cpc	r26, r1
     5f0:	b1 05       	cpc	r27, r1
     5f2:	61 f4       	brne	.+24     	; 0x60c <__mulsf3+0x1ce>
     5f4:	47 fd       	sbrc	r20, 7
     5f6:	0a c0       	rjmp	.+20     	; 0x60c <__mulsf3+0x1ce>
     5f8:	e1 14       	cp	r14, r1
     5fa:	f1 04       	cpc	r15, r1
     5fc:	01 05       	cpc	r16, r1
     5fe:	11 05       	cpc	r17, r1
     600:	29 f0       	breq	.+10     	; 0x60c <__mulsf3+0x1ce>
     602:	40 5c       	subi	r20, 0xC0	; 192
     604:	5f 4f       	sbci	r21, 0xFF	; 255
     606:	6f 4f       	sbci	r22, 0xFF	; 255
     608:	7f 4f       	sbci	r23, 0xFF	; 255
     60a:	40 78       	andi	r20, 0x80	; 128
     60c:	1a 8e       	std	Y+26, r1	; 0x1a
     60e:	fe 17       	cp	r31, r30
     610:	11 f0       	breq	.+4      	; 0x616 <__mulsf3+0x1d8>
     612:	81 e0       	ldi	r24, 0x01	; 1
     614:	8a 8f       	std	Y+26, r24	; 0x1a
     616:	4d 8f       	std	Y+29, r20	; 0x1d
     618:	5e 8f       	std	Y+30, r21	; 0x1e
     61a:	6f 8f       	std	Y+31, r22	; 0x1f
     61c:	78 a3       	std	Y+32, r23	; 0x20
     61e:	83 e0       	ldi	r24, 0x03	; 3
     620:	89 8f       	std	Y+25, r24	; 0x19
     622:	ce 01       	movw	r24, r28
     624:	49 96       	adiw	r24, 0x19	; 25
     626:	0e 94 fd 03 	call	0x7fa	; 0x7fa <__pack_f>
     62a:	a0 96       	adiw	r28, 0x20	; 32
     62c:	e2 e1       	ldi	r30, 0x12	; 18
     62e:	0c 94 09 0d 	jmp	0x1a12	; 0x1a12 <__epilogue_restores__>

00000632 <__gtsf2>:
     632:	a8 e1       	ldi	r26, 0x18	; 24
     634:	b0 e0       	ldi	r27, 0x00	; 0
     636:	ef e1       	ldi	r30, 0x1F	; 31
     638:	f3 e0       	ldi	r31, 0x03	; 3
     63a:	0c 94 f9 0c 	jmp	0x19f2	; 0x19f2 <__prologue_saves__+0x18>
     63e:	69 83       	std	Y+1, r22	; 0x01
     640:	7a 83       	std	Y+2, r23	; 0x02
     642:	8b 83       	std	Y+3, r24	; 0x03
     644:	9c 83       	std	Y+4, r25	; 0x04
     646:	2d 83       	std	Y+5, r18	; 0x05
     648:	3e 83       	std	Y+6, r19	; 0x06
     64a:	4f 83       	std	Y+7, r20	; 0x07
     64c:	58 87       	std	Y+8, r21	; 0x08
     64e:	89 e0       	ldi	r24, 0x09	; 9
     650:	e8 2e       	mov	r14, r24
     652:	f1 2c       	mov	r15, r1
     654:	ec 0e       	add	r14, r28
     656:	fd 1e       	adc	r15, r29
     658:	ce 01       	movw	r24, r28
     65a:	01 96       	adiw	r24, 0x01	; 1
     65c:	b7 01       	movw	r22, r14
     65e:	0e 94 d2 04 	call	0x9a4	; 0x9a4 <__unpack_f>
     662:	8e 01       	movw	r16, r28
     664:	0f 5e       	subi	r16, 0xEF	; 239
     666:	1f 4f       	sbci	r17, 0xFF	; 255
     668:	ce 01       	movw	r24, r28
     66a:	05 96       	adiw	r24, 0x05	; 5
     66c:	b8 01       	movw	r22, r16
     66e:	0e 94 d2 04 	call	0x9a4	; 0x9a4 <__unpack_f>
     672:	89 85       	ldd	r24, Y+9	; 0x09
     674:	82 30       	cpi	r24, 0x02	; 2
     676:	40 f0       	brcs	.+16     	; 0x688 <__gtsf2+0x56>
     678:	89 89       	ldd	r24, Y+17	; 0x11
     67a:	82 30       	cpi	r24, 0x02	; 2
     67c:	28 f0       	brcs	.+10     	; 0x688 <__gtsf2+0x56>
     67e:	c7 01       	movw	r24, r14
     680:	b8 01       	movw	r22, r16
     682:	0e 94 4a 05 	call	0xa94	; 0xa94 <__fpcmp_parts_f>
     686:	01 c0       	rjmp	.+2      	; 0x68a <__gtsf2+0x58>
     688:	8f ef       	ldi	r24, 0xFF	; 255
     68a:	68 96       	adiw	r28, 0x18	; 24
     68c:	e6 e0       	ldi	r30, 0x06	; 6
     68e:	0c 94 15 0d 	jmp	0x1a2a	; 0x1a2a <__epilogue_restores__+0x18>

00000692 <__gesf2>:
     692:	a8 e1       	ldi	r26, 0x18	; 24
     694:	b0 e0       	ldi	r27, 0x00	; 0
     696:	ef e4       	ldi	r30, 0x4F	; 79
     698:	f3 e0       	ldi	r31, 0x03	; 3
     69a:	0c 94 f9 0c 	jmp	0x19f2	; 0x19f2 <__prologue_saves__+0x18>
     69e:	69 83       	std	Y+1, r22	; 0x01
     6a0:	7a 83       	std	Y+2, r23	; 0x02
     6a2:	8b 83       	std	Y+3, r24	; 0x03
     6a4:	9c 83       	std	Y+4, r25	; 0x04
     6a6:	2d 83       	std	Y+5, r18	; 0x05
     6a8:	3e 83       	std	Y+6, r19	; 0x06
     6aa:	4f 83       	std	Y+7, r20	; 0x07
     6ac:	58 87       	std	Y+8, r21	; 0x08
     6ae:	89 e0       	ldi	r24, 0x09	; 9
     6b0:	e8 2e       	mov	r14, r24
     6b2:	f1 2c       	mov	r15, r1
     6b4:	ec 0e       	add	r14, r28
     6b6:	fd 1e       	adc	r15, r29
     6b8:	ce 01       	movw	r24, r28
     6ba:	01 96       	adiw	r24, 0x01	; 1
     6bc:	b7 01       	movw	r22, r14
     6be:	0e 94 d2 04 	call	0x9a4	; 0x9a4 <__unpack_f>
     6c2:	8e 01       	movw	r16, r28
     6c4:	0f 5e       	subi	r16, 0xEF	; 239
     6c6:	1f 4f       	sbci	r17, 0xFF	; 255
     6c8:	ce 01       	movw	r24, r28
     6ca:	05 96       	adiw	r24, 0x05	; 5
     6cc:	b8 01       	movw	r22, r16
     6ce:	0e 94 d2 04 	call	0x9a4	; 0x9a4 <__unpack_f>
     6d2:	89 85       	ldd	r24, Y+9	; 0x09
     6d4:	82 30       	cpi	r24, 0x02	; 2
     6d6:	40 f0       	brcs	.+16     	; 0x6e8 <__gesf2+0x56>
     6d8:	89 89       	ldd	r24, Y+17	; 0x11
     6da:	82 30       	cpi	r24, 0x02	; 2
     6dc:	28 f0       	brcs	.+10     	; 0x6e8 <__gesf2+0x56>
     6de:	c7 01       	movw	r24, r14
     6e0:	b8 01       	movw	r22, r16
     6e2:	0e 94 4a 05 	call	0xa94	; 0xa94 <__fpcmp_parts_f>
     6e6:	01 c0       	rjmp	.+2      	; 0x6ea <__gesf2+0x58>
     6e8:	8f ef       	ldi	r24, 0xFF	; 255
     6ea:	68 96       	adiw	r28, 0x18	; 24
     6ec:	e6 e0       	ldi	r30, 0x06	; 6
     6ee:	0c 94 15 0d 	jmp	0x1a2a	; 0x1a2a <__epilogue_restores__+0x18>

000006f2 <__ltsf2>:
     6f2:	a8 e1       	ldi	r26, 0x18	; 24
     6f4:	b0 e0       	ldi	r27, 0x00	; 0
     6f6:	ef e7       	ldi	r30, 0x7F	; 127
     6f8:	f3 e0       	ldi	r31, 0x03	; 3
     6fa:	0c 94 f9 0c 	jmp	0x19f2	; 0x19f2 <__prologue_saves__+0x18>
     6fe:	69 83       	std	Y+1, r22	; 0x01
     700:	7a 83       	std	Y+2, r23	; 0x02
     702:	8b 83       	std	Y+3, r24	; 0x03
     704:	9c 83       	std	Y+4, r25	; 0x04
     706:	2d 83       	std	Y+5, r18	; 0x05
     708:	3e 83       	std	Y+6, r19	; 0x06
     70a:	4f 83       	std	Y+7, r20	; 0x07
     70c:	58 87       	std	Y+8, r21	; 0x08
     70e:	89 e0       	ldi	r24, 0x09	; 9
     710:	e8 2e       	mov	r14, r24
     712:	f1 2c       	mov	r15, r1
     714:	ec 0e       	add	r14, r28
     716:	fd 1e       	adc	r15, r29
     718:	ce 01       	movw	r24, r28
     71a:	01 96       	adiw	r24, 0x01	; 1
     71c:	b7 01       	movw	r22, r14
     71e:	0e 94 d2 04 	call	0x9a4	; 0x9a4 <__unpack_f>
     722:	8e 01       	movw	r16, r28
     724:	0f 5e       	subi	r16, 0xEF	; 239
     726:	1f 4f       	sbci	r17, 0xFF	; 255
     728:	ce 01       	movw	r24, r28
     72a:	05 96       	adiw	r24, 0x05	; 5
     72c:	b8 01       	movw	r22, r16
     72e:	0e 94 d2 04 	call	0x9a4	; 0x9a4 <__unpack_f>
     732:	89 85       	ldd	r24, Y+9	; 0x09
     734:	82 30       	cpi	r24, 0x02	; 2
     736:	40 f0       	brcs	.+16     	; 0x748 <__ltsf2+0x56>
     738:	89 89       	ldd	r24, Y+17	; 0x11
     73a:	82 30       	cpi	r24, 0x02	; 2
     73c:	28 f0       	brcs	.+10     	; 0x748 <__ltsf2+0x56>
     73e:	c7 01       	movw	r24, r14
     740:	b8 01       	movw	r22, r16
     742:	0e 94 4a 05 	call	0xa94	; 0xa94 <__fpcmp_parts_f>
     746:	01 c0       	rjmp	.+2      	; 0x74a <__ltsf2+0x58>
     748:	81 e0       	ldi	r24, 0x01	; 1
     74a:	68 96       	adiw	r28, 0x18	; 24
     74c:	e6 e0       	ldi	r30, 0x06	; 6
     74e:	0c 94 15 0d 	jmp	0x1a2a	; 0x1a2a <__epilogue_restores__+0x18>

00000752 <__fixsfsi>:
     752:	ac e0       	ldi	r26, 0x0C	; 12
     754:	b0 e0       	ldi	r27, 0x00	; 0
     756:	ef ea       	ldi	r30, 0xAF	; 175
     758:	f3 e0       	ldi	r31, 0x03	; 3
     75a:	0c 94 fd 0c 	jmp	0x19fa	; 0x19fa <__prologue_saves__+0x20>
     75e:	69 83       	std	Y+1, r22	; 0x01
     760:	7a 83       	std	Y+2, r23	; 0x02
     762:	8b 83       	std	Y+3, r24	; 0x03
     764:	9c 83       	std	Y+4, r25	; 0x04
     766:	ce 01       	movw	r24, r28
     768:	01 96       	adiw	r24, 0x01	; 1
     76a:	be 01       	movw	r22, r28
     76c:	6b 5f       	subi	r22, 0xFB	; 251
     76e:	7f 4f       	sbci	r23, 0xFF	; 255
     770:	0e 94 d2 04 	call	0x9a4	; 0x9a4 <__unpack_f>
     774:	8d 81       	ldd	r24, Y+5	; 0x05
     776:	82 30       	cpi	r24, 0x02	; 2
     778:	61 f1       	breq	.+88     	; 0x7d2 <__fixsfsi+0x80>
     77a:	82 30       	cpi	r24, 0x02	; 2
     77c:	50 f1       	brcs	.+84     	; 0x7d2 <__fixsfsi+0x80>
     77e:	84 30       	cpi	r24, 0x04	; 4
     780:	21 f4       	brne	.+8      	; 0x78a <__fixsfsi+0x38>
     782:	8e 81       	ldd	r24, Y+6	; 0x06
     784:	88 23       	and	r24, r24
     786:	51 f1       	breq	.+84     	; 0x7dc <__fixsfsi+0x8a>
     788:	2e c0       	rjmp	.+92     	; 0x7e6 <__fixsfsi+0x94>
     78a:	2f 81       	ldd	r18, Y+7	; 0x07
     78c:	38 85       	ldd	r19, Y+8	; 0x08
     78e:	37 fd       	sbrc	r19, 7
     790:	20 c0       	rjmp	.+64     	; 0x7d2 <__fixsfsi+0x80>
     792:	6e 81       	ldd	r22, Y+6	; 0x06
     794:	2f 31       	cpi	r18, 0x1F	; 31
     796:	31 05       	cpc	r19, r1
     798:	1c f0       	brlt	.+6      	; 0x7a0 <__fixsfsi+0x4e>
     79a:	66 23       	and	r22, r22
     79c:	f9 f0       	breq	.+62     	; 0x7dc <__fixsfsi+0x8a>
     79e:	23 c0       	rjmp	.+70     	; 0x7e6 <__fixsfsi+0x94>
     7a0:	8e e1       	ldi	r24, 0x1E	; 30
     7a2:	90 e0       	ldi	r25, 0x00	; 0
     7a4:	82 1b       	sub	r24, r18
     7a6:	93 0b       	sbc	r25, r19
     7a8:	29 85       	ldd	r18, Y+9	; 0x09
     7aa:	3a 85       	ldd	r19, Y+10	; 0x0a
     7ac:	4b 85       	ldd	r20, Y+11	; 0x0b
     7ae:	5c 85       	ldd	r21, Y+12	; 0x0c
     7b0:	04 c0       	rjmp	.+8      	; 0x7ba <__fixsfsi+0x68>
     7b2:	56 95       	lsr	r21
     7b4:	47 95       	ror	r20
     7b6:	37 95       	ror	r19
     7b8:	27 95       	ror	r18
     7ba:	8a 95       	dec	r24
     7bc:	d2 f7       	brpl	.-12     	; 0x7b2 <__fixsfsi+0x60>
     7be:	66 23       	and	r22, r22
     7c0:	b1 f0       	breq	.+44     	; 0x7ee <__fixsfsi+0x9c>
     7c2:	50 95       	com	r21
     7c4:	40 95       	com	r20
     7c6:	30 95       	com	r19
     7c8:	21 95       	neg	r18
     7ca:	3f 4f       	sbci	r19, 0xFF	; 255
     7cc:	4f 4f       	sbci	r20, 0xFF	; 255
     7ce:	5f 4f       	sbci	r21, 0xFF	; 255
     7d0:	0e c0       	rjmp	.+28     	; 0x7ee <__fixsfsi+0x9c>
     7d2:	20 e0       	ldi	r18, 0x00	; 0
     7d4:	30 e0       	ldi	r19, 0x00	; 0
     7d6:	40 e0       	ldi	r20, 0x00	; 0
     7d8:	50 e0       	ldi	r21, 0x00	; 0
     7da:	09 c0       	rjmp	.+18     	; 0x7ee <__fixsfsi+0x9c>
     7dc:	2f ef       	ldi	r18, 0xFF	; 255
     7de:	3f ef       	ldi	r19, 0xFF	; 255
     7e0:	4f ef       	ldi	r20, 0xFF	; 255
     7e2:	5f e7       	ldi	r21, 0x7F	; 127
     7e4:	04 c0       	rjmp	.+8      	; 0x7ee <__fixsfsi+0x9c>
     7e6:	20 e0       	ldi	r18, 0x00	; 0
     7e8:	30 e0       	ldi	r19, 0x00	; 0
     7ea:	40 e0       	ldi	r20, 0x00	; 0
     7ec:	50 e8       	ldi	r21, 0x80	; 128
     7ee:	b9 01       	movw	r22, r18
     7f0:	ca 01       	movw	r24, r20
     7f2:	2c 96       	adiw	r28, 0x0c	; 12
     7f4:	e2 e0       	ldi	r30, 0x02	; 2
     7f6:	0c 94 19 0d 	jmp	0x1a32	; 0x1a32 <__epilogue_restores__+0x20>

000007fa <__pack_f>:
     7fa:	df 92       	push	r13
     7fc:	ef 92       	push	r14
     7fe:	ff 92       	push	r15
     800:	0f 93       	push	r16
     802:	1f 93       	push	r17
     804:	fc 01       	movw	r30, r24
     806:	e4 80       	ldd	r14, Z+4	; 0x04
     808:	f5 80       	ldd	r15, Z+5	; 0x05
     80a:	06 81       	ldd	r16, Z+6	; 0x06
     80c:	17 81       	ldd	r17, Z+7	; 0x07
     80e:	d1 80       	ldd	r13, Z+1	; 0x01
     810:	80 81       	ld	r24, Z
     812:	82 30       	cpi	r24, 0x02	; 2
     814:	48 f4       	brcc	.+18     	; 0x828 <__pack_f+0x2e>
     816:	80 e0       	ldi	r24, 0x00	; 0
     818:	90 e0       	ldi	r25, 0x00	; 0
     81a:	a0 e1       	ldi	r26, 0x10	; 16
     81c:	b0 e0       	ldi	r27, 0x00	; 0
     81e:	e8 2a       	or	r14, r24
     820:	f9 2a       	or	r15, r25
     822:	0a 2b       	or	r16, r26
     824:	1b 2b       	or	r17, r27
     826:	a5 c0       	rjmp	.+330    	; 0x972 <__stack+0x113>
     828:	84 30       	cpi	r24, 0x04	; 4
     82a:	09 f4       	brne	.+2      	; 0x82e <__pack_f+0x34>
     82c:	9f c0       	rjmp	.+318    	; 0x96c <__stack+0x10d>
     82e:	82 30       	cpi	r24, 0x02	; 2
     830:	21 f4       	brne	.+8      	; 0x83a <__pack_f+0x40>
     832:	ee 24       	eor	r14, r14
     834:	ff 24       	eor	r15, r15
     836:	87 01       	movw	r16, r14
     838:	05 c0       	rjmp	.+10     	; 0x844 <__pack_f+0x4a>
     83a:	e1 14       	cp	r14, r1
     83c:	f1 04       	cpc	r15, r1
     83e:	01 05       	cpc	r16, r1
     840:	11 05       	cpc	r17, r1
     842:	19 f4       	brne	.+6      	; 0x84a <__pack_f+0x50>
     844:	e0 e0       	ldi	r30, 0x00	; 0
     846:	f0 e0       	ldi	r31, 0x00	; 0
     848:	96 c0       	rjmp	.+300    	; 0x976 <__stack+0x117>
     84a:	62 81       	ldd	r22, Z+2	; 0x02
     84c:	73 81       	ldd	r23, Z+3	; 0x03
     84e:	9f ef       	ldi	r25, 0xFF	; 255
     850:	62 38       	cpi	r22, 0x82	; 130
     852:	79 07       	cpc	r23, r25
     854:	0c f0       	brlt	.+2      	; 0x858 <__pack_f+0x5e>
     856:	5b c0       	rjmp	.+182    	; 0x90e <__stack+0xaf>
     858:	22 e8       	ldi	r18, 0x82	; 130
     85a:	3f ef       	ldi	r19, 0xFF	; 255
     85c:	26 1b       	sub	r18, r22
     85e:	37 0b       	sbc	r19, r23
     860:	2a 31       	cpi	r18, 0x1A	; 26
     862:	31 05       	cpc	r19, r1
     864:	2c f0       	brlt	.+10     	; 0x870 <__stack+0x11>
     866:	20 e0       	ldi	r18, 0x00	; 0
     868:	30 e0       	ldi	r19, 0x00	; 0
     86a:	40 e0       	ldi	r20, 0x00	; 0
     86c:	50 e0       	ldi	r21, 0x00	; 0
     86e:	2a c0       	rjmp	.+84     	; 0x8c4 <__stack+0x65>
     870:	b8 01       	movw	r22, r16
     872:	a7 01       	movw	r20, r14
     874:	02 2e       	mov	r0, r18
     876:	04 c0       	rjmp	.+8      	; 0x880 <__stack+0x21>
     878:	76 95       	lsr	r23
     87a:	67 95       	ror	r22
     87c:	57 95       	ror	r21
     87e:	47 95       	ror	r20
     880:	0a 94       	dec	r0
     882:	d2 f7       	brpl	.-12     	; 0x878 <__stack+0x19>
     884:	81 e0       	ldi	r24, 0x01	; 1
     886:	90 e0       	ldi	r25, 0x00	; 0
     888:	a0 e0       	ldi	r26, 0x00	; 0
     88a:	b0 e0       	ldi	r27, 0x00	; 0
     88c:	04 c0       	rjmp	.+8      	; 0x896 <__stack+0x37>
     88e:	88 0f       	add	r24, r24
     890:	99 1f       	adc	r25, r25
     892:	aa 1f       	adc	r26, r26
     894:	bb 1f       	adc	r27, r27
     896:	2a 95       	dec	r18
     898:	d2 f7       	brpl	.-12     	; 0x88e <__stack+0x2f>
     89a:	01 97       	sbiw	r24, 0x01	; 1
     89c:	a1 09       	sbc	r26, r1
     89e:	b1 09       	sbc	r27, r1
     8a0:	8e 21       	and	r24, r14
     8a2:	9f 21       	and	r25, r15
     8a4:	a0 23       	and	r26, r16
     8a6:	b1 23       	and	r27, r17
     8a8:	00 97       	sbiw	r24, 0x00	; 0
     8aa:	a1 05       	cpc	r26, r1
     8ac:	b1 05       	cpc	r27, r1
     8ae:	21 f0       	breq	.+8      	; 0x8b8 <__stack+0x59>
     8b0:	81 e0       	ldi	r24, 0x01	; 1
     8b2:	90 e0       	ldi	r25, 0x00	; 0
     8b4:	a0 e0       	ldi	r26, 0x00	; 0
     8b6:	b0 e0       	ldi	r27, 0x00	; 0
     8b8:	9a 01       	movw	r18, r20
     8ba:	ab 01       	movw	r20, r22
     8bc:	28 2b       	or	r18, r24
     8be:	39 2b       	or	r19, r25
     8c0:	4a 2b       	or	r20, r26
     8c2:	5b 2b       	or	r21, r27
     8c4:	da 01       	movw	r26, r20
     8c6:	c9 01       	movw	r24, r18
     8c8:	8f 77       	andi	r24, 0x7F	; 127
     8ca:	90 70       	andi	r25, 0x00	; 0
     8cc:	a0 70       	andi	r26, 0x00	; 0
     8ce:	b0 70       	andi	r27, 0x00	; 0
     8d0:	80 34       	cpi	r24, 0x40	; 64
     8d2:	91 05       	cpc	r25, r1
     8d4:	a1 05       	cpc	r26, r1
     8d6:	b1 05       	cpc	r27, r1
     8d8:	39 f4       	brne	.+14     	; 0x8e8 <__stack+0x89>
     8da:	27 ff       	sbrs	r18, 7
     8dc:	09 c0       	rjmp	.+18     	; 0x8f0 <__stack+0x91>
     8de:	20 5c       	subi	r18, 0xC0	; 192
     8e0:	3f 4f       	sbci	r19, 0xFF	; 255
     8e2:	4f 4f       	sbci	r20, 0xFF	; 255
     8e4:	5f 4f       	sbci	r21, 0xFF	; 255
     8e6:	04 c0       	rjmp	.+8      	; 0x8f0 <__stack+0x91>
     8e8:	21 5c       	subi	r18, 0xC1	; 193
     8ea:	3f 4f       	sbci	r19, 0xFF	; 255
     8ec:	4f 4f       	sbci	r20, 0xFF	; 255
     8ee:	5f 4f       	sbci	r21, 0xFF	; 255
     8f0:	e0 e0       	ldi	r30, 0x00	; 0
     8f2:	f0 e0       	ldi	r31, 0x00	; 0
     8f4:	20 30       	cpi	r18, 0x00	; 0
     8f6:	a0 e0       	ldi	r26, 0x00	; 0
     8f8:	3a 07       	cpc	r19, r26
     8fa:	a0 e0       	ldi	r26, 0x00	; 0
     8fc:	4a 07       	cpc	r20, r26
     8fe:	a0 e4       	ldi	r26, 0x40	; 64
     900:	5a 07       	cpc	r21, r26
     902:	10 f0       	brcs	.+4      	; 0x908 <__stack+0xa9>
     904:	e1 e0       	ldi	r30, 0x01	; 1
     906:	f0 e0       	ldi	r31, 0x00	; 0
     908:	79 01       	movw	r14, r18
     90a:	8a 01       	movw	r16, r20
     90c:	27 c0       	rjmp	.+78     	; 0x95c <__stack+0xfd>
     90e:	60 38       	cpi	r22, 0x80	; 128
     910:	71 05       	cpc	r23, r1
     912:	64 f5       	brge	.+88     	; 0x96c <__stack+0x10d>
     914:	fb 01       	movw	r30, r22
     916:	e1 58       	subi	r30, 0x81	; 129
     918:	ff 4f       	sbci	r31, 0xFF	; 255
     91a:	d8 01       	movw	r26, r16
     91c:	c7 01       	movw	r24, r14
     91e:	8f 77       	andi	r24, 0x7F	; 127
     920:	90 70       	andi	r25, 0x00	; 0
     922:	a0 70       	andi	r26, 0x00	; 0
     924:	b0 70       	andi	r27, 0x00	; 0
     926:	80 34       	cpi	r24, 0x40	; 64
     928:	91 05       	cpc	r25, r1
     92a:	a1 05       	cpc	r26, r1
     92c:	b1 05       	cpc	r27, r1
     92e:	39 f4       	brne	.+14     	; 0x93e <__stack+0xdf>
     930:	e7 fe       	sbrs	r14, 7
     932:	0d c0       	rjmp	.+26     	; 0x94e <__stack+0xef>
     934:	80 e4       	ldi	r24, 0x40	; 64
     936:	90 e0       	ldi	r25, 0x00	; 0
     938:	a0 e0       	ldi	r26, 0x00	; 0
     93a:	b0 e0       	ldi	r27, 0x00	; 0
     93c:	04 c0       	rjmp	.+8      	; 0x946 <__stack+0xe7>
     93e:	8f e3       	ldi	r24, 0x3F	; 63
     940:	90 e0       	ldi	r25, 0x00	; 0
     942:	a0 e0       	ldi	r26, 0x00	; 0
     944:	b0 e0       	ldi	r27, 0x00	; 0
     946:	e8 0e       	add	r14, r24
     948:	f9 1e       	adc	r15, r25
     94a:	0a 1f       	adc	r16, r26
     94c:	1b 1f       	adc	r17, r27
     94e:	17 ff       	sbrs	r17, 7
     950:	05 c0       	rjmp	.+10     	; 0x95c <__stack+0xfd>
     952:	16 95       	lsr	r17
     954:	07 95       	ror	r16
     956:	f7 94       	ror	r15
     958:	e7 94       	ror	r14
     95a:	31 96       	adiw	r30, 0x01	; 1
     95c:	87 e0       	ldi	r24, 0x07	; 7
     95e:	16 95       	lsr	r17
     960:	07 95       	ror	r16
     962:	f7 94       	ror	r15
     964:	e7 94       	ror	r14
     966:	8a 95       	dec	r24
     968:	d1 f7       	brne	.-12     	; 0x95e <__stack+0xff>
     96a:	05 c0       	rjmp	.+10     	; 0x976 <__stack+0x117>
     96c:	ee 24       	eor	r14, r14
     96e:	ff 24       	eor	r15, r15
     970:	87 01       	movw	r16, r14
     972:	ef ef       	ldi	r30, 0xFF	; 255
     974:	f0 e0       	ldi	r31, 0x00	; 0
     976:	6e 2f       	mov	r22, r30
     978:	67 95       	ror	r22
     97a:	66 27       	eor	r22, r22
     97c:	67 95       	ror	r22
     97e:	90 2f       	mov	r25, r16
     980:	9f 77       	andi	r25, 0x7F	; 127
     982:	d7 94       	ror	r13
     984:	dd 24       	eor	r13, r13
     986:	d7 94       	ror	r13
     988:	8e 2f       	mov	r24, r30
     98a:	86 95       	lsr	r24
     98c:	49 2f       	mov	r20, r25
     98e:	46 2b       	or	r20, r22
     990:	58 2f       	mov	r21, r24
     992:	5d 29       	or	r21, r13
     994:	b7 01       	movw	r22, r14
     996:	ca 01       	movw	r24, r20
     998:	1f 91       	pop	r17
     99a:	0f 91       	pop	r16
     99c:	ff 90       	pop	r15
     99e:	ef 90       	pop	r14
     9a0:	df 90       	pop	r13
     9a2:	08 95       	ret

000009a4 <__unpack_f>:
     9a4:	fc 01       	movw	r30, r24
     9a6:	db 01       	movw	r26, r22
     9a8:	40 81       	ld	r20, Z
     9aa:	51 81       	ldd	r21, Z+1	; 0x01
     9ac:	22 81       	ldd	r18, Z+2	; 0x02
     9ae:	62 2f       	mov	r22, r18
     9b0:	6f 77       	andi	r22, 0x7F	; 127
     9b2:	70 e0       	ldi	r23, 0x00	; 0
     9b4:	22 1f       	adc	r18, r18
     9b6:	22 27       	eor	r18, r18
     9b8:	22 1f       	adc	r18, r18
     9ba:	93 81       	ldd	r25, Z+3	; 0x03
     9bc:	89 2f       	mov	r24, r25
     9be:	88 0f       	add	r24, r24
     9c0:	82 2b       	or	r24, r18
     9c2:	28 2f       	mov	r18, r24
     9c4:	30 e0       	ldi	r19, 0x00	; 0
     9c6:	99 1f       	adc	r25, r25
     9c8:	99 27       	eor	r25, r25
     9ca:	99 1f       	adc	r25, r25
     9cc:	11 96       	adiw	r26, 0x01	; 1
     9ce:	9c 93       	st	X, r25
     9d0:	11 97       	sbiw	r26, 0x01	; 1
     9d2:	21 15       	cp	r18, r1
     9d4:	31 05       	cpc	r19, r1
     9d6:	a9 f5       	brne	.+106    	; 0xa42 <__unpack_f+0x9e>
     9d8:	41 15       	cp	r20, r1
     9da:	51 05       	cpc	r21, r1
     9dc:	61 05       	cpc	r22, r1
     9de:	71 05       	cpc	r23, r1
     9e0:	11 f4       	brne	.+4      	; 0x9e6 <__unpack_f+0x42>
     9e2:	82 e0       	ldi	r24, 0x02	; 2
     9e4:	37 c0       	rjmp	.+110    	; 0xa54 <__unpack_f+0xb0>
     9e6:	82 e8       	ldi	r24, 0x82	; 130
     9e8:	9f ef       	ldi	r25, 0xFF	; 255
     9ea:	13 96       	adiw	r26, 0x03	; 3
     9ec:	9c 93       	st	X, r25
     9ee:	8e 93       	st	-X, r24
     9f0:	12 97       	sbiw	r26, 0x02	; 2
     9f2:	9a 01       	movw	r18, r20
     9f4:	ab 01       	movw	r20, r22
     9f6:	67 e0       	ldi	r22, 0x07	; 7
     9f8:	22 0f       	add	r18, r18
     9fa:	33 1f       	adc	r19, r19
     9fc:	44 1f       	adc	r20, r20
     9fe:	55 1f       	adc	r21, r21
     a00:	6a 95       	dec	r22
     a02:	d1 f7       	brne	.-12     	; 0x9f8 <__unpack_f+0x54>
     a04:	83 e0       	ldi	r24, 0x03	; 3
     a06:	8c 93       	st	X, r24
     a08:	0d c0       	rjmp	.+26     	; 0xa24 <__unpack_f+0x80>
     a0a:	22 0f       	add	r18, r18
     a0c:	33 1f       	adc	r19, r19
     a0e:	44 1f       	adc	r20, r20
     a10:	55 1f       	adc	r21, r21
     a12:	12 96       	adiw	r26, 0x02	; 2
     a14:	8d 91       	ld	r24, X+
     a16:	9c 91       	ld	r25, X
     a18:	13 97       	sbiw	r26, 0x03	; 3
     a1a:	01 97       	sbiw	r24, 0x01	; 1
     a1c:	13 96       	adiw	r26, 0x03	; 3
     a1e:	9c 93       	st	X, r25
     a20:	8e 93       	st	-X, r24
     a22:	12 97       	sbiw	r26, 0x02	; 2
     a24:	20 30       	cpi	r18, 0x00	; 0
     a26:	80 e0       	ldi	r24, 0x00	; 0
     a28:	38 07       	cpc	r19, r24
     a2a:	80 e0       	ldi	r24, 0x00	; 0
     a2c:	48 07       	cpc	r20, r24
     a2e:	80 e4       	ldi	r24, 0x40	; 64
     a30:	58 07       	cpc	r21, r24
     a32:	58 f3       	brcs	.-42     	; 0xa0a <__unpack_f+0x66>
     a34:	14 96       	adiw	r26, 0x04	; 4
     a36:	2d 93       	st	X+, r18
     a38:	3d 93       	st	X+, r19
     a3a:	4d 93       	st	X+, r20
     a3c:	5c 93       	st	X, r21
     a3e:	17 97       	sbiw	r26, 0x07	; 7
     a40:	08 95       	ret
     a42:	2f 3f       	cpi	r18, 0xFF	; 255
     a44:	31 05       	cpc	r19, r1
     a46:	79 f4       	brne	.+30     	; 0xa66 <__unpack_f+0xc2>
     a48:	41 15       	cp	r20, r1
     a4a:	51 05       	cpc	r21, r1
     a4c:	61 05       	cpc	r22, r1
     a4e:	71 05       	cpc	r23, r1
     a50:	19 f4       	brne	.+6      	; 0xa58 <__unpack_f+0xb4>
     a52:	84 e0       	ldi	r24, 0x04	; 4
     a54:	8c 93       	st	X, r24
     a56:	08 95       	ret
     a58:	64 ff       	sbrs	r22, 4
     a5a:	03 c0       	rjmp	.+6      	; 0xa62 <__unpack_f+0xbe>
     a5c:	81 e0       	ldi	r24, 0x01	; 1
     a5e:	8c 93       	st	X, r24
     a60:	12 c0       	rjmp	.+36     	; 0xa86 <__unpack_f+0xe2>
     a62:	1c 92       	st	X, r1
     a64:	10 c0       	rjmp	.+32     	; 0xa86 <__unpack_f+0xe2>
     a66:	2f 57       	subi	r18, 0x7F	; 127
     a68:	30 40       	sbci	r19, 0x00	; 0
     a6a:	13 96       	adiw	r26, 0x03	; 3
     a6c:	3c 93       	st	X, r19
     a6e:	2e 93       	st	-X, r18
     a70:	12 97       	sbiw	r26, 0x02	; 2
     a72:	83 e0       	ldi	r24, 0x03	; 3
     a74:	8c 93       	st	X, r24
     a76:	87 e0       	ldi	r24, 0x07	; 7
     a78:	44 0f       	add	r20, r20
     a7a:	55 1f       	adc	r21, r21
     a7c:	66 1f       	adc	r22, r22
     a7e:	77 1f       	adc	r23, r23
     a80:	8a 95       	dec	r24
     a82:	d1 f7       	brne	.-12     	; 0xa78 <__unpack_f+0xd4>
     a84:	70 64       	ori	r23, 0x40	; 64
     a86:	14 96       	adiw	r26, 0x04	; 4
     a88:	4d 93       	st	X+, r20
     a8a:	5d 93       	st	X+, r21
     a8c:	6d 93       	st	X+, r22
     a8e:	7c 93       	st	X, r23
     a90:	17 97       	sbiw	r26, 0x07	; 7
     a92:	08 95       	ret

00000a94 <__fpcmp_parts_f>:
     a94:	1f 93       	push	r17
     a96:	dc 01       	movw	r26, r24
     a98:	fb 01       	movw	r30, r22
     a9a:	9c 91       	ld	r25, X
     a9c:	92 30       	cpi	r25, 0x02	; 2
     a9e:	08 f4       	brcc	.+2      	; 0xaa2 <__fpcmp_parts_f+0xe>
     aa0:	47 c0       	rjmp	.+142    	; 0xb30 <__fpcmp_parts_f+0x9c>
     aa2:	80 81       	ld	r24, Z
     aa4:	82 30       	cpi	r24, 0x02	; 2
     aa6:	08 f4       	brcc	.+2      	; 0xaaa <__fpcmp_parts_f+0x16>
     aa8:	43 c0       	rjmp	.+134    	; 0xb30 <__fpcmp_parts_f+0x9c>
     aaa:	94 30       	cpi	r25, 0x04	; 4
     aac:	51 f4       	brne	.+20     	; 0xac2 <__fpcmp_parts_f+0x2e>
     aae:	11 96       	adiw	r26, 0x01	; 1
     ab0:	1c 91       	ld	r17, X
     ab2:	84 30       	cpi	r24, 0x04	; 4
     ab4:	99 f5       	brne	.+102    	; 0xb1c <__fpcmp_parts_f+0x88>
     ab6:	81 81       	ldd	r24, Z+1	; 0x01
     ab8:	68 2f       	mov	r22, r24
     aba:	70 e0       	ldi	r23, 0x00	; 0
     abc:	61 1b       	sub	r22, r17
     abe:	71 09       	sbc	r23, r1
     ac0:	3f c0       	rjmp	.+126    	; 0xb40 <__fpcmp_parts_f+0xac>
     ac2:	84 30       	cpi	r24, 0x04	; 4
     ac4:	21 f0       	breq	.+8      	; 0xace <__fpcmp_parts_f+0x3a>
     ac6:	92 30       	cpi	r25, 0x02	; 2
     ac8:	31 f4       	brne	.+12     	; 0xad6 <__fpcmp_parts_f+0x42>
     aca:	82 30       	cpi	r24, 0x02	; 2
     acc:	b9 f1       	breq	.+110    	; 0xb3c <__fpcmp_parts_f+0xa8>
     ace:	81 81       	ldd	r24, Z+1	; 0x01
     ad0:	88 23       	and	r24, r24
     ad2:	89 f1       	breq	.+98     	; 0xb36 <__fpcmp_parts_f+0xa2>
     ad4:	2d c0       	rjmp	.+90     	; 0xb30 <__fpcmp_parts_f+0x9c>
     ad6:	11 96       	adiw	r26, 0x01	; 1
     ad8:	1c 91       	ld	r17, X
     ada:	11 97       	sbiw	r26, 0x01	; 1
     adc:	82 30       	cpi	r24, 0x02	; 2
     ade:	f1 f0       	breq	.+60     	; 0xb1c <__fpcmp_parts_f+0x88>
     ae0:	81 81       	ldd	r24, Z+1	; 0x01
     ae2:	18 17       	cp	r17, r24
     ae4:	d9 f4       	brne	.+54     	; 0xb1c <__fpcmp_parts_f+0x88>
     ae6:	12 96       	adiw	r26, 0x02	; 2
     ae8:	2d 91       	ld	r18, X+
     aea:	3c 91       	ld	r19, X
     aec:	13 97       	sbiw	r26, 0x03	; 3
     aee:	82 81       	ldd	r24, Z+2	; 0x02
     af0:	93 81       	ldd	r25, Z+3	; 0x03
     af2:	82 17       	cp	r24, r18
     af4:	93 07       	cpc	r25, r19
     af6:	94 f0       	brlt	.+36     	; 0xb1c <__fpcmp_parts_f+0x88>
     af8:	28 17       	cp	r18, r24
     afa:	39 07       	cpc	r19, r25
     afc:	bc f0       	brlt	.+46     	; 0xb2c <__fpcmp_parts_f+0x98>
     afe:	14 96       	adiw	r26, 0x04	; 4
     b00:	8d 91       	ld	r24, X+
     b02:	9d 91       	ld	r25, X+
     b04:	0d 90       	ld	r0, X+
     b06:	bc 91       	ld	r27, X
     b08:	a0 2d       	mov	r26, r0
     b0a:	24 81       	ldd	r18, Z+4	; 0x04
     b0c:	35 81       	ldd	r19, Z+5	; 0x05
     b0e:	46 81       	ldd	r20, Z+6	; 0x06
     b10:	57 81       	ldd	r21, Z+7	; 0x07
     b12:	28 17       	cp	r18, r24
     b14:	39 07       	cpc	r19, r25
     b16:	4a 07       	cpc	r20, r26
     b18:	5b 07       	cpc	r21, r27
     b1a:	18 f4       	brcc	.+6      	; 0xb22 <__fpcmp_parts_f+0x8e>
     b1c:	11 23       	and	r17, r17
     b1e:	41 f0       	breq	.+16     	; 0xb30 <__fpcmp_parts_f+0x9c>
     b20:	0a c0       	rjmp	.+20     	; 0xb36 <__fpcmp_parts_f+0xa2>
     b22:	82 17       	cp	r24, r18
     b24:	93 07       	cpc	r25, r19
     b26:	a4 07       	cpc	r26, r20
     b28:	b5 07       	cpc	r27, r21
     b2a:	40 f4       	brcc	.+16     	; 0xb3c <__fpcmp_parts_f+0xa8>
     b2c:	11 23       	and	r17, r17
     b2e:	19 f0       	breq	.+6      	; 0xb36 <__fpcmp_parts_f+0xa2>
     b30:	61 e0       	ldi	r22, 0x01	; 1
     b32:	70 e0       	ldi	r23, 0x00	; 0
     b34:	05 c0       	rjmp	.+10     	; 0xb40 <__fpcmp_parts_f+0xac>
     b36:	6f ef       	ldi	r22, 0xFF	; 255
     b38:	7f ef       	ldi	r23, 0xFF	; 255
     b3a:	02 c0       	rjmp	.+4      	; 0xb40 <__fpcmp_parts_f+0xac>
     b3c:	60 e0       	ldi	r22, 0x00	; 0
     b3e:	70 e0       	ldi	r23, 0x00	; 0
     b40:	cb 01       	movw	r24, r22
     b42:	1f 91       	pop	r17
     b44:	08 95       	ret

00000b46 <MDIO_stderrSetPortDirection>:
/* SWC Includes */
#include "MDIO_private.h"
#include "MDIO_interface.h"

STD_error_t MDIO_stderrSetPortDirection(u8 ARG_u8Port, u8 ARG_u8Direction)
{
     b46:	df 93       	push	r29
     b48:	cf 93       	push	r28
     b4a:	00 d0       	rcall	.+0      	; 0xb4c <MDIO_stderrSetPortDirection+0x6>
     b4c:	00 d0       	rcall	.+0      	; 0xb4e <MDIO_stderrSetPortDirection+0x8>
     b4e:	0f 92       	push	r0
     b50:	cd b7       	in	r28, 0x3d	; 61
     b52:	de b7       	in	r29, 0x3e	; 62
     b54:	8a 83       	std	Y+2, r24	; 0x02
     b56:	6b 83       	std	Y+3, r22	; 0x03
	STD_error_t L_stderrError = E_OK;
     b58:	19 82       	std	Y+1, r1	; 0x01
	switch(ARG_u8Port)
     b5a:	8a 81       	ldd	r24, Y+2	; 0x02
     b5c:	28 2f       	mov	r18, r24
     b5e:	30 e0       	ldi	r19, 0x00	; 0
     b60:	3d 83       	std	Y+5, r19	; 0x05
     b62:	2c 83       	std	Y+4, r18	; 0x04
     b64:	8c 81       	ldd	r24, Y+4	; 0x04
     b66:	9d 81       	ldd	r25, Y+5	; 0x05
     b68:	82 30       	cpi	r24, 0x02	; 2
     b6a:	91 05       	cpc	r25, r1
     b6c:	d9 f0       	breq	.+54     	; 0xba4 <MDIO_stderrSetPortDirection+0x5e>
     b6e:	2c 81       	ldd	r18, Y+4	; 0x04
     b70:	3d 81       	ldd	r19, Y+5	; 0x05
     b72:	23 30       	cpi	r18, 0x03	; 3
     b74:	31 05       	cpc	r19, r1
     b76:	34 f4       	brge	.+12     	; 0xb84 <MDIO_stderrSetPortDirection+0x3e>
     b78:	8c 81       	ldd	r24, Y+4	; 0x04
     b7a:	9d 81       	ldd	r25, Y+5	; 0x05
     b7c:	81 30       	cpi	r24, 0x01	; 1
     b7e:	91 05       	cpc	r25, r1
     b80:	61 f0       	breq	.+24     	; 0xb9a <MDIO_stderrSetPortDirection+0x54>
     b82:	1f c0       	rjmp	.+62     	; 0xbc2 <MDIO_stderrSetPortDirection+0x7c>
     b84:	2c 81       	ldd	r18, Y+4	; 0x04
     b86:	3d 81       	ldd	r19, Y+5	; 0x05
     b88:	23 30       	cpi	r18, 0x03	; 3
     b8a:	31 05       	cpc	r19, r1
     b8c:	81 f0       	breq	.+32     	; 0xbae <MDIO_stderrSetPortDirection+0x68>
     b8e:	8c 81       	ldd	r24, Y+4	; 0x04
     b90:	9d 81       	ldd	r25, Y+5	; 0x05
     b92:	84 30       	cpi	r24, 0x04	; 4
     b94:	91 05       	cpc	r25, r1
     b96:	81 f0       	breq	.+32     	; 0xbb8 <MDIO_stderrSetPortDirection+0x72>
     b98:	14 c0       	rjmp	.+40     	; 0xbc2 <MDIO_stderrSetPortDirection+0x7c>
	{
		case MDIO_PORTA: GPIOA -> DDR = ARG_u8Direction; break;
     b9a:	e9 e3       	ldi	r30, 0x39	; 57
     b9c:	f0 e0       	ldi	r31, 0x00	; 0
     b9e:	8b 81       	ldd	r24, Y+3	; 0x03
     ba0:	81 83       	std	Z+1, r24	; 0x01
     ba2:	11 c0       	rjmp	.+34     	; 0xbc6 <MDIO_stderrSetPortDirection+0x80>
		case MDIO_PORTB: GPIOB -> DDR = ARG_u8Direction; break;
     ba4:	e6 e3       	ldi	r30, 0x36	; 54
     ba6:	f0 e0       	ldi	r31, 0x00	; 0
     ba8:	8b 81       	ldd	r24, Y+3	; 0x03
     baa:	81 83       	std	Z+1, r24	; 0x01
     bac:	0c c0       	rjmp	.+24     	; 0xbc6 <MDIO_stderrSetPortDirection+0x80>
		case MDIO_PORTC: GPIOC -> DDR = ARG_u8Direction; break;
     bae:	e3 e3       	ldi	r30, 0x33	; 51
     bb0:	f0 e0       	ldi	r31, 0x00	; 0
     bb2:	8b 81       	ldd	r24, Y+3	; 0x03
     bb4:	81 83       	std	Z+1, r24	; 0x01
     bb6:	07 c0       	rjmp	.+14     	; 0xbc6 <MDIO_stderrSetPortDirection+0x80>
		case MDIO_PORTD: GPIOD -> DDR = ARG_u8Direction; break;
     bb8:	e0 e3       	ldi	r30, 0x30	; 48
     bba:	f0 e0       	ldi	r31, 0x00	; 0
     bbc:	8b 81       	ldd	r24, Y+3	; 0x03
     bbe:	81 83       	std	Z+1, r24	; 0x01
     bc0:	02 c0       	rjmp	.+4      	; 0xbc6 <MDIO_stderrSetPortDirection+0x80>
		default: L_stderrError = E_NOK; break; /* Report an Error */
     bc2:	81 e0       	ldi	r24, 0x01	; 1
     bc4:	89 83       	std	Y+1, r24	; 0x01
	}
	return L_stderrError;
     bc6:	89 81       	ldd	r24, Y+1	; 0x01
}
     bc8:	0f 90       	pop	r0
     bca:	0f 90       	pop	r0
     bcc:	0f 90       	pop	r0
     bce:	0f 90       	pop	r0
     bd0:	0f 90       	pop	r0
     bd2:	cf 91       	pop	r28
     bd4:	df 91       	pop	r29
     bd6:	08 95       	ret

00000bd8 <MDIO_stderrSetPortValue>:

STD_error_t MDIO_stderrSetPortValue(u8 ARG_u8Port, u8 ARG_u8Value)
{
     bd8:	df 93       	push	r29
     bda:	cf 93       	push	r28
     bdc:	00 d0       	rcall	.+0      	; 0xbde <MDIO_stderrSetPortValue+0x6>
     bde:	00 d0       	rcall	.+0      	; 0xbe0 <MDIO_stderrSetPortValue+0x8>
     be0:	0f 92       	push	r0
     be2:	cd b7       	in	r28, 0x3d	; 61
     be4:	de b7       	in	r29, 0x3e	; 62
     be6:	8a 83       	std	Y+2, r24	; 0x02
     be8:	6b 83       	std	Y+3, r22	; 0x03
	STD_error_t L_stderrError = E_OK;
     bea:	19 82       	std	Y+1, r1	; 0x01
	switch(ARG_u8Port)
     bec:	8a 81       	ldd	r24, Y+2	; 0x02
     bee:	28 2f       	mov	r18, r24
     bf0:	30 e0       	ldi	r19, 0x00	; 0
     bf2:	3d 83       	std	Y+5, r19	; 0x05
     bf4:	2c 83       	std	Y+4, r18	; 0x04
     bf6:	8c 81       	ldd	r24, Y+4	; 0x04
     bf8:	9d 81       	ldd	r25, Y+5	; 0x05
     bfa:	82 30       	cpi	r24, 0x02	; 2
     bfc:	91 05       	cpc	r25, r1
     bfe:	d9 f0       	breq	.+54     	; 0xc36 <MDIO_stderrSetPortValue+0x5e>
     c00:	2c 81       	ldd	r18, Y+4	; 0x04
     c02:	3d 81       	ldd	r19, Y+5	; 0x05
     c04:	23 30       	cpi	r18, 0x03	; 3
     c06:	31 05       	cpc	r19, r1
     c08:	34 f4       	brge	.+12     	; 0xc16 <MDIO_stderrSetPortValue+0x3e>
     c0a:	8c 81       	ldd	r24, Y+4	; 0x04
     c0c:	9d 81       	ldd	r25, Y+5	; 0x05
     c0e:	81 30       	cpi	r24, 0x01	; 1
     c10:	91 05       	cpc	r25, r1
     c12:	61 f0       	breq	.+24     	; 0xc2c <MDIO_stderrSetPortValue+0x54>
     c14:	1f c0       	rjmp	.+62     	; 0xc54 <MDIO_stderrSetPortValue+0x7c>
     c16:	2c 81       	ldd	r18, Y+4	; 0x04
     c18:	3d 81       	ldd	r19, Y+5	; 0x05
     c1a:	23 30       	cpi	r18, 0x03	; 3
     c1c:	31 05       	cpc	r19, r1
     c1e:	81 f0       	breq	.+32     	; 0xc40 <MDIO_stderrSetPortValue+0x68>
     c20:	8c 81       	ldd	r24, Y+4	; 0x04
     c22:	9d 81       	ldd	r25, Y+5	; 0x05
     c24:	84 30       	cpi	r24, 0x04	; 4
     c26:	91 05       	cpc	r25, r1
     c28:	81 f0       	breq	.+32     	; 0xc4a <MDIO_stderrSetPortValue+0x72>
     c2a:	14 c0       	rjmp	.+40     	; 0xc54 <MDIO_stderrSetPortValue+0x7c>
	{
		case MDIO_PORTA: GPIOA -> PORT = ARG_u8Value; break;
     c2c:	e9 e3       	ldi	r30, 0x39	; 57
     c2e:	f0 e0       	ldi	r31, 0x00	; 0
     c30:	8b 81       	ldd	r24, Y+3	; 0x03
     c32:	82 83       	std	Z+2, r24	; 0x02
     c34:	11 c0       	rjmp	.+34     	; 0xc58 <MDIO_stderrSetPortValue+0x80>
		case MDIO_PORTB: GPIOB -> PORT = ARG_u8Value; break;
     c36:	e6 e3       	ldi	r30, 0x36	; 54
     c38:	f0 e0       	ldi	r31, 0x00	; 0
     c3a:	8b 81       	ldd	r24, Y+3	; 0x03
     c3c:	82 83       	std	Z+2, r24	; 0x02
     c3e:	0c c0       	rjmp	.+24     	; 0xc58 <MDIO_stderrSetPortValue+0x80>
		case MDIO_PORTC: GPIOC -> PORT = ARG_u8Value; break;
     c40:	e3 e3       	ldi	r30, 0x33	; 51
     c42:	f0 e0       	ldi	r31, 0x00	; 0
     c44:	8b 81       	ldd	r24, Y+3	; 0x03
     c46:	82 83       	std	Z+2, r24	; 0x02
     c48:	07 c0       	rjmp	.+14     	; 0xc58 <MDIO_stderrSetPortValue+0x80>
		case MDIO_PORTD: GPIOD -> PORT = ARG_u8Value; break;
     c4a:	e0 e3       	ldi	r30, 0x30	; 48
     c4c:	f0 e0       	ldi	r31, 0x00	; 0
     c4e:	8b 81       	ldd	r24, Y+3	; 0x03
     c50:	82 83       	std	Z+2, r24	; 0x02
     c52:	02 c0       	rjmp	.+4      	; 0xc58 <MDIO_stderrSetPortValue+0x80>
		default: L_stderrError = E_NOK; break; /* Report an Error */
     c54:	81 e0       	ldi	r24, 0x01	; 1
     c56:	89 83       	std	Y+1, r24	; 0x01
	}
	return L_stderrError;
     c58:	89 81       	ldd	r24, Y+1	; 0x01
}
     c5a:	0f 90       	pop	r0
     c5c:	0f 90       	pop	r0
     c5e:	0f 90       	pop	r0
     c60:	0f 90       	pop	r0
     c62:	0f 90       	pop	r0
     c64:	cf 91       	pop	r28
     c66:	df 91       	pop	r29
     c68:	08 95       	ret

00000c6a <MDIO_stderrGetPortValue>:

STD_error_t	MDIO_stderrGetPortValue(u8* ARG_u8pValue, u8 ARG_u8Port)
{
     c6a:	df 93       	push	r29
     c6c:	cf 93       	push	r28
     c6e:	00 d0       	rcall	.+0      	; 0xc70 <MDIO_stderrGetPortValue+0x6>
     c70:	00 d0       	rcall	.+0      	; 0xc72 <MDIO_stderrGetPortValue+0x8>
     c72:	00 d0       	rcall	.+0      	; 0xc74 <MDIO_stderrGetPortValue+0xa>
     c74:	cd b7       	in	r28, 0x3d	; 61
     c76:	de b7       	in	r29, 0x3e	; 62
     c78:	9b 83       	std	Y+3, r25	; 0x03
     c7a:	8a 83       	std	Y+2, r24	; 0x02
     c7c:	6c 83       	std	Y+4, r22	; 0x04
	STD_error_t L_stderrError = E_OK;
     c7e:	19 82       	std	Y+1, r1	; 0x01
	switch(ARG_u8Port)
     c80:	8c 81       	ldd	r24, Y+4	; 0x04
     c82:	28 2f       	mov	r18, r24
     c84:	30 e0       	ldi	r19, 0x00	; 0
     c86:	3e 83       	std	Y+6, r19	; 0x06
     c88:	2d 83       	std	Y+5, r18	; 0x05
     c8a:	8d 81       	ldd	r24, Y+5	; 0x05
     c8c:	9e 81       	ldd	r25, Y+6	; 0x06
     c8e:	82 30       	cpi	r24, 0x02	; 2
     c90:	91 05       	cpc	r25, r1
     c92:	e9 f0       	breq	.+58     	; 0xcce <MDIO_stderrGetPortValue+0x64>
     c94:	2d 81       	ldd	r18, Y+5	; 0x05
     c96:	3e 81       	ldd	r19, Y+6	; 0x06
     c98:	23 30       	cpi	r18, 0x03	; 3
     c9a:	31 05       	cpc	r19, r1
     c9c:	34 f4       	brge	.+12     	; 0xcaa <MDIO_stderrGetPortValue+0x40>
     c9e:	8d 81       	ldd	r24, Y+5	; 0x05
     ca0:	9e 81       	ldd	r25, Y+6	; 0x06
     ca2:	81 30       	cpi	r24, 0x01	; 1
     ca4:	91 05       	cpc	r25, r1
     ca6:	61 f0       	breq	.+24     	; 0xcc0 <MDIO_stderrGetPortValue+0x56>
     ca8:	27 c0       	rjmp	.+78     	; 0xcf8 <MDIO_stderrGetPortValue+0x8e>
     caa:	2d 81       	ldd	r18, Y+5	; 0x05
     cac:	3e 81       	ldd	r19, Y+6	; 0x06
     cae:	23 30       	cpi	r18, 0x03	; 3
     cb0:	31 05       	cpc	r19, r1
     cb2:	a1 f0       	breq	.+40     	; 0xcdc <MDIO_stderrGetPortValue+0x72>
     cb4:	8d 81       	ldd	r24, Y+5	; 0x05
     cb6:	9e 81       	ldd	r25, Y+6	; 0x06
     cb8:	84 30       	cpi	r24, 0x04	; 4
     cba:	91 05       	cpc	r25, r1
     cbc:	b1 f0       	breq	.+44     	; 0xcea <MDIO_stderrGetPortValue+0x80>
     cbe:	1c c0       	rjmp	.+56     	; 0xcf8 <MDIO_stderrGetPortValue+0x8e>
	{
		case MDIO_PORTA: *ARG_u8pValue = GPIOA -> PIN; break;
     cc0:	e9 e3       	ldi	r30, 0x39	; 57
     cc2:	f0 e0       	ldi	r31, 0x00	; 0
     cc4:	80 81       	ld	r24, Z
     cc6:	ea 81       	ldd	r30, Y+2	; 0x02
     cc8:	fb 81       	ldd	r31, Y+3	; 0x03
     cca:	80 83       	st	Z, r24
     ccc:	17 c0       	rjmp	.+46     	; 0xcfc <MDIO_stderrGetPortValue+0x92>
        case MDIO_PORTB: *ARG_u8pValue = GPIOB -> PIN; break;
     cce:	e6 e3       	ldi	r30, 0x36	; 54
     cd0:	f0 e0       	ldi	r31, 0x00	; 0
     cd2:	80 81       	ld	r24, Z
     cd4:	ea 81       	ldd	r30, Y+2	; 0x02
     cd6:	fb 81       	ldd	r31, Y+3	; 0x03
     cd8:	80 83       	st	Z, r24
     cda:	10 c0       	rjmp	.+32     	; 0xcfc <MDIO_stderrGetPortValue+0x92>
        case MDIO_PORTC: *ARG_u8pValue = GPIOC -> PIN; break;
     cdc:	e3 e3       	ldi	r30, 0x33	; 51
     cde:	f0 e0       	ldi	r31, 0x00	; 0
     ce0:	80 81       	ld	r24, Z
     ce2:	ea 81       	ldd	r30, Y+2	; 0x02
     ce4:	fb 81       	ldd	r31, Y+3	; 0x03
     ce6:	80 83       	st	Z, r24
     ce8:	09 c0       	rjmp	.+18     	; 0xcfc <MDIO_stderrGetPortValue+0x92>
        case MDIO_PORTD: *ARG_u8pValue = GPIOD -> PIN; break;
     cea:	e0 e3       	ldi	r30, 0x30	; 48
     cec:	f0 e0       	ldi	r31, 0x00	; 0
     cee:	80 81       	ld	r24, Z
     cf0:	ea 81       	ldd	r30, Y+2	; 0x02
     cf2:	fb 81       	ldd	r31, Y+3	; 0x03
     cf4:	80 83       	st	Z, r24
     cf6:	02 c0       	rjmp	.+4      	; 0xcfc <MDIO_stderrGetPortValue+0x92>
        default: L_stderrError = E_NOK; break; /* Report an Error */
     cf8:	81 e0       	ldi	r24, 0x01	; 1
     cfa:	89 83       	std	Y+1, r24	; 0x01
	}
	return L_stderrError;
     cfc:	89 81       	ldd	r24, Y+1	; 0x01
}
     cfe:	26 96       	adiw	r28, 0x06	; 6
     d00:	0f b6       	in	r0, 0x3f	; 63
     d02:	f8 94       	cli
     d04:	de bf       	out	0x3e, r29	; 62
     d06:	0f be       	out	0x3f, r0	; 63
     d08:	cd bf       	out	0x3d, r28	; 61
     d0a:	cf 91       	pop	r28
     d0c:	df 91       	pop	r29
     d0e:	08 95       	ret

00000d10 <MDIO_stderrSetPinDirection>:

STD_error_t MDIO_stderrSetPinDirection(u8 ARG_u8Port, u8 ARG_u8Pin, u8 ARG_u8Direction)
{
     d10:	df 93       	push	r29
     d12:	cf 93       	push	r28
     d14:	cd b7       	in	r28, 0x3d	; 61
     d16:	de b7       	in	r29, 0x3e	; 62
     d18:	2a 97       	sbiw	r28, 0x0a	; 10
     d1a:	0f b6       	in	r0, 0x3f	; 63
     d1c:	f8 94       	cli
     d1e:	de bf       	out	0x3e, r29	; 62
     d20:	0f be       	out	0x3f, r0	; 63
     d22:	cd bf       	out	0x3d, r28	; 61
     d24:	8a 83       	std	Y+2, r24	; 0x02
     d26:	6b 83       	std	Y+3, r22	; 0x03
     d28:	4c 83       	std	Y+4, r20	; 0x04
	STD_error_t L_stderrError = E_OK;
     d2a:	19 82       	std	Y+1, r1	; 0x01
	if((ARG_u8Pin>=MDIO_PIN0) && (ARG_u8Pin<=MDIO_PIN7))
     d2c:	8b 81       	ldd	r24, Y+3	; 0x03
     d2e:	88 30       	cpi	r24, 0x08	; 8
     d30:	08 f0       	brcs	.+2      	; 0xd34 <MDIO_stderrSetPinDirection+0x24>
     d32:	d9 c1       	rjmp	.+946    	; 0x10e6 <MDIO_stderrSetPinDirection+0x3d6>
	{
		if(MDIO_OUTPUT == ARG_u8Direction)
     d34:	8c 81       	ldd	r24, Y+4	; 0x04
     d36:	81 30       	cpi	r24, 0x01	; 1
     d38:	09 f0       	breq	.+2      	; 0xd3c <MDIO_stderrSetPinDirection+0x2c>
     d3a:	7c c0       	rjmp	.+248    	; 0xe34 <MDIO_stderrSetPinDirection+0x124>
		{
			switch(ARG_u8Port)
     d3c:	8a 81       	ldd	r24, Y+2	; 0x02
     d3e:	28 2f       	mov	r18, r24
     d40:	30 e0       	ldi	r19, 0x00	; 0
     d42:	3a 87       	std	Y+10, r19	; 0x0a
     d44:	29 87       	std	Y+9, r18	; 0x09
     d46:	89 85       	ldd	r24, Y+9	; 0x09
     d48:	9a 85       	ldd	r25, Y+10	; 0x0a
     d4a:	82 30       	cpi	r24, 0x02	; 2
     d4c:	91 05       	cpc	r25, r1
     d4e:	69 f1       	breq	.+90     	; 0xdaa <MDIO_stderrSetPinDirection+0x9a>
     d50:	29 85       	ldd	r18, Y+9	; 0x09
     d52:	3a 85       	ldd	r19, Y+10	; 0x0a
     d54:	23 30       	cpi	r18, 0x03	; 3
     d56:	31 05       	cpc	r19, r1
     d58:	34 f4       	brge	.+12     	; 0xd66 <MDIO_stderrSetPinDirection+0x56>
     d5a:	89 85       	ldd	r24, Y+9	; 0x09
     d5c:	9a 85       	ldd	r25, Y+10	; 0x0a
     d5e:	81 30       	cpi	r24, 0x01	; 1
     d60:	91 05       	cpc	r25, r1
     d62:	69 f0       	breq	.+26     	; 0xd7e <MDIO_stderrSetPinDirection+0x6e>
     d64:	64 c0       	rjmp	.+200    	; 0xe2e <MDIO_stderrSetPinDirection+0x11e>
     d66:	29 85       	ldd	r18, Y+9	; 0x09
     d68:	3a 85       	ldd	r19, Y+10	; 0x0a
     d6a:	23 30       	cpi	r18, 0x03	; 3
     d6c:	31 05       	cpc	r19, r1
     d6e:	99 f1       	breq	.+102    	; 0xdd6 <MDIO_stderrSetPinDirection+0xc6>
     d70:	89 85       	ldd	r24, Y+9	; 0x09
     d72:	9a 85       	ldd	r25, Y+10	; 0x0a
     d74:	84 30       	cpi	r24, 0x04	; 4
     d76:	91 05       	cpc	r25, r1
     d78:	09 f4       	brne	.+2      	; 0xd7c <MDIO_stderrSetPinDirection+0x6c>
     d7a:	43 c0       	rjmp	.+134    	; 0xe02 <MDIO_stderrSetPinDirection+0xf2>
     d7c:	58 c0       	rjmp	.+176    	; 0xe2e <MDIO_stderrSetPinDirection+0x11e>
			{
				case MDIO_PORTA: SET_BIT(GPIOA -> DDR, ARG_u8Pin); break;
     d7e:	a9 e3       	ldi	r26, 0x39	; 57
     d80:	b0 e0       	ldi	r27, 0x00	; 0
     d82:	e9 e3       	ldi	r30, 0x39	; 57
     d84:	f0 e0       	ldi	r31, 0x00	; 0
     d86:	81 81       	ldd	r24, Z+1	; 0x01
     d88:	48 2f       	mov	r20, r24
     d8a:	8b 81       	ldd	r24, Y+3	; 0x03
     d8c:	28 2f       	mov	r18, r24
     d8e:	30 e0       	ldi	r19, 0x00	; 0
     d90:	81 e0       	ldi	r24, 0x01	; 1
     d92:	90 e0       	ldi	r25, 0x00	; 0
     d94:	02 2e       	mov	r0, r18
     d96:	02 c0       	rjmp	.+4      	; 0xd9c <MDIO_stderrSetPinDirection+0x8c>
     d98:	88 0f       	add	r24, r24
     d9a:	99 1f       	adc	r25, r25
     d9c:	0a 94       	dec	r0
     d9e:	e2 f7       	brpl	.-8      	; 0xd98 <MDIO_stderrSetPinDirection+0x88>
     da0:	84 2b       	or	r24, r20
     da2:	11 96       	adiw	r26, 0x01	; 1
     da4:	8c 93       	st	X, r24
     da6:	11 97       	sbiw	r26, 0x01	; 1
     da8:	a0 c1       	rjmp	.+832    	; 0x10ea <MDIO_stderrSetPinDirection+0x3da>
				case MDIO_PORTB: SET_BIT(GPIOB -> DDR, ARG_u8Pin); break;
     daa:	a6 e3       	ldi	r26, 0x36	; 54
     dac:	b0 e0       	ldi	r27, 0x00	; 0
     dae:	e6 e3       	ldi	r30, 0x36	; 54
     db0:	f0 e0       	ldi	r31, 0x00	; 0
     db2:	81 81       	ldd	r24, Z+1	; 0x01
     db4:	48 2f       	mov	r20, r24
     db6:	8b 81       	ldd	r24, Y+3	; 0x03
     db8:	28 2f       	mov	r18, r24
     dba:	30 e0       	ldi	r19, 0x00	; 0
     dbc:	81 e0       	ldi	r24, 0x01	; 1
     dbe:	90 e0       	ldi	r25, 0x00	; 0
     dc0:	02 2e       	mov	r0, r18
     dc2:	02 c0       	rjmp	.+4      	; 0xdc8 <MDIO_stderrSetPinDirection+0xb8>
     dc4:	88 0f       	add	r24, r24
     dc6:	99 1f       	adc	r25, r25
     dc8:	0a 94       	dec	r0
     dca:	e2 f7       	brpl	.-8      	; 0xdc4 <MDIO_stderrSetPinDirection+0xb4>
     dcc:	84 2b       	or	r24, r20
     dce:	11 96       	adiw	r26, 0x01	; 1
     dd0:	8c 93       	st	X, r24
     dd2:	11 97       	sbiw	r26, 0x01	; 1
     dd4:	8a c1       	rjmp	.+788    	; 0x10ea <MDIO_stderrSetPinDirection+0x3da>
				case MDIO_PORTC: SET_BIT(GPIOC -> DDR, ARG_u8Pin); break;
     dd6:	a3 e3       	ldi	r26, 0x33	; 51
     dd8:	b0 e0       	ldi	r27, 0x00	; 0
     dda:	e3 e3       	ldi	r30, 0x33	; 51
     ddc:	f0 e0       	ldi	r31, 0x00	; 0
     dde:	81 81       	ldd	r24, Z+1	; 0x01
     de0:	48 2f       	mov	r20, r24
     de2:	8b 81       	ldd	r24, Y+3	; 0x03
     de4:	28 2f       	mov	r18, r24
     de6:	30 e0       	ldi	r19, 0x00	; 0
     de8:	81 e0       	ldi	r24, 0x01	; 1
     dea:	90 e0       	ldi	r25, 0x00	; 0
     dec:	02 2e       	mov	r0, r18
     dee:	02 c0       	rjmp	.+4      	; 0xdf4 <MDIO_stderrSetPinDirection+0xe4>
     df0:	88 0f       	add	r24, r24
     df2:	99 1f       	adc	r25, r25
     df4:	0a 94       	dec	r0
     df6:	e2 f7       	brpl	.-8      	; 0xdf0 <MDIO_stderrSetPinDirection+0xe0>
     df8:	84 2b       	or	r24, r20
     dfa:	11 96       	adiw	r26, 0x01	; 1
     dfc:	8c 93       	st	X, r24
     dfe:	11 97       	sbiw	r26, 0x01	; 1
     e00:	74 c1       	rjmp	.+744    	; 0x10ea <MDIO_stderrSetPinDirection+0x3da>
				case MDIO_PORTD: SET_BIT(GPIOD -> DDR, ARG_u8Pin); break;
     e02:	a0 e3       	ldi	r26, 0x30	; 48
     e04:	b0 e0       	ldi	r27, 0x00	; 0
     e06:	e0 e3       	ldi	r30, 0x30	; 48
     e08:	f0 e0       	ldi	r31, 0x00	; 0
     e0a:	81 81       	ldd	r24, Z+1	; 0x01
     e0c:	48 2f       	mov	r20, r24
     e0e:	8b 81       	ldd	r24, Y+3	; 0x03
     e10:	28 2f       	mov	r18, r24
     e12:	30 e0       	ldi	r19, 0x00	; 0
     e14:	81 e0       	ldi	r24, 0x01	; 1
     e16:	90 e0       	ldi	r25, 0x00	; 0
     e18:	02 2e       	mov	r0, r18
     e1a:	02 c0       	rjmp	.+4      	; 0xe20 <MDIO_stderrSetPinDirection+0x110>
     e1c:	88 0f       	add	r24, r24
     e1e:	99 1f       	adc	r25, r25
     e20:	0a 94       	dec	r0
     e22:	e2 f7       	brpl	.-8      	; 0xe1c <MDIO_stderrSetPinDirection+0x10c>
     e24:	84 2b       	or	r24, r20
     e26:	11 96       	adiw	r26, 0x01	; 1
     e28:	8c 93       	st	X, r24
     e2a:	11 97       	sbiw	r26, 0x01	; 1
     e2c:	5e c1       	rjmp	.+700    	; 0x10ea <MDIO_stderrSetPinDirection+0x3da>
				default: L_stderrError = E_NOK; break; /* Report an Error */
     e2e:	81 e0       	ldi	r24, 0x01	; 1
     e30:	89 83       	std	Y+1, r24	; 0x01
     e32:	5b c1       	rjmp	.+694    	; 0x10ea <MDIO_stderrSetPinDirection+0x3da>
			}
		}
		else if(MDIO_INPUT == ARG_u8Direction)
     e34:	8c 81       	ldd	r24, Y+4	; 0x04
     e36:	82 30       	cpi	r24, 0x02	; 2
     e38:	09 f0       	breq	.+2      	; 0xe3c <MDIO_stderrSetPinDirection+0x12c>
     e3a:	80 c0       	rjmp	.+256    	; 0xf3c <MDIO_stderrSetPinDirection+0x22c>
		{
			switch(ARG_u8Port)
     e3c:	8a 81       	ldd	r24, Y+2	; 0x02
     e3e:	28 2f       	mov	r18, r24
     e40:	30 e0       	ldi	r19, 0x00	; 0
     e42:	38 87       	std	Y+8, r19	; 0x08
     e44:	2f 83       	std	Y+7, r18	; 0x07
     e46:	8f 81       	ldd	r24, Y+7	; 0x07
     e48:	98 85       	ldd	r25, Y+8	; 0x08
     e4a:	82 30       	cpi	r24, 0x02	; 2
     e4c:	91 05       	cpc	r25, r1
     e4e:	71 f1       	breq	.+92     	; 0xeac <MDIO_stderrSetPinDirection+0x19c>
     e50:	2f 81       	ldd	r18, Y+7	; 0x07
     e52:	38 85       	ldd	r19, Y+8	; 0x08
     e54:	23 30       	cpi	r18, 0x03	; 3
     e56:	31 05       	cpc	r19, r1
     e58:	34 f4       	brge	.+12     	; 0xe66 <MDIO_stderrSetPinDirection+0x156>
     e5a:	8f 81       	ldd	r24, Y+7	; 0x07
     e5c:	98 85       	ldd	r25, Y+8	; 0x08
     e5e:	81 30       	cpi	r24, 0x01	; 1
     e60:	91 05       	cpc	r25, r1
     e62:	69 f0       	breq	.+26     	; 0xe7e <MDIO_stderrSetPinDirection+0x16e>
     e64:	68 c0       	rjmp	.+208    	; 0xf36 <MDIO_stderrSetPinDirection+0x226>
     e66:	2f 81       	ldd	r18, Y+7	; 0x07
     e68:	38 85       	ldd	r19, Y+8	; 0x08
     e6a:	23 30       	cpi	r18, 0x03	; 3
     e6c:	31 05       	cpc	r19, r1
     e6e:	a9 f1       	breq	.+106    	; 0xeda <MDIO_stderrSetPinDirection+0x1ca>
     e70:	8f 81       	ldd	r24, Y+7	; 0x07
     e72:	98 85       	ldd	r25, Y+8	; 0x08
     e74:	84 30       	cpi	r24, 0x04	; 4
     e76:	91 05       	cpc	r25, r1
     e78:	09 f4       	brne	.+2      	; 0xe7c <MDIO_stderrSetPinDirection+0x16c>
     e7a:	46 c0       	rjmp	.+140    	; 0xf08 <MDIO_stderrSetPinDirection+0x1f8>
     e7c:	5c c0       	rjmp	.+184    	; 0xf36 <MDIO_stderrSetPinDirection+0x226>
			{
				case MDIO_PORTA: CLEAR_BIT(GPIOA -> DDR, ARG_u8Pin); break;
     e7e:	a9 e3       	ldi	r26, 0x39	; 57
     e80:	b0 e0       	ldi	r27, 0x00	; 0
     e82:	e9 e3       	ldi	r30, 0x39	; 57
     e84:	f0 e0       	ldi	r31, 0x00	; 0
     e86:	81 81       	ldd	r24, Z+1	; 0x01
     e88:	48 2f       	mov	r20, r24
     e8a:	8b 81       	ldd	r24, Y+3	; 0x03
     e8c:	28 2f       	mov	r18, r24
     e8e:	30 e0       	ldi	r19, 0x00	; 0
     e90:	81 e0       	ldi	r24, 0x01	; 1
     e92:	90 e0       	ldi	r25, 0x00	; 0
     e94:	02 2e       	mov	r0, r18
     e96:	02 c0       	rjmp	.+4      	; 0xe9c <MDIO_stderrSetPinDirection+0x18c>
     e98:	88 0f       	add	r24, r24
     e9a:	99 1f       	adc	r25, r25
     e9c:	0a 94       	dec	r0
     e9e:	e2 f7       	brpl	.-8      	; 0xe98 <MDIO_stderrSetPinDirection+0x188>
     ea0:	80 95       	com	r24
     ea2:	84 23       	and	r24, r20
     ea4:	11 96       	adiw	r26, 0x01	; 1
     ea6:	8c 93       	st	X, r24
     ea8:	11 97       	sbiw	r26, 0x01	; 1
     eaa:	1f c1       	rjmp	.+574    	; 0x10ea <MDIO_stderrSetPinDirection+0x3da>
				case MDIO_PORTB: CLEAR_BIT(GPIOB -> DDR, ARG_u8Pin); break;
     eac:	a6 e3       	ldi	r26, 0x36	; 54
     eae:	b0 e0       	ldi	r27, 0x00	; 0
     eb0:	e6 e3       	ldi	r30, 0x36	; 54
     eb2:	f0 e0       	ldi	r31, 0x00	; 0
     eb4:	81 81       	ldd	r24, Z+1	; 0x01
     eb6:	48 2f       	mov	r20, r24
     eb8:	8b 81       	ldd	r24, Y+3	; 0x03
     eba:	28 2f       	mov	r18, r24
     ebc:	30 e0       	ldi	r19, 0x00	; 0
     ebe:	81 e0       	ldi	r24, 0x01	; 1
     ec0:	90 e0       	ldi	r25, 0x00	; 0
     ec2:	02 2e       	mov	r0, r18
     ec4:	02 c0       	rjmp	.+4      	; 0xeca <MDIO_stderrSetPinDirection+0x1ba>
     ec6:	88 0f       	add	r24, r24
     ec8:	99 1f       	adc	r25, r25
     eca:	0a 94       	dec	r0
     ecc:	e2 f7       	brpl	.-8      	; 0xec6 <MDIO_stderrSetPinDirection+0x1b6>
     ece:	80 95       	com	r24
     ed0:	84 23       	and	r24, r20
     ed2:	11 96       	adiw	r26, 0x01	; 1
     ed4:	8c 93       	st	X, r24
     ed6:	11 97       	sbiw	r26, 0x01	; 1
     ed8:	08 c1       	rjmp	.+528    	; 0x10ea <MDIO_stderrSetPinDirection+0x3da>
				case MDIO_PORTC: CLEAR_BIT(GPIOC -> DDR, ARG_u8Pin); break;
     eda:	a3 e3       	ldi	r26, 0x33	; 51
     edc:	b0 e0       	ldi	r27, 0x00	; 0
     ede:	e3 e3       	ldi	r30, 0x33	; 51
     ee0:	f0 e0       	ldi	r31, 0x00	; 0
     ee2:	81 81       	ldd	r24, Z+1	; 0x01
     ee4:	48 2f       	mov	r20, r24
     ee6:	8b 81       	ldd	r24, Y+3	; 0x03
     ee8:	28 2f       	mov	r18, r24
     eea:	30 e0       	ldi	r19, 0x00	; 0
     eec:	81 e0       	ldi	r24, 0x01	; 1
     eee:	90 e0       	ldi	r25, 0x00	; 0
     ef0:	02 2e       	mov	r0, r18
     ef2:	02 c0       	rjmp	.+4      	; 0xef8 <MDIO_stderrSetPinDirection+0x1e8>
     ef4:	88 0f       	add	r24, r24
     ef6:	99 1f       	adc	r25, r25
     ef8:	0a 94       	dec	r0
     efa:	e2 f7       	brpl	.-8      	; 0xef4 <MDIO_stderrSetPinDirection+0x1e4>
     efc:	80 95       	com	r24
     efe:	84 23       	and	r24, r20
     f00:	11 96       	adiw	r26, 0x01	; 1
     f02:	8c 93       	st	X, r24
     f04:	11 97       	sbiw	r26, 0x01	; 1
     f06:	f1 c0       	rjmp	.+482    	; 0x10ea <MDIO_stderrSetPinDirection+0x3da>
				case MDIO_PORTD: CLEAR_BIT(GPIOD -> DDR, ARG_u8Pin); break;
     f08:	a0 e3       	ldi	r26, 0x30	; 48
     f0a:	b0 e0       	ldi	r27, 0x00	; 0
     f0c:	e0 e3       	ldi	r30, 0x30	; 48
     f0e:	f0 e0       	ldi	r31, 0x00	; 0
     f10:	81 81       	ldd	r24, Z+1	; 0x01
     f12:	48 2f       	mov	r20, r24
     f14:	8b 81       	ldd	r24, Y+3	; 0x03
     f16:	28 2f       	mov	r18, r24
     f18:	30 e0       	ldi	r19, 0x00	; 0
     f1a:	81 e0       	ldi	r24, 0x01	; 1
     f1c:	90 e0       	ldi	r25, 0x00	; 0
     f1e:	02 2e       	mov	r0, r18
     f20:	02 c0       	rjmp	.+4      	; 0xf26 <MDIO_stderrSetPinDirection+0x216>
     f22:	88 0f       	add	r24, r24
     f24:	99 1f       	adc	r25, r25
     f26:	0a 94       	dec	r0
     f28:	e2 f7       	brpl	.-8      	; 0xf22 <MDIO_stderrSetPinDirection+0x212>
     f2a:	80 95       	com	r24
     f2c:	84 23       	and	r24, r20
     f2e:	11 96       	adiw	r26, 0x01	; 1
     f30:	8c 93       	st	X, r24
     f32:	11 97       	sbiw	r26, 0x01	; 1
     f34:	da c0       	rjmp	.+436    	; 0x10ea <MDIO_stderrSetPinDirection+0x3da>
				default: L_stderrError = E_NOK; break; /* Report an Error */
     f36:	81 e0       	ldi	r24, 0x01	; 1
     f38:	89 83       	std	Y+1, r24	; 0x01
     f3a:	d7 c0       	rjmp	.+430    	; 0x10ea <MDIO_stderrSetPinDirection+0x3da>
			}
		}
		else if(MDIO_INPUT_PULLUP == ARG_u8Direction)
     f3c:	8c 81       	ldd	r24, Y+4	; 0x04
     f3e:	83 30       	cpi	r24, 0x03	; 3
     f40:	09 f0       	breq	.+2      	; 0xf44 <MDIO_stderrSetPinDirection+0x234>
     f42:	ce c0       	rjmp	.+412    	; 0x10e0 <MDIO_stderrSetPinDirection+0x3d0>
		{
			switch(ARG_u8Port)
     f44:	8a 81       	ldd	r24, Y+2	; 0x02
     f46:	28 2f       	mov	r18, r24
     f48:	30 e0       	ldi	r19, 0x00	; 0
     f4a:	3e 83       	std	Y+6, r19	; 0x06
     f4c:	2d 83       	std	Y+5, r18	; 0x05
     f4e:	8d 81       	ldd	r24, Y+5	; 0x05
     f50:	9e 81       	ldd	r25, Y+6	; 0x06
     f52:	82 30       	cpi	r24, 0x02	; 2
     f54:	91 05       	cpc	r25, r1
     f56:	09 f4       	brne	.+2      	; 0xf5a <MDIO_stderrSetPinDirection+0x24a>
     f58:	42 c0       	rjmp	.+132    	; 0xfde <MDIO_stderrSetPinDirection+0x2ce>
     f5a:	2d 81       	ldd	r18, Y+5	; 0x05
     f5c:	3e 81       	ldd	r19, Y+6	; 0x06
     f5e:	23 30       	cpi	r18, 0x03	; 3
     f60:	31 05       	cpc	r19, r1
     f62:	34 f4       	brge	.+12     	; 0xf70 <MDIO_stderrSetPinDirection+0x260>
     f64:	8d 81       	ldd	r24, Y+5	; 0x05
     f66:	9e 81       	ldd	r25, Y+6	; 0x06
     f68:	81 30       	cpi	r24, 0x01	; 1
     f6a:	91 05       	cpc	r25, r1
     f6c:	71 f0       	breq	.+28     	; 0xf8a <MDIO_stderrSetPinDirection+0x27a>
     f6e:	b5 c0       	rjmp	.+362    	; 0x10da <MDIO_stderrSetPinDirection+0x3ca>
     f70:	2d 81       	ldd	r18, Y+5	; 0x05
     f72:	3e 81       	ldd	r19, Y+6	; 0x06
     f74:	23 30       	cpi	r18, 0x03	; 3
     f76:	31 05       	cpc	r19, r1
     f78:	09 f4       	brne	.+2      	; 0xf7c <MDIO_stderrSetPinDirection+0x26c>
     f7a:	5b c0       	rjmp	.+182    	; 0x1032 <MDIO_stderrSetPinDirection+0x322>
     f7c:	8d 81       	ldd	r24, Y+5	; 0x05
     f7e:	9e 81       	ldd	r25, Y+6	; 0x06
     f80:	84 30       	cpi	r24, 0x04	; 4
     f82:	91 05       	cpc	r25, r1
     f84:	09 f4       	brne	.+2      	; 0xf88 <MDIO_stderrSetPinDirection+0x278>
     f86:	7f c0       	rjmp	.+254    	; 0x1086 <MDIO_stderrSetPinDirection+0x376>
     f88:	a8 c0       	rjmp	.+336    	; 0x10da <MDIO_stderrSetPinDirection+0x3ca>
			{
				case MDIO_PORTA: CLEAR_BIT(GPIOA -> DDR, ARG_u8Pin); SET_BIT(GPIOA -> PORT, ARG_u8Pin); break;
     f8a:	a9 e3       	ldi	r26, 0x39	; 57
     f8c:	b0 e0       	ldi	r27, 0x00	; 0
     f8e:	e9 e3       	ldi	r30, 0x39	; 57
     f90:	f0 e0       	ldi	r31, 0x00	; 0
     f92:	81 81       	ldd	r24, Z+1	; 0x01
     f94:	48 2f       	mov	r20, r24
     f96:	8b 81       	ldd	r24, Y+3	; 0x03
     f98:	28 2f       	mov	r18, r24
     f9a:	30 e0       	ldi	r19, 0x00	; 0
     f9c:	81 e0       	ldi	r24, 0x01	; 1
     f9e:	90 e0       	ldi	r25, 0x00	; 0
     fa0:	02 c0       	rjmp	.+4      	; 0xfa6 <MDIO_stderrSetPinDirection+0x296>
     fa2:	88 0f       	add	r24, r24
     fa4:	99 1f       	adc	r25, r25
     fa6:	2a 95       	dec	r18
     fa8:	e2 f7       	brpl	.-8      	; 0xfa2 <MDIO_stderrSetPinDirection+0x292>
     faa:	80 95       	com	r24
     fac:	84 23       	and	r24, r20
     fae:	11 96       	adiw	r26, 0x01	; 1
     fb0:	8c 93       	st	X, r24
     fb2:	a9 e3       	ldi	r26, 0x39	; 57
     fb4:	b0 e0       	ldi	r27, 0x00	; 0
     fb6:	e9 e3       	ldi	r30, 0x39	; 57
     fb8:	f0 e0       	ldi	r31, 0x00	; 0
     fba:	82 81       	ldd	r24, Z+2	; 0x02
     fbc:	48 2f       	mov	r20, r24
     fbe:	8b 81       	ldd	r24, Y+3	; 0x03
     fc0:	28 2f       	mov	r18, r24
     fc2:	30 e0       	ldi	r19, 0x00	; 0
     fc4:	81 e0       	ldi	r24, 0x01	; 1
     fc6:	90 e0       	ldi	r25, 0x00	; 0
     fc8:	02 2e       	mov	r0, r18
     fca:	02 c0       	rjmp	.+4      	; 0xfd0 <MDIO_stderrSetPinDirection+0x2c0>
     fcc:	88 0f       	add	r24, r24
     fce:	99 1f       	adc	r25, r25
     fd0:	0a 94       	dec	r0
     fd2:	e2 f7       	brpl	.-8      	; 0xfcc <MDIO_stderrSetPinDirection+0x2bc>
     fd4:	84 2b       	or	r24, r20
     fd6:	12 96       	adiw	r26, 0x02	; 2
     fd8:	8c 93       	st	X, r24
     fda:	12 97       	sbiw	r26, 0x02	; 2
     fdc:	86 c0       	rjmp	.+268    	; 0x10ea <MDIO_stderrSetPinDirection+0x3da>
				case MDIO_PORTB: CLEAR_BIT(GPIOB -> DDR, ARG_u8Pin); SET_BIT(GPIOB -> PORT, ARG_u8Pin); break;
     fde:	a6 e3       	ldi	r26, 0x36	; 54
     fe0:	b0 e0       	ldi	r27, 0x00	; 0
     fe2:	e6 e3       	ldi	r30, 0x36	; 54
     fe4:	f0 e0       	ldi	r31, 0x00	; 0
     fe6:	81 81       	ldd	r24, Z+1	; 0x01
     fe8:	48 2f       	mov	r20, r24
     fea:	8b 81       	ldd	r24, Y+3	; 0x03
     fec:	28 2f       	mov	r18, r24
     fee:	30 e0       	ldi	r19, 0x00	; 0
     ff0:	81 e0       	ldi	r24, 0x01	; 1
     ff2:	90 e0       	ldi	r25, 0x00	; 0
     ff4:	02 c0       	rjmp	.+4      	; 0xffa <MDIO_stderrSetPinDirection+0x2ea>
     ff6:	88 0f       	add	r24, r24
     ff8:	99 1f       	adc	r25, r25
     ffa:	2a 95       	dec	r18
     ffc:	e2 f7       	brpl	.-8      	; 0xff6 <MDIO_stderrSetPinDirection+0x2e6>
     ffe:	80 95       	com	r24
    1000:	84 23       	and	r24, r20
    1002:	11 96       	adiw	r26, 0x01	; 1
    1004:	8c 93       	st	X, r24
    1006:	a6 e3       	ldi	r26, 0x36	; 54
    1008:	b0 e0       	ldi	r27, 0x00	; 0
    100a:	e6 e3       	ldi	r30, 0x36	; 54
    100c:	f0 e0       	ldi	r31, 0x00	; 0
    100e:	82 81       	ldd	r24, Z+2	; 0x02
    1010:	48 2f       	mov	r20, r24
    1012:	8b 81       	ldd	r24, Y+3	; 0x03
    1014:	28 2f       	mov	r18, r24
    1016:	30 e0       	ldi	r19, 0x00	; 0
    1018:	81 e0       	ldi	r24, 0x01	; 1
    101a:	90 e0       	ldi	r25, 0x00	; 0
    101c:	02 2e       	mov	r0, r18
    101e:	02 c0       	rjmp	.+4      	; 0x1024 <MDIO_stderrSetPinDirection+0x314>
    1020:	88 0f       	add	r24, r24
    1022:	99 1f       	adc	r25, r25
    1024:	0a 94       	dec	r0
    1026:	e2 f7       	brpl	.-8      	; 0x1020 <MDIO_stderrSetPinDirection+0x310>
    1028:	84 2b       	or	r24, r20
    102a:	12 96       	adiw	r26, 0x02	; 2
    102c:	8c 93       	st	X, r24
    102e:	12 97       	sbiw	r26, 0x02	; 2
    1030:	5c c0       	rjmp	.+184    	; 0x10ea <MDIO_stderrSetPinDirection+0x3da>
				case MDIO_PORTC: CLEAR_BIT(GPIOC -> DDR, ARG_u8Pin); SET_BIT(GPIOC -> PORT, ARG_u8Pin); break;
    1032:	a3 e3       	ldi	r26, 0x33	; 51
    1034:	b0 e0       	ldi	r27, 0x00	; 0
    1036:	e3 e3       	ldi	r30, 0x33	; 51
    1038:	f0 e0       	ldi	r31, 0x00	; 0
    103a:	81 81       	ldd	r24, Z+1	; 0x01
    103c:	48 2f       	mov	r20, r24
    103e:	8b 81       	ldd	r24, Y+3	; 0x03
    1040:	28 2f       	mov	r18, r24
    1042:	30 e0       	ldi	r19, 0x00	; 0
    1044:	81 e0       	ldi	r24, 0x01	; 1
    1046:	90 e0       	ldi	r25, 0x00	; 0
    1048:	02 c0       	rjmp	.+4      	; 0x104e <MDIO_stderrSetPinDirection+0x33e>
    104a:	88 0f       	add	r24, r24
    104c:	99 1f       	adc	r25, r25
    104e:	2a 95       	dec	r18
    1050:	e2 f7       	brpl	.-8      	; 0x104a <MDIO_stderrSetPinDirection+0x33a>
    1052:	80 95       	com	r24
    1054:	84 23       	and	r24, r20
    1056:	11 96       	adiw	r26, 0x01	; 1
    1058:	8c 93       	st	X, r24
    105a:	a3 e3       	ldi	r26, 0x33	; 51
    105c:	b0 e0       	ldi	r27, 0x00	; 0
    105e:	e3 e3       	ldi	r30, 0x33	; 51
    1060:	f0 e0       	ldi	r31, 0x00	; 0
    1062:	82 81       	ldd	r24, Z+2	; 0x02
    1064:	48 2f       	mov	r20, r24
    1066:	8b 81       	ldd	r24, Y+3	; 0x03
    1068:	28 2f       	mov	r18, r24
    106a:	30 e0       	ldi	r19, 0x00	; 0
    106c:	81 e0       	ldi	r24, 0x01	; 1
    106e:	90 e0       	ldi	r25, 0x00	; 0
    1070:	02 2e       	mov	r0, r18
    1072:	02 c0       	rjmp	.+4      	; 0x1078 <MDIO_stderrSetPinDirection+0x368>
    1074:	88 0f       	add	r24, r24
    1076:	99 1f       	adc	r25, r25
    1078:	0a 94       	dec	r0
    107a:	e2 f7       	brpl	.-8      	; 0x1074 <MDIO_stderrSetPinDirection+0x364>
    107c:	84 2b       	or	r24, r20
    107e:	12 96       	adiw	r26, 0x02	; 2
    1080:	8c 93       	st	X, r24
    1082:	12 97       	sbiw	r26, 0x02	; 2
    1084:	32 c0       	rjmp	.+100    	; 0x10ea <MDIO_stderrSetPinDirection+0x3da>
				case MDIO_PORTD: CLEAR_BIT(GPIOD -> DDR, ARG_u8Pin); SET_BIT(GPIOD -> PORT, ARG_u8Pin); break;
    1086:	a0 e3       	ldi	r26, 0x30	; 48
    1088:	b0 e0       	ldi	r27, 0x00	; 0
    108a:	e0 e3       	ldi	r30, 0x30	; 48
    108c:	f0 e0       	ldi	r31, 0x00	; 0
    108e:	81 81       	ldd	r24, Z+1	; 0x01
    1090:	48 2f       	mov	r20, r24
    1092:	8b 81       	ldd	r24, Y+3	; 0x03
    1094:	28 2f       	mov	r18, r24
    1096:	30 e0       	ldi	r19, 0x00	; 0
    1098:	81 e0       	ldi	r24, 0x01	; 1
    109a:	90 e0       	ldi	r25, 0x00	; 0
    109c:	02 c0       	rjmp	.+4      	; 0x10a2 <MDIO_stderrSetPinDirection+0x392>
    109e:	88 0f       	add	r24, r24
    10a0:	99 1f       	adc	r25, r25
    10a2:	2a 95       	dec	r18
    10a4:	e2 f7       	brpl	.-8      	; 0x109e <MDIO_stderrSetPinDirection+0x38e>
    10a6:	80 95       	com	r24
    10a8:	84 23       	and	r24, r20
    10aa:	11 96       	adiw	r26, 0x01	; 1
    10ac:	8c 93       	st	X, r24
    10ae:	a0 e3       	ldi	r26, 0x30	; 48
    10b0:	b0 e0       	ldi	r27, 0x00	; 0
    10b2:	e0 e3       	ldi	r30, 0x30	; 48
    10b4:	f0 e0       	ldi	r31, 0x00	; 0
    10b6:	82 81       	ldd	r24, Z+2	; 0x02
    10b8:	48 2f       	mov	r20, r24
    10ba:	8b 81       	ldd	r24, Y+3	; 0x03
    10bc:	28 2f       	mov	r18, r24
    10be:	30 e0       	ldi	r19, 0x00	; 0
    10c0:	81 e0       	ldi	r24, 0x01	; 1
    10c2:	90 e0       	ldi	r25, 0x00	; 0
    10c4:	02 2e       	mov	r0, r18
    10c6:	02 c0       	rjmp	.+4      	; 0x10cc <MDIO_stderrSetPinDirection+0x3bc>
    10c8:	88 0f       	add	r24, r24
    10ca:	99 1f       	adc	r25, r25
    10cc:	0a 94       	dec	r0
    10ce:	e2 f7       	brpl	.-8      	; 0x10c8 <MDIO_stderrSetPinDirection+0x3b8>
    10d0:	84 2b       	or	r24, r20
    10d2:	12 96       	adiw	r26, 0x02	; 2
    10d4:	8c 93       	st	X, r24
    10d6:	12 97       	sbiw	r26, 0x02	; 2
    10d8:	08 c0       	rjmp	.+16     	; 0x10ea <MDIO_stderrSetPinDirection+0x3da>
				default: L_stderrError = E_NOK; break; /* Report an Error */
    10da:	81 e0       	ldi	r24, 0x01	; 1
    10dc:	89 83       	std	Y+1, r24	; 0x01
    10de:	05 c0       	rjmp	.+10     	; 0x10ea <MDIO_stderrSetPinDirection+0x3da>
			}
		}
		else
		{
			/* Report an Error */
			L_stderrError = E_NOK;
    10e0:	81 e0       	ldi	r24, 0x01	; 1
    10e2:	89 83       	std	Y+1, r24	; 0x01
    10e4:	02 c0       	rjmp	.+4      	; 0x10ea <MDIO_stderrSetPinDirection+0x3da>
		}
	}
	else
	{
		/* Report an Error */
		L_stderrError = E_NOK;
    10e6:	81 e0       	ldi	r24, 0x01	; 1
    10e8:	89 83       	std	Y+1, r24	; 0x01
	}
	return L_stderrError;
    10ea:	89 81       	ldd	r24, Y+1	; 0x01
}
    10ec:	2a 96       	adiw	r28, 0x0a	; 10
    10ee:	0f b6       	in	r0, 0x3f	; 63
    10f0:	f8 94       	cli
    10f2:	de bf       	out	0x3e, r29	; 62
    10f4:	0f be       	out	0x3f, r0	; 63
    10f6:	cd bf       	out	0x3d, r28	; 61
    10f8:	cf 91       	pop	r28
    10fa:	df 91       	pop	r29
    10fc:	08 95       	ret

000010fe <MDIO_stderrSetPinValue>:

STD_error_t MDIO_stderrSetPinValue(u8 ARG_u8Port, u8 ARG_u8Pin, u8 ARG_u8Value)
{
    10fe:	df 93       	push	r29
    1100:	cf 93       	push	r28
    1102:	cd b7       	in	r28, 0x3d	; 61
    1104:	de b7       	in	r29, 0x3e	; 62
    1106:	28 97       	sbiw	r28, 0x08	; 8
    1108:	0f b6       	in	r0, 0x3f	; 63
    110a:	f8 94       	cli
    110c:	de bf       	out	0x3e, r29	; 62
    110e:	0f be       	out	0x3f, r0	; 63
    1110:	cd bf       	out	0x3d, r28	; 61
    1112:	8a 83       	std	Y+2, r24	; 0x02
    1114:	6b 83       	std	Y+3, r22	; 0x03
    1116:	4c 83       	std	Y+4, r20	; 0x04
	STD_error_t L_stderrError = E_OK;
    1118:	19 82       	std	Y+1, r1	; 0x01
	if((ARG_u8Pin>=MDIO_PIN0) && (ARG_u8Pin<=MDIO_PIN7))
    111a:	8b 81       	ldd	r24, Y+3	; 0x03
    111c:	88 30       	cpi	r24, 0x08	; 8
    111e:	08 f0       	brcs	.+2      	; 0x1122 <MDIO_stderrSetPinValue+0x24>
    1120:	07 c1       	rjmp	.+526    	; 0x1330 <MDIO_stderrSetPinValue+0x232>
	{
		if(MDIO_HIGH == ARG_u8Value)
    1122:	8c 81       	ldd	r24, Y+4	; 0x04
    1124:	82 30       	cpi	r24, 0x02	; 2
    1126:	09 f0       	breq	.+2      	; 0x112a <MDIO_stderrSetPinValue+0x2c>
    1128:	7c c0       	rjmp	.+248    	; 0x1222 <MDIO_stderrSetPinValue+0x124>
		{
			switch(ARG_u8Port)
    112a:	8a 81       	ldd	r24, Y+2	; 0x02
    112c:	28 2f       	mov	r18, r24
    112e:	30 e0       	ldi	r19, 0x00	; 0
    1130:	38 87       	std	Y+8, r19	; 0x08
    1132:	2f 83       	std	Y+7, r18	; 0x07
    1134:	8f 81       	ldd	r24, Y+7	; 0x07
    1136:	98 85       	ldd	r25, Y+8	; 0x08
    1138:	82 30       	cpi	r24, 0x02	; 2
    113a:	91 05       	cpc	r25, r1
    113c:	69 f1       	breq	.+90     	; 0x1198 <MDIO_stderrSetPinValue+0x9a>
    113e:	2f 81       	ldd	r18, Y+7	; 0x07
    1140:	38 85       	ldd	r19, Y+8	; 0x08
    1142:	23 30       	cpi	r18, 0x03	; 3
    1144:	31 05       	cpc	r19, r1
    1146:	34 f4       	brge	.+12     	; 0x1154 <MDIO_stderrSetPinValue+0x56>
    1148:	8f 81       	ldd	r24, Y+7	; 0x07
    114a:	98 85       	ldd	r25, Y+8	; 0x08
    114c:	81 30       	cpi	r24, 0x01	; 1
    114e:	91 05       	cpc	r25, r1
    1150:	69 f0       	breq	.+26     	; 0x116c <MDIO_stderrSetPinValue+0x6e>
    1152:	64 c0       	rjmp	.+200    	; 0x121c <MDIO_stderrSetPinValue+0x11e>
    1154:	2f 81       	ldd	r18, Y+7	; 0x07
    1156:	38 85       	ldd	r19, Y+8	; 0x08
    1158:	23 30       	cpi	r18, 0x03	; 3
    115a:	31 05       	cpc	r19, r1
    115c:	99 f1       	breq	.+102    	; 0x11c4 <MDIO_stderrSetPinValue+0xc6>
    115e:	8f 81       	ldd	r24, Y+7	; 0x07
    1160:	98 85       	ldd	r25, Y+8	; 0x08
    1162:	84 30       	cpi	r24, 0x04	; 4
    1164:	91 05       	cpc	r25, r1
    1166:	09 f4       	brne	.+2      	; 0x116a <MDIO_stderrSetPinValue+0x6c>
    1168:	43 c0       	rjmp	.+134    	; 0x11f0 <MDIO_stderrSetPinValue+0xf2>
    116a:	58 c0       	rjmp	.+176    	; 0x121c <MDIO_stderrSetPinValue+0x11e>
			{
				case MDIO_PORTA: SET_BIT(GPIOA -> PORT, ARG_u8Pin); break;
    116c:	a9 e3       	ldi	r26, 0x39	; 57
    116e:	b0 e0       	ldi	r27, 0x00	; 0
    1170:	e9 e3       	ldi	r30, 0x39	; 57
    1172:	f0 e0       	ldi	r31, 0x00	; 0
    1174:	82 81       	ldd	r24, Z+2	; 0x02
    1176:	48 2f       	mov	r20, r24
    1178:	8b 81       	ldd	r24, Y+3	; 0x03
    117a:	28 2f       	mov	r18, r24
    117c:	30 e0       	ldi	r19, 0x00	; 0
    117e:	81 e0       	ldi	r24, 0x01	; 1
    1180:	90 e0       	ldi	r25, 0x00	; 0
    1182:	02 2e       	mov	r0, r18
    1184:	02 c0       	rjmp	.+4      	; 0x118a <MDIO_stderrSetPinValue+0x8c>
    1186:	88 0f       	add	r24, r24
    1188:	99 1f       	adc	r25, r25
    118a:	0a 94       	dec	r0
    118c:	e2 f7       	brpl	.-8      	; 0x1186 <MDIO_stderrSetPinValue+0x88>
    118e:	84 2b       	or	r24, r20
    1190:	12 96       	adiw	r26, 0x02	; 2
    1192:	8c 93       	st	X, r24
    1194:	12 97       	sbiw	r26, 0x02	; 2
    1196:	ce c0       	rjmp	.+412    	; 0x1334 <MDIO_stderrSetPinValue+0x236>
				case MDIO_PORTB: SET_BIT(GPIOB -> PORT, ARG_u8Pin); break;
    1198:	a6 e3       	ldi	r26, 0x36	; 54
    119a:	b0 e0       	ldi	r27, 0x00	; 0
    119c:	e6 e3       	ldi	r30, 0x36	; 54
    119e:	f0 e0       	ldi	r31, 0x00	; 0
    11a0:	82 81       	ldd	r24, Z+2	; 0x02
    11a2:	48 2f       	mov	r20, r24
    11a4:	8b 81       	ldd	r24, Y+3	; 0x03
    11a6:	28 2f       	mov	r18, r24
    11a8:	30 e0       	ldi	r19, 0x00	; 0
    11aa:	81 e0       	ldi	r24, 0x01	; 1
    11ac:	90 e0       	ldi	r25, 0x00	; 0
    11ae:	02 2e       	mov	r0, r18
    11b0:	02 c0       	rjmp	.+4      	; 0x11b6 <MDIO_stderrSetPinValue+0xb8>
    11b2:	88 0f       	add	r24, r24
    11b4:	99 1f       	adc	r25, r25
    11b6:	0a 94       	dec	r0
    11b8:	e2 f7       	brpl	.-8      	; 0x11b2 <MDIO_stderrSetPinValue+0xb4>
    11ba:	84 2b       	or	r24, r20
    11bc:	12 96       	adiw	r26, 0x02	; 2
    11be:	8c 93       	st	X, r24
    11c0:	12 97       	sbiw	r26, 0x02	; 2
    11c2:	b8 c0       	rjmp	.+368    	; 0x1334 <MDIO_stderrSetPinValue+0x236>
				case MDIO_PORTC: SET_BIT(GPIOC -> PORT, ARG_u8Pin); break;
    11c4:	a3 e3       	ldi	r26, 0x33	; 51
    11c6:	b0 e0       	ldi	r27, 0x00	; 0
    11c8:	e3 e3       	ldi	r30, 0x33	; 51
    11ca:	f0 e0       	ldi	r31, 0x00	; 0
    11cc:	82 81       	ldd	r24, Z+2	; 0x02
    11ce:	48 2f       	mov	r20, r24
    11d0:	8b 81       	ldd	r24, Y+3	; 0x03
    11d2:	28 2f       	mov	r18, r24
    11d4:	30 e0       	ldi	r19, 0x00	; 0
    11d6:	81 e0       	ldi	r24, 0x01	; 1
    11d8:	90 e0       	ldi	r25, 0x00	; 0
    11da:	02 2e       	mov	r0, r18
    11dc:	02 c0       	rjmp	.+4      	; 0x11e2 <MDIO_stderrSetPinValue+0xe4>
    11de:	88 0f       	add	r24, r24
    11e0:	99 1f       	adc	r25, r25
    11e2:	0a 94       	dec	r0
    11e4:	e2 f7       	brpl	.-8      	; 0x11de <MDIO_stderrSetPinValue+0xe0>
    11e6:	84 2b       	or	r24, r20
    11e8:	12 96       	adiw	r26, 0x02	; 2
    11ea:	8c 93       	st	X, r24
    11ec:	12 97       	sbiw	r26, 0x02	; 2
    11ee:	a2 c0       	rjmp	.+324    	; 0x1334 <MDIO_stderrSetPinValue+0x236>
				case MDIO_PORTD: SET_BIT(GPIOD -> PORT, ARG_u8Pin); break;
    11f0:	a0 e3       	ldi	r26, 0x30	; 48
    11f2:	b0 e0       	ldi	r27, 0x00	; 0
    11f4:	e0 e3       	ldi	r30, 0x30	; 48
    11f6:	f0 e0       	ldi	r31, 0x00	; 0
    11f8:	82 81       	ldd	r24, Z+2	; 0x02
    11fa:	48 2f       	mov	r20, r24
    11fc:	8b 81       	ldd	r24, Y+3	; 0x03
    11fe:	28 2f       	mov	r18, r24
    1200:	30 e0       	ldi	r19, 0x00	; 0
    1202:	81 e0       	ldi	r24, 0x01	; 1
    1204:	90 e0       	ldi	r25, 0x00	; 0
    1206:	02 2e       	mov	r0, r18
    1208:	02 c0       	rjmp	.+4      	; 0x120e <MDIO_stderrSetPinValue+0x110>
    120a:	88 0f       	add	r24, r24
    120c:	99 1f       	adc	r25, r25
    120e:	0a 94       	dec	r0
    1210:	e2 f7       	brpl	.-8      	; 0x120a <MDIO_stderrSetPinValue+0x10c>
    1212:	84 2b       	or	r24, r20
    1214:	12 96       	adiw	r26, 0x02	; 2
    1216:	8c 93       	st	X, r24
    1218:	12 97       	sbiw	r26, 0x02	; 2
    121a:	8c c0       	rjmp	.+280    	; 0x1334 <MDIO_stderrSetPinValue+0x236>
				default: L_stderrError = E_NOK; break; /* Report an Error */
    121c:	81 e0       	ldi	r24, 0x01	; 1
    121e:	89 83       	std	Y+1, r24	; 0x01
    1220:	89 c0       	rjmp	.+274    	; 0x1334 <MDIO_stderrSetPinValue+0x236>
			}
		}
		else if(MDIO_LOW == ARG_u8Value)
    1222:	8c 81       	ldd	r24, Y+4	; 0x04
    1224:	81 30       	cpi	r24, 0x01	; 1
    1226:	09 f0       	breq	.+2      	; 0x122a <MDIO_stderrSetPinValue+0x12c>
    1228:	80 c0       	rjmp	.+256    	; 0x132a <MDIO_stderrSetPinValue+0x22c>
		{
			switch(ARG_u8Port)
    122a:	8a 81       	ldd	r24, Y+2	; 0x02
    122c:	28 2f       	mov	r18, r24
    122e:	30 e0       	ldi	r19, 0x00	; 0
    1230:	3e 83       	std	Y+6, r19	; 0x06
    1232:	2d 83       	std	Y+5, r18	; 0x05
    1234:	8d 81       	ldd	r24, Y+5	; 0x05
    1236:	9e 81       	ldd	r25, Y+6	; 0x06
    1238:	82 30       	cpi	r24, 0x02	; 2
    123a:	91 05       	cpc	r25, r1
    123c:	71 f1       	breq	.+92     	; 0x129a <MDIO_stderrSetPinValue+0x19c>
    123e:	2d 81       	ldd	r18, Y+5	; 0x05
    1240:	3e 81       	ldd	r19, Y+6	; 0x06
    1242:	23 30       	cpi	r18, 0x03	; 3
    1244:	31 05       	cpc	r19, r1
    1246:	34 f4       	brge	.+12     	; 0x1254 <MDIO_stderrSetPinValue+0x156>
    1248:	8d 81       	ldd	r24, Y+5	; 0x05
    124a:	9e 81       	ldd	r25, Y+6	; 0x06
    124c:	81 30       	cpi	r24, 0x01	; 1
    124e:	91 05       	cpc	r25, r1
    1250:	69 f0       	breq	.+26     	; 0x126c <MDIO_stderrSetPinValue+0x16e>
    1252:	68 c0       	rjmp	.+208    	; 0x1324 <MDIO_stderrSetPinValue+0x226>
    1254:	2d 81       	ldd	r18, Y+5	; 0x05
    1256:	3e 81       	ldd	r19, Y+6	; 0x06
    1258:	23 30       	cpi	r18, 0x03	; 3
    125a:	31 05       	cpc	r19, r1
    125c:	a9 f1       	breq	.+106    	; 0x12c8 <MDIO_stderrSetPinValue+0x1ca>
    125e:	8d 81       	ldd	r24, Y+5	; 0x05
    1260:	9e 81       	ldd	r25, Y+6	; 0x06
    1262:	84 30       	cpi	r24, 0x04	; 4
    1264:	91 05       	cpc	r25, r1
    1266:	09 f4       	brne	.+2      	; 0x126a <MDIO_stderrSetPinValue+0x16c>
    1268:	46 c0       	rjmp	.+140    	; 0x12f6 <MDIO_stderrSetPinValue+0x1f8>
    126a:	5c c0       	rjmp	.+184    	; 0x1324 <MDIO_stderrSetPinValue+0x226>
			{
				case MDIO_PORTA: CLEAR_BIT(GPIOA -> PORT, ARG_u8Pin); break;
    126c:	a9 e3       	ldi	r26, 0x39	; 57
    126e:	b0 e0       	ldi	r27, 0x00	; 0
    1270:	e9 e3       	ldi	r30, 0x39	; 57
    1272:	f0 e0       	ldi	r31, 0x00	; 0
    1274:	82 81       	ldd	r24, Z+2	; 0x02
    1276:	48 2f       	mov	r20, r24
    1278:	8b 81       	ldd	r24, Y+3	; 0x03
    127a:	28 2f       	mov	r18, r24
    127c:	30 e0       	ldi	r19, 0x00	; 0
    127e:	81 e0       	ldi	r24, 0x01	; 1
    1280:	90 e0       	ldi	r25, 0x00	; 0
    1282:	02 2e       	mov	r0, r18
    1284:	02 c0       	rjmp	.+4      	; 0x128a <MDIO_stderrSetPinValue+0x18c>
    1286:	88 0f       	add	r24, r24
    1288:	99 1f       	adc	r25, r25
    128a:	0a 94       	dec	r0
    128c:	e2 f7       	brpl	.-8      	; 0x1286 <MDIO_stderrSetPinValue+0x188>
    128e:	80 95       	com	r24
    1290:	84 23       	and	r24, r20
    1292:	12 96       	adiw	r26, 0x02	; 2
    1294:	8c 93       	st	X, r24
    1296:	12 97       	sbiw	r26, 0x02	; 2
    1298:	4d c0       	rjmp	.+154    	; 0x1334 <MDIO_stderrSetPinValue+0x236>
				case MDIO_PORTB: CLEAR_BIT(GPIOB -> PORT, ARG_u8Pin); break;
    129a:	a6 e3       	ldi	r26, 0x36	; 54
    129c:	b0 e0       	ldi	r27, 0x00	; 0
    129e:	e6 e3       	ldi	r30, 0x36	; 54
    12a0:	f0 e0       	ldi	r31, 0x00	; 0
    12a2:	82 81       	ldd	r24, Z+2	; 0x02
    12a4:	48 2f       	mov	r20, r24
    12a6:	8b 81       	ldd	r24, Y+3	; 0x03
    12a8:	28 2f       	mov	r18, r24
    12aa:	30 e0       	ldi	r19, 0x00	; 0
    12ac:	81 e0       	ldi	r24, 0x01	; 1
    12ae:	90 e0       	ldi	r25, 0x00	; 0
    12b0:	02 2e       	mov	r0, r18
    12b2:	02 c0       	rjmp	.+4      	; 0x12b8 <MDIO_stderrSetPinValue+0x1ba>
    12b4:	88 0f       	add	r24, r24
    12b6:	99 1f       	adc	r25, r25
    12b8:	0a 94       	dec	r0
    12ba:	e2 f7       	brpl	.-8      	; 0x12b4 <MDIO_stderrSetPinValue+0x1b6>
    12bc:	80 95       	com	r24
    12be:	84 23       	and	r24, r20
    12c0:	12 96       	adiw	r26, 0x02	; 2
    12c2:	8c 93       	st	X, r24
    12c4:	12 97       	sbiw	r26, 0x02	; 2
    12c6:	36 c0       	rjmp	.+108    	; 0x1334 <MDIO_stderrSetPinValue+0x236>
				case MDIO_PORTC: CLEAR_BIT(GPIOC -> PORT, ARG_u8Pin); break;
    12c8:	a3 e3       	ldi	r26, 0x33	; 51
    12ca:	b0 e0       	ldi	r27, 0x00	; 0
    12cc:	e3 e3       	ldi	r30, 0x33	; 51
    12ce:	f0 e0       	ldi	r31, 0x00	; 0
    12d0:	82 81       	ldd	r24, Z+2	; 0x02
    12d2:	48 2f       	mov	r20, r24
    12d4:	8b 81       	ldd	r24, Y+3	; 0x03
    12d6:	28 2f       	mov	r18, r24
    12d8:	30 e0       	ldi	r19, 0x00	; 0
    12da:	81 e0       	ldi	r24, 0x01	; 1
    12dc:	90 e0       	ldi	r25, 0x00	; 0
    12de:	02 2e       	mov	r0, r18
    12e0:	02 c0       	rjmp	.+4      	; 0x12e6 <MDIO_stderrSetPinValue+0x1e8>
    12e2:	88 0f       	add	r24, r24
    12e4:	99 1f       	adc	r25, r25
    12e6:	0a 94       	dec	r0
    12e8:	e2 f7       	brpl	.-8      	; 0x12e2 <MDIO_stderrSetPinValue+0x1e4>
    12ea:	80 95       	com	r24
    12ec:	84 23       	and	r24, r20
    12ee:	12 96       	adiw	r26, 0x02	; 2
    12f0:	8c 93       	st	X, r24
    12f2:	12 97       	sbiw	r26, 0x02	; 2
    12f4:	1f c0       	rjmp	.+62     	; 0x1334 <MDIO_stderrSetPinValue+0x236>
				case MDIO_PORTD: CLEAR_BIT(GPIOD -> PORT, ARG_u8Pin); break;
    12f6:	a0 e3       	ldi	r26, 0x30	; 48
    12f8:	b0 e0       	ldi	r27, 0x00	; 0
    12fa:	e0 e3       	ldi	r30, 0x30	; 48
    12fc:	f0 e0       	ldi	r31, 0x00	; 0
    12fe:	82 81       	ldd	r24, Z+2	; 0x02
    1300:	48 2f       	mov	r20, r24
    1302:	8b 81       	ldd	r24, Y+3	; 0x03
    1304:	28 2f       	mov	r18, r24
    1306:	30 e0       	ldi	r19, 0x00	; 0
    1308:	81 e0       	ldi	r24, 0x01	; 1
    130a:	90 e0       	ldi	r25, 0x00	; 0
    130c:	02 2e       	mov	r0, r18
    130e:	02 c0       	rjmp	.+4      	; 0x1314 <MDIO_stderrSetPinValue+0x216>
    1310:	88 0f       	add	r24, r24
    1312:	99 1f       	adc	r25, r25
    1314:	0a 94       	dec	r0
    1316:	e2 f7       	brpl	.-8      	; 0x1310 <MDIO_stderrSetPinValue+0x212>
    1318:	80 95       	com	r24
    131a:	84 23       	and	r24, r20
    131c:	12 96       	adiw	r26, 0x02	; 2
    131e:	8c 93       	st	X, r24
    1320:	12 97       	sbiw	r26, 0x02	; 2
    1322:	08 c0       	rjmp	.+16     	; 0x1334 <MDIO_stderrSetPinValue+0x236>
				default: L_stderrError = E_NOK; break; /* Report an Error */
    1324:	81 e0       	ldi	r24, 0x01	; 1
    1326:	89 83       	std	Y+1, r24	; 0x01
    1328:	05 c0       	rjmp	.+10     	; 0x1334 <MDIO_stderrSetPinValue+0x236>
			}
		}
		else
		{
			/* Report an Error */
			L_stderrError = E_NOK;
    132a:	81 e0       	ldi	r24, 0x01	; 1
    132c:	89 83       	std	Y+1, r24	; 0x01
    132e:	02 c0       	rjmp	.+4      	; 0x1334 <MDIO_stderrSetPinValue+0x236>
		}
	}
	else
	{
		/* Report an Error */
		L_stderrError = E_NOK;
    1330:	81 e0       	ldi	r24, 0x01	; 1
    1332:	89 83       	std	Y+1, r24	; 0x01
	}
	return L_stderrError;
    1334:	89 81       	ldd	r24, Y+1	; 0x01
}
    1336:	28 96       	adiw	r28, 0x08	; 8
    1338:	0f b6       	in	r0, 0x3f	; 63
    133a:	f8 94       	cli
    133c:	de bf       	out	0x3e, r29	; 62
    133e:	0f be       	out	0x3f, r0	; 63
    1340:	cd bf       	out	0x3d, r28	; 61
    1342:	cf 91       	pop	r28
    1344:	df 91       	pop	r29
    1346:	08 95       	ret

00001348 <MDIO_stderrGetPinValue>:

STD_error_t MDIO_stderrGetPinValue(u8* ARG_u8pValue, u8 ARG_u8Port, u8 ARG_u8Pin)
{
    1348:	df 93       	push	r29
    134a:	cf 93       	push	r28
    134c:	cd b7       	in	r28, 0x3d	; 61
    134e:	de b7       	in	r29, 0x3e	; 62
    1350:	27 97       	sbiw	r28, 0x07	; 7
    1352:	0f b6       	in	r0, 0x3f	; 63
    1354:	f8 94       	cli
    1356:	de bf       	out	0x3e, r29	; 62
    1358:	0f be       	out	0x3f, r0	; 63
    135a:	cd bf       	out	0x3d, r28	; 61
    135c:	9b 83       	std	Y+3, r25	; 0x03
    135e:	8a 83       	std	Y+2, r24	; 0x02
    1360:	6c 83       	std	Y+4, r22	; 0x04
    1362:	4d 83       	std	Y+5, r20	; 0x05
	STD_error_t L_stderrError = E_OK;
    1364:	19 82       	std	Y+1, r1	; 0x01
	if(NULL_POINTER==ARG_u8pValue)
    1366:	8a 81       	ldd	r24, Y+2	; 0x02
    1368:	9b 81       	ldd	r25, Y+3	; 0x03
    136a:	00 97       	sbiw	r24, 0x00	; 0
    136c:	19 f4       	brne	.+6      	; 0x1374 <MDIO_stderrGetPinValue+0x2c>
	{
		L_stderrError = E_NULL_POINTER;
    136e:	82 e0       	ldi	r24, 0x02	; 2
    1370:	89 83       	std	Y+1, r24	; 0x01
    1372:	7a c0       	rjmp	.+244    	; 0x1468 <MDIO_stderrGetPinValue+0x120>
	}
	else if((ARG_u8Pin>=MDIO_PIN0) && (ARG_u8Pin<=MDIO_PIN7))
    1374:	8d 81       	ldd	r24, Y+5	; 0x05
    1376:	88 30       	cpi	r24, 0x08	; 8
    1378:	08 f0       	brcs	.+2      	; 0x137c <MDIO_stderrGetPinValue+0x34>
    137a:	74 c0       	rjmp	.+232    	; 0x1464 <MDIO_stderrGetPinValue+0x11c>
	{
		switch(ARG_u8Port)
    137c:	8c 81       	ldd	r24, Y+4	; 0x04
    137e:	28 2f       	mov	r18, r24
    1380:	30 e0       	ldi	r19, 0x00	; 0
    1382:	3f 83       	std	Y+7, r19	; 0x07
    1384:	2e 83       	std	Y+6, r18	; 0x06
    1386:	4e 81       	ldd	r20, Y+6	; 0x06
    1388:	5f 81       	ldd	r21, Y+7	; 0x07
    138a:	42 30       	cpi	r20, 0x02	; 2
    138c:	51 05       	cpc	r21, r1
    138e:	59 f1       	breq	.+86     	; 0x13e6 <MDIO_stderrGetPinValue+0x9e>
    1390:	8e 81       	ldd	r24, Y+6	; 0x06
    1392:	9f 81       	ldd	r25, Y+7	; 0x07
    1394:	83 30       	cpi	r24, 0x03	; 3
    1396:	91 05       	cpc	r25, r1
    1398:	34 f4       	brge	.+12     	; 0x13a6 <MDIO_stderrGetPinValue+0x5e>
    139a:	2e 81       	ldd	r18, Y+6	; 0x06
    139c:	3f 81       	ldd	r19, Y+7	; 0x07
    139e:	21 30       	cpi	r18, 0x01	; 1
    13a0:	31 05       	cpc	r19, r1
    13a2:	69 f0       	breq	.+26     	; 0x13be <MDIO_stderrGetPinValue+0x76>
    13a4:	5c c0       	rjmp	.+184    	; 0x145e <MDIO_stderrGetPinValue+0x116>
    13a6:	4e 81       	ldd	r20, Y+6	; 0x06
    13a8:	5f 81       	ldd	r21, Y+7	; 0x07
    13aa:	43 30       	cpi	r20, 0x03	; 3
    13ac:	51 05       	cpc	r21, r1
    13ae:	79 f1       	breq	.+94     	; 0x140e <MDIO_stderrGetPinValue+0xc6>
    13b0:	8e 81       	ldd	r24, Y+6	; 0x06
    13b2:	9f 81       	ldd	r25, Y+7	; 0x07
    13b4:	84 30       	cpi	r24, 0x04	; 4
    13b6:	91 05       	cpc	r25, r1
    13b8:	09 f4       	brne	.+2      	; 0x13bc <MDIO_stderrGetPinValue+0x74>
    13ba:	3d c0       	rjmp	.+122    	; 0x1436 <MDIO_stderrGetPinValue+0xee>
    13bc:	50 c0       	rjmp	.+160    	; 0x145e <MDIO_stderrGetPinValue+0x116>
		{
			case MDIO_PORTA: *ARG_u8pValue = GET_BIT(GPIOA -> PIN, ARG_u8Pin); break;
    13be:	e9 e3       	ldi	r30, 0x39	; 57
    13c0:	f0 e0       	ldi	r31, 0x00	; 0
    13c2:	80 81       	ld	r24, Z
    13c4:	28 2f       	mov	r18, r24
    13c6:	30 e0       	ldi	r19, 0x00	; 0
    13c8:	8d 81       	ldd	r24, Y+5	; 0x05
    13ca:	88 2f       	mov	r24, r24
    13cc:	90 e0       	ldi	r25, 0x00	; 0
    13ce:	a9 01       	movw	r20, r18
    13d0:	02 c0       	rjmp	.+4      	; 0x13d6 <MDIO_stderrGetPinValue+0x8e>
    13d2:	55 95       	asr	r21
    13d4:	47 95       	ror	r20
    13d6:	8a 95       	dec	r24
    13d8:	e2 f7       	brpl	.-8      	; 0x13d2 <MDIO_stderrGetPinValue+0x8a>
    13da:	ca 01       	movw	r24, r20
    13dc:	81 70       	andi	r24, 0x01	; 1
    13de:	ea 81       	ldd	r30, Y+2	; 0x02
    13e0:	fb 81       	ldd	r31, Y+3	; 0x03
    13e2:	80 83       	st	Z, r24
    13e4:	41 c0       	rjmp	.+130    	; 0x1468 <MDIO_stderrGetPinValue+0x120>
			case MDIO_PORTB: *ARG_u8pValue = GET_BIT(GPIOB -> PIN, ARG_u8Pin); break;
    13e6:	e6 e3       	ldi	r30, 0x36	; 54
    13e8:	f0 e0       	ldi	r31, 0x00	; 0
    13ea:	80 81       	ld	r24, Z
    13ec:	28 2f       	mov	r18, r24
    13ee:	30 e0       	ldi	r19, 0x00	; 0
    13f0:	8d 81       	ldd	r24, Y+5	; 0x05
    13f2:	88 2f       	mov	r24, r24
    13f4:	90 e0       	ldi	r25, 0x00	; 0
    13f6:	a9 01       	movw	r20, r18
    13f8:	02 c0       	rjmp	.+4      	; 0x13fe <MDIO_stderrGetPinValue+0xb6>
    13fa:	55 95       	asr	r21
    13fc:	47 95       	ror	r20
    13fe:	8a 95       	dec	r24
    1400:	e2 f7       	brpl	.-8      	; 0x13fa <MDIO_stderrGetPinValue+0xb2>
    1402:	ca 01       	movw	r24, r20
    1404:	81 70       	andi	r24, 0x01	; 1
    1406:	ea 81       	ldd	r30, Y+2	; 0x02
    1408:	fb 81       	ldd	r31, Y+3	; 0x03
    140a:	80 83       	st	Z, r24
    140c:	2d c0       	rjmp	.+90     	; 0x1468 <MDIO_stderrGetPinValue+0x120>
			case MDIO_PORTC: *ARG_u8pValue = GET_BIT(GPIOC -> PIN, ARG_u8Pin); break;
    140e:	e3 e3       	ldi	r30, 0x33	; 51
    1410:	f0 e0       	ldi	r31, 0x00	; 0
    1412:	80 81       	ld	r24, Z
    1414:	28 2f       	mov	r18, r24
    1416:	30 e0       	ldi	r19, 0x00	; 0
    1418:	8d 81       	ldd	r24, Y+5	; 0x05
    141a:	88 2f       	mov	r24, r24
    141c:	90 e0       	ldi	r25, 0x00	; 0
    141e:	a9 01       	movw	r20, r18
    1420:	02 c0       	rjmp	.+4      	; 0x1426 <MDIO_stderrGetPinValue+0xde>
    1422:	55 95       	asr	r21
    1424:	47 95       	ror	r20
    1426:	8a 95       	dec	r24
    1428:	e2 f7       	brpl	.-8      	; 0x1422 <MDIO_stderrGetPinValue+0xda>
    142a:	ca 01       	movw	r24, r20
    142c:	81 70       	andi	r24, 0x01	; 1
    142e:	ea 81       	ldd	r30, Y+2	; 0x02
    1430:	fb 81       	ldd	r31, Y+3	; 0x03
    1432:	80 83       	st	Z, r24
    1434:	19 c0       	rjmp	.+50     	; 0x1468 <MDIO_stderrGetPinValue+0x120>
			case MDIO_PORTD: *ARG_u8pValue = GET_BIT(GPIOD -> PIN, ARG_u8Pin); break;
    1436:	e0 e3       	ldi	r30, 0x30	; 48
    1438:	f0 e0       	ldi	r31, 0x00	; 0
    143a:	80 81       	ld	r24, Z
    143c:	28 2f       	mov	r18, r24
    143e:	30 e0       	ldi	r19, 0x00	; 0
    1440:	8d 81       	ldd	r24, Y+5	; 0x05
    1442:	88 2f       	mov	r24, r24
    1444:	90 e0       	ldi	r25, 0x00	; 0
    1446:	a9 01       	movw	r20, r18
    1448:	02 c0       	rjmp	.+4      	; 0x144e <MDIO_stderrGetPinValue+0x106>
    144a:	55 95       	asr	r21
    144c:	47 95       	ror	r20
    144e:	8a 95       	dec	r24
    1450:	e2 f7       	brpl	.-8      	; 0x144a <MDIO_stderrGetPinValue+0x102>
    1452:	ca 01       	movw	r24, r20
    1454:	81 70       	andi	r24, 0x01	; 1
    1456:	ea 81       	ldd	r30, Y+2	; 0x02
    1458:	fb 81       	ldd	r31, Y+3	; 0x03
    145a:	80 83       	st	Z, r24
    145c:	05 c0       	rjmp	.+10     	; 0x1468 <MDIO_stderrGetPinValue+0x120>
			default: L_stderrError = E_NOK; break; /* Report an Error */
    145e:	81 e0       	ldi	r24, 0x01	; 1
    1460:	89 83       	std	Y+1, r24	; 0x01
    1462:	02 c0       	rjmp	.+4      	; 0x1468 <MDIO_stderrGetPinValue+0x120>
		}
	}
	else
	{
		/* Report an Error */
		L_stderrError = E_NOK;
    1464:	81 e0       	ldi	r24, 0x01	; 1
    1466:	89 83       	std	Y+1, r24	; 0x01
	}
	return L_stderrError;
    1468:	89 81       	ldd	r24, Y+1	; 0x01
}
    146a:	27 96       	adiw	r28, 0x07	; 7
    146c:	0f b6       	in	r0, 0x3f	; 63
    146e:	f8 94       	cli
    1470:	de bf       	out	0x3e, r29	; 62
    1472:	0f be       	out	0x3f, r0	; 63
    1474:	cd bf       	out	0x3d, r28	; 61
    1476:	cf 91       	pop	r28
    1478:	df 91       	pop	r29
    147a:	08 95       	ret

0000147c <MDIO_stderrTogglePinValue>:

STD_error_t MDIO_stderrTogglePinValue(u8 ARG_u8Port ,u8 ARG_u8Pin)
{
    147c:	df 93       	push	r29
    147e:	cf 93       	push	r28
    1480:	00 d0       	rcall	.+0      	; 0x1482 <MDIO_stderrTogglePinValue+0x6>
    1482:	00 d0       	rcall	.+0      	; 0x1484 <MDIO_stderrTogglePinValue+0x8>
    1484:	0f 92       	push	r0
    1486:	cd b7       	in	r28, 0x3d	; 61
    1488:	de b7       	in	r29, 0x3e	; 62
    148a:	8a 83       	std	Y+2, r24	; 0x02
    148c:	6b 83       	std	Y+3, r22	; 0x03
	STD_error_t L_stderrError= E_OK;
    148e:	19 82       	std	Y+1, r1	; 0x01
	if(ARG_u8Pin>= MDIO_PIN0 && ARG_u8Pin<= MDIO_PIN7)
    1490:	8b 81       	ldd	r24, Y+3	; 0x03
    1492:	88 30       	cpi	r24, 0x08	; 8
    1494:	08 f0       	brcs	.+2      	; 0x1498 <MDIO_stderrTogglePinValue+0x1c>
    1496:	7c c0       	rjmp	.+248    	; 0x1590 <MDIO_stderrTogglePinValue+0x114>
	{
		switch(ARG_u8Port)
    1498:	8a 81       	ldd	r24, Y+2	; 0x02
    149a:	28 2f       	mov	r18, r24
    149c:	30 e0       	ldi	r19, 0x00	; 0
    149e:	3d 83       	std	Y+5, r19	; 0x05
    14a0:	2c 83       	std	Y+4, r18	; 0x04
    14a2:	8c 81       	ldd	r24, Y+4	; 0x04
    14a4:	9d 81       	ldd	r25, Y+5	; 0x05
    14a6:	82 30       	cpi	r24, 0x02	; 2
    14a8:	91 05       	cpc	r25, r1
    14aa:	69 f1       	breq	.+90     	; 0x1506 <MDIO_stderrTogglePinValue+0x8a>
    14ac:	2c 81       	ldd	r18, Y+4	; 0x04
    14ae:	3d 81       	ldd	r19, Y+5	; 0x05
    14b0:	23 30       	cpi	r18, 0x03	; 3
    14b2:	31 05       	cpc	r19, r1
    14b4:	34 f4       	brge	.+12     	; 0x14c2 <MDIO_stderrTogglePinValue+0x46>
    14b6:	8c 81       	ldd	r24, Y+4	; 0x04
    14b8:	9d 81       	ldd	r25, Y+5	; 0x05
    14ba:	81 30       	cpi	r24, 0x01	; 1
    14bc:	91 05       	cpc	r25, r1
    14be:	69 f0       	breq	.+26     	; 0x14da <MDIO_stderrTogglePinValue+0x5e>
    14c0:	64 c0       	rjmp	.+200    	; 0x158a <MDIO_stderrTogglePinValue+0x10e>
    14c2:	2c 81       	ldd	r18, Y+4	; 0x04
    14c4:	3d 81       	ldd	r19, Y+5	; 0x05
    14c6:	23 30       	cpi	r18, 0x03	; 3
    14c8:	31 05       	cpc	r19, r1
    14ca:	99 f1       	breq	.+102    	; 0x1532 <MDIO_stderrTogglePinValue+0xb6>
    14cc:	8c 81       	ldd	r24, Y+4	; 0x04
    14ce:	9d 81       	ldd	r25, Y+5	; 0x05
    14d0:	84 30       	cpi	r24, 0x04	; 4
    14d2:	91 05       	cpc	r25, r1
    14d4:	09 f4       	brne	.+2      	; 0x14d8 <MDIO_stderrTogglePinValue+0x5c>
    14d6:	43 c0       	rjmp	.+134    	; 0x155e <MDIO_stderrTogglePinValue+0xe2>
    14d8:	58 c0       	rjmp	.+176    	; 0x158a <MDIO_stderrTogglePinValue+0x10e>
		{
			case MDIO_PORTA: TOGGLE_BIT(GPIOA->PORT ,ARG_u8Pin) ; break;
    14da:	a9 e3       	ldi	r26, 0x39	; 57
    14dc:	b0 e0       	ldi	r27, 0x00	; 0
    14de:	e9 e3       	ldi	r30, 0x39	; 57
    14e0:	f0 e0       	ldi	r31, 0x00	; 0
    14e2:	82 81       	ldd	r24, Z+2	; 0x02
    14e4:	48 2f       	mov	r20, r24
    14e6:	8b 81       	ldd	r24, Y+3	; 0x03
    14e8:	28 2f       	mov	r18, r24
    14ea:	30 e0       	ldi	r19, 0x00	; 0
    14ec:	81 e0       	ldi	r24, 0x01	; 1
    14ee:	90 e0       	ldi	r25, 0x00	; 0
    14f0:	02 2e       	mov	r0, r18
    14f2:	02 c0       	rjmp	.+4      	; 0x14f8 <MDIO_stderrTogglePinValue+0x7c>
    14f4:	88 0f       	add	r24, r24
    14f6:	99 1f       	adc	r25, r25
    14f8:	0a 94       	dec	r0
    14fa:	e2 f7       	brpl	.-8      	; 0x14f4 <MDIO_stderrTogglePinValue+0x78>
    14fc:	84 27       	eor	r24, r20
    14fe:	12 96       	adiw	r26, 0x02	; 2
    1500:	8c 93       	st	X, r24
    1502:	12 97       	sbiw	r26, 0x02	; 2
    1504:	47 c0       	rjmp	.+142    	; 0x1594 <MDIO_stderrTogglePinValue+0x118>
			case MDIO_PORTB: TOGGLE_BIT(GPIOB->PORT ,ARG_u8Pin) ; break;
    1506:	a6 e3       	ldi	r26, 0x36	; 54
    1508:	b0 e0       	ldi	r27, 0x00	; 0
    150a:	e6 e3       	ldi	r30, 0x36	; 54
    150c:	f0 e0       	ldi	r31, 0x00	; 0
    150e:	82 81       	ldd	r24, Z+2	; 0x02
    1510:	48 2f       	mov	r20, r24
    1512:	8b 81       	ldd	r24, Y+3	; 0x03
    1514:	28 2f       	mov	r18, r24
    1516:	30 e0       	ldi	r19, 0x00	; 0
    1518:	81 e0       	ldi	r24, 0x01	; 1
    151a:	90 e0       	ldi	r25, 0x00	; 0
    151c:	02 2e       	mov	r0, r18
    151e:	02 c0       	rjmp	.+4      	; 0x1524 <MDIO_stderrTogglePinValue+0xa8>
    1520:	88 0f       	add	r24, r24
    1522:	99 1f       	adc	r25, r25
    1524:	0a 94       	dec	r0
    1526:	e2 f7       	brpl	.-8      	; 0x1520 <MDIO_stderrTogglePinValue+0xa4>
    1528:	84 27       	eor	r24, r20
    152a:	12 96       	adiw	r26, 0x02	; 2
    152c:	8c 93       	st	X, r24
    152e:	12 97       	sbiw	r26, 0x02	; 2
    1530:	31 c0       	rjmp	.+98     	; 0x1594 <MDIO_stderrTogglePinValue+0x118>
			case MDIO_PORTC: TOGGLE_BIT(GPIOC->PORT ,ARG_u8Pin) ; break;
    1532:	a3 e3       	ldi	r26, 0x33	; 51
    1534:	b0 e0       	ldi	r27, 0x00	; 0
    1536:	e3 e3       	ldi	r30, 0x33	; 51
    1538:	f0 e0       	ldi	r31, 0x00	; 0
    153a:	82 81       	ldd	r24, Z+2	; 0x02
    153c:	48 2f       	mov	r20, r24
    153e:	8b 81       	ldd	r24, Y+3	; 0x03
    1540:	28 2f       	mov	r18, r24
    1542:	30 e0       	ldi	r19, 0x00	; 0
    1544:	81 e0       	ldi	r24, 0x01	; 1
    1546:	90 e0       	ldi	r25, 0x00	; 0
    1548:	02 2e       	mov	r0, r18
    154a:	02 c0       	rjmp	.+4      	; 0x1550 <MDIO_stderrTogglePinValue+0xd4>
    154c:	88 0f       	add	r24, r24
    154e:	99 1f       	adc	r25, r25
    1550:	0a 94       	dec	r0
    1552:	e2 f7       	brpl	.-8      	; 0x154c <MDIO_stderrTogglePinValue+0xd0>
    1554:	84 27       	eor	r24, r20
    1556:	12 96       	adiw	r26, 0x02	; 2
    1558:	8c 93       	st	X, r24
    155a:	12 97       	sbiw	r26, 0x02	; 2
    155c:	1b c0       	rjmp	.+54     	; 0x1594 <MDIO_stderrTogglePinValue+0x118>
			case MDIO_PORTD: TOGGLE_BIT(GPIOD->PORT ,ARG_u8Pin) ; break;
    155e:	a0 e3       	ldi	r26, 0x30	; 48
    1560:	b0 e0       	ldi	r27, 0x00	; 0
    1562:	e0 e3       	ldi	r30, 0x30	; 48
    1564:	f0 e0       	ldi	r31, 0x00	; 0
    1566:	82 81       	ldd	r24, Z+2	; 0x02
    1568:	48 2f       	mov	r20, r24
    156a:	8b 81       	ldd	r24, Y+3	; 0x03
    156c:	28 2f       	mov	r18, r24
    156e:	30 e0       	ldi	r19, 0x00	; 0
    1570:	81 e0       	ldi	r24, 0x01	; 1
    1572:	90 e0       	ldi	r25, 0x00	; 0
    1574:	02 2e       	mov	r0, r18
    1576:	02 c0       	rjmp	.+4      	; 0x157c <MDIO_stderrTogglePinValue+0x100>
    1578:	88 0f       	add	r24, r24
    157a:	99 1f       	adc	r25, r25
    157c:	0a 94       	dec	r0
    157e:	e2 f7       	brpl	.-8      	; 0x1578 <MDIO_stderrTogglePinValue+0xfc>
    1580:	84 27       	eor	r24, r20
    1582:	12 96       	adiw	r26, 0x02	; 2
    1584:	8c 93       	st	X, r24
    1586:	12 97       	sbiw	r26, 0x02	; 2
    1588:	05 c0       	rjmp	.+10     	; 0x1594 <MDIO_stderrTogglePinValue+0x118>
			default: L_stderrError = E_NOK; break; /* report an error*/
    158a:	81 e0       	ldi	r24, 0x01	; 1
    158c:	89 83       	std	Y+1, r24	; 0x01
    158e:	02 c0       	rjmp	.+4      	; 0x1594 <MDIO_stderrTogglePinValue+0x118>
		}	
	}
	else{
		/* Report an Error */
		L_stderrError=E_NULL_POINTER;
    1590:	82 e0       	ldi	r24, 0x02	; 2
    1592:	89 83       	std	Y+1, r24	; 0x01
	}
	return L_stderrError;
    1594:	89 81       	ldd	r24, Y+1	; 0x01
}
    1596:	0f 90       	pop	r0
    1598:	0f 90       	pop	r0
    159a:	0f 90       	pop	r0
    159c:	0f 90       	pop	r0
    159e:	0f 90       	pop	r0
    15a0:	cf 91       	pop	r28
    15a2:	df 91       	pop	r29
    15a4:	08 95       	ret

000015a6 <MSPI_stderrInit>:
#include "MSPI_private.h"
#include "MSPI_interface.h"

static void(* pvoidfUserFuncCallback)(void) ;
STD_error_t MSPI_stderrInit( u8 ARG_u8Mode, u8 ARG_u8ClockPolPha, u8 ARG_u8Prescaler, u8 ARG_u8DataOrder )
{
    15a6:	df 93       	push	r29
    15a8:	cf 93       	push	r28
    15aa:	00 d0       	rcall	.+0      	; 0x15ac <MSPI_stderrInit+0x6>
    15ac:	00 d0       	rcall	.+0      	; 0x15ae <MSPI_stderrInit+0x8>
    15ae:	0f 92       	push	r0
    15b0:	cd b7       	in	r28, 0x3d	; 61
    15b2:	de b7       	in	r29, 0x3e	; 62
    15b4:	8a 83       	std	Y+2, r24	; 0x02
    15b6:	6b 83       	std	Y+3, r22	; 0x03
    15b8:	4c 83       	std	Y+4, r20	; 0x04
    15ba:	2d 83       	std	Y+5, r18	; 0x05
	STD_error_t L_stderrState=E_OK;
    15bc:	19 82       	std	Y+1, r1	; 0x01
	if( ( (MSPI_MODE_MASTER == ARG_u8Mode)||(MSPI_MODE_SLAVE == ARG_u8Mode) )&& ((MSPI_POLPHA_NONINVERTING_LEADING==ARG_u8ClockPolPha)||(MSPI_POLPHA_NONINVERTING_TAILLING==ARG_u8ClockPolPha)||(MSPI_POLPHA_NONINVERTING_TAILLING==ARG_u8ClockPolPha)||(MSPI_POLPHA_INVERTING_TAILLING==ARG_u8ClockPolPha)) && (ARG_u8Prescaler<=MSPI_RATE_FOSC_32) && ( (MSPI_DATA_MSB==ARG_u8DataOrder)||(MSPI_DATA_LSB==ARG_u8DataOrder)) )
    15be:	8a 81       	ldd	r24, Y+2	; 0x02
    15c0:	80 31       	cpi	r24, 0x10	; 16
    15c2:	19 f0       	breq	.+6      	; 0x15ca <MSPI_stderrInit+0x24>
    15c4:	8a 81       	ldd	r24, Y+2	; 0x02
    15c6:	88 23       	and	r24, r24
    15c8:	99 f5       	brne	.+102    	; 0x1630 <MSPI_stderrInit+0x8a>
    15ca:	8b 81       	ldd	r24, Y+3	; 0x03
    15cc:	88 23       	and	r24, r24
    15ce:	49 f0       	breq	.+18     	; 0x15e2 <MSPI_stderrInit+0x3c>
    15d0:	8b 81       	ldd	r24, Y+3	; 0x03
    15d2:	84 30       	cpi	r24, 0x04	; 4
    15d4:	31 f0       	breq	.+12     	; 0x15e2 <MSPI_stderrInit+0x3c>
    15d6:	8b 81       	ldd	r24, Y+3	; 0x03
    15d8:	84 30       	cpi	r24, 0x04	; 4
    15da:	19 f0       	breq	.+6      	; 0x15e2 <MSPI_stderrInit+0x3c>
    15dc:	8b 81       	ldd	r24, Y+3	; 0x03
    15de:	8c 30       	cpi	r24, 0x0C	; 12
    15e0:	39 f5       	brne	.+78     	; 0x1630 <MSPI_stderrInit+0x8a>
    15e2:	8c 81       	ldd	r24, Y+4	; 0x04
    15e4:	8f 36       	cpi	r24, 0x6F	; 111
    15e6:	20 f5       	brcc	.+72     	; 0x1630 <MSPI_stderrInit+0x8a>
    15e8:	8d 81       	ldd	r24, Y+5	; 0x05
    15ea:	88 23       	and	r24, r24
    15ec:	19 f0       	breq	.+6      	; 0x15f4 <MSPI_stderrInit+0x4e>
    15ee:	8d 81       	ldd	r24, Y+5	; 0x05
    15f0:	80 32       	cpi	r24, 0x20	; 32
    15f2:	f1 f4       	brne	.+60     	; 0x1630 <MSPI_stderrInit+0x8a>
	{
		SPCR = (SPCR & 0xC0) | ARG_u8Mode |  ARG_u8ClockPolPha | (ARG_u8Prescaler&0b11) | ARG_u8DataOrder ;
    15f4:	ad e2       	ldi	r26, 0x2D	; 45
    15f6:	b0 e0       	ldi	r27, 0x00	; 0
    15f8:	ed e2       	ldi	r30, 0x2D	; 45
    15fa:	f0 e0       	ldi	r31, 0x00	; 0
    15fc:	80 81       	ld	r24, Z
    15fe:	98 2f       	mov	r25, r24
    1600:	90 7c       	andi	r25, 0xC0	; 192
    1602:	8a 81       	ldd	r24, Y+2	; 0x02
    1604:	98 2b       	or	r25, r24
    1606:	8b 81       	ldd	r24, Y+3	; 0x03
    1608:	98 2b       	or	r25, r24
    160a:	8c 81       	ldd	r24, Y+4	; 0x04
    160c:	83 70       	andi	r24, 0x03	; 3
    160e:	98 2b       	or	r25, r24
    1610:	8d 81       	ldd	r24, Y+5	; 0x05
    1612:	89 2b       	or	r24, r25
    1614:	8c 93       	st	X, r24
		SPSR = (SPSR & 0xFE) | (ARG_u8Prescaler>>2) ;
    1616:	ae e2       	ldi	r26, 0x2E	; 46
    1618:	b0 e0       	ldi	r27, 0x00	; 0
    161a:	ee e2       	ldi	r30, 0x2E	; 46
    161c:	f0 e0       	ldi	r31, 0x00	; 0
    161e:	80 81       	ld	r24, Z
    1620:	98 2f       	mov	r25, r24
    1622:	9e 7f       	andi	r25, 0xFE	; 254
    1624:	8c 81       	ldd	r24, Y+4	; 0x04
    1626:	86 95       	lsr	r24
    1628:	86 95       	lsr	r24
    162a:	89 2b       	or	r24, r25
    162c:	8c 93       	st	X, r24
    162e:	02 c0       	rjmp	.+4      	; 0x1634 <MSPI_stderrInit+0x8e>
		
	}
	else 
	{
		L_stderrState=E_NOK;
    1630:	81 e0       	ldi	r24, 0x01	; 1
    1632:	89 83       	std	Y+1, r24	; 0x01
		
	}
	return  L_stderrState;
    1634:	89 81       	ldd	r24, Y+1	; 0x01
}
    1636:	0f 90       	pop	r0
    1638:	0f 90       	pop	r0
    163a:	0f 90       	pop	r0
    163c:	0f 90       	pop	r0
    163e:	0f 90       	pop	r0
    1640:	cf 91       	pop	r28
    1642:	df 91       	pop	r29
    1644:	08 95       	ret

00001646 <MSPI_voidEnableSPI>:

void MSPI_voidEnableSPI(void)
{
    1646:	df 93       	push	r29
    1648:	cf 93       	push	r28
    164a:	cd b7       	in	r28, 0x3d	; 61
    164c:	de b7       	in	r29, 0x3e	; 62
	SET_BIT(SPCR,SPE);
    164e:	ad e2       	ldi	r26, 0x2D	; 45
    1650:	b0 e0       	ldi	r27, 0x00	; 0
    1652:	ed e2       	ldi	r30, 0x2D	; 45
    1654:	f0 e0       	ldi	r31, 0x00	; 0
    1656:	80 81       	ld	r24, Z
    1658:	80 64       	ori	r24, 0x40	; 64
    165a:	8c 93       	st	X, r24
}
    165c:	cf 91       	pop	r28
    165e:	df 91       	pop	r29
    1660:	08 95       	ret

00001662 <MSPI_voidDisableSPI>:
void MSPI_voidDisableSPI(void)
{
    1662:	df 93       	push	r29
    1664:	cf 93       	push	r28
    1666:	cd b7       	in	r28, 0x3d	; 61
    1668:	de b7       	in	r29, 0x3e	; 62
	CLEAR_BIT(SPCR,SPE);
    166a:	ad e2       	ldi	r26, 0x2D	; 45
    166c:	b0 e0       	ldi	r27, 0x00	; 0
    166e:	ed e2       	ldi	r30, 0x2D	; 45
    1670:	f0 e0       	ldi	r31, 0x00	; 0
    1672:	80 81       	ld	r24, Z
    1674:	8f 7b       	andi	r24, 0xBF	; 191
    1676:	8c 93       	st	X, r24
}
    1678:	cf 91       	pop	r28
    167a:	df 91       	pop	r29
    167c:	08 95       	ret

0000167e <MSPI_voidEnableInterrupt>:

void MSPI_voidEnableInterrupt(void)
{
    167e:	df 93       	push	r29
    1680:	cf 93       	push	r28
    1682:	cd b7       	in	r28, 0x3d	; 61
    1684:	de b7       	in	r29, 0x3e	; 62
	SET_BIT(SPCR,SPIE);
    1686:	ad e2       	ldi	r26, 0x2D	; 45
    1688:	b0 e0       	ldi	r27, 0x00	; 0
    168a:	ed e2       	ldi	r30, 0x2D	; 45
    168c:	f0 e0       	ldi	r31, 0x00	; 0
    168e:	80 81       	ld	r24, Z
    1690:	80 68       	ori	r24, 0x80	; 128
    1692:	8c 93       	st	X, r24
}
    1694:	cf 91       	pop	r28
    1696:	df 91       	pop	r29
    1698:	08 95       	ret

0000169a <MSPI_voidDisableInterrupt>:
void MSPI_voidDisableInterrupt(void)
{
    169a:	df 93       	push	r29
    169c:	cf 93       	push	r28
    169e:	cd b7       	in	r28, 0x3d	; 61
    16a0:	de b7       	in	r29, 0x3e	; 62
	CLEAR_BIT(SPCR,SPIE);
    16a2:	ad e2       	ldi	r26, 0x2D	; 45
    16a4:	b0 e0       	ldi	r27, 0x00	; 0
    16a6:	ed e2       	ldi	r30, 0x2D	; 45
    16a8:	f0 e0       	ldi	r31, 0x00	; 0
    16aa:	80 81       	ld	r24, Z
    16ac:	8f 77       	andi	r24, 0x7F	; 127
    16ae:	8c 93       	st	X, r24
}
    16b0:	cf 91       	pop	r28
    16b2:	df 91       	pop	r29
    16b4:	08 95       	ret

000016b6 <MSPI_stderrSetCallback>:

STD_error_t MSPI_stderrSetCallback(void (*ARG_pvoidfUserFunction)(void))
{
    16b6:	df 93       	push	r29
    16b8:	cf 93       	push	r28
    16ba:	00 d0       	rcall	.+0      	; 0x16bc <MSPI_stderrSetCallback+0x6>
    16bc:	0f 92       	push	r0
    16be:	cd b7       	in	r28, 0x3d	; 61
    16c0:	de b7       	in	r29, 0x3e	; 62
    16c2:	9b 83       	std	Y+3, r25	; 0x03
    16c4:	8a 83       	std	Y+2, r24	; 0x02
	STD_error_t L_stderrState=E_OK;
    16c6:	19 82       	std	Y+1, r1	; 0x01
	if(NULL_POINTER != ARG_pvoidfUserFunction)
    16c8:	8a 81       	ldd	r24, Y+2	; 0x02
    16ca:	9b 81       	ldd	r25, Y+3	; 0x03
    16cc:	00 97       	sbiw	r24, 0x00	; 0
    16ce:	39 f0       	breq	.+14     	; 0x16de <MSPI_stderrSetCallback+0x28>
	{
		pvoidfUserFuncCallback= ARG_pvoidfUserFunction;
    16d0:	8a 81       	ldd	r24, Y+2	; 0x02
    16d2:	9b 81       	ldd	r25, Y+3	; 0x03
    16d4:	90 93 69 00 	sts	0x0069, r25
    16d8:	80 93 68 00 	sts	0x0068, r24
    16dc:	02 c0       	rjmp	.+4      	; 0x16e2 <MSPI_stderrSetCallback+0x2c>
	}
	else 
	{
		L_stderrState=E_NOK;
    16de:	81 e0       	ldi	r24, 0x01	; 1
    16e0:	89 83       	std	Y+1, r24	; 0x01
	}
	return L_stderrState;
    16e2:	89 81       	ldd	r24, Y+1	; 0x01
}
    16e4:	0f 90       	pop	r0
    16e6:	0f 90       	pop	r0
    16e8:	0f 90       	pop	r0
    16ea:	cf 91       	pop	r28
    16ec:	df 91       	pop	r29
    16ee:	08 95       	ret

000016f0 <MSPI_voidSPIFFlagPolling>:

void MSPI_voidSPIFFlagPolling(void)
{
    16f0:	df 93       	push	r29
    16f2:	cf 93       	push	r28
    16f4:	cd b7       	in	r28, 0x3d	; 61
    16f6:	de b7       	in	r29, 0x3e	; 62
	while(!GET_BIT(SPSR,SPIF));
    16f8:	ee e2       	ldi	r30, 0x2E	; 46
    16fa:	f0 e0       	ldi	r31, 0x00	; 0
    16fc:	80 81       	ld	r24, Z
    16fe:	88 23       	and	r24, r24
    1700:	dc f7       	brge	.-10     	; 0x16f8 <MSPI_voidSPIFFlagPolling+0x8>
}
    1702:	cf 91       	pop	r28
    1704:	df 91       	pop	r29
    1706:	08 95       	ret

00001708 <MSPI_charTranceive>:

char  MSPI_charTranceive(char ARG_u8CharData)
{
    1708:	df 93       	push	r29
    170a:	cf 93       	push	r28
    170c:	0f 92       	push	r0
    170e:	cd b7       	in	r28, 0x3d	; 61
    1710:	de b7       	in	r29, 0x3e	; 62
    1712:	89 83       	std	Y+1, r24	; 0x01
	SPDR= ARG_u8CharData;
    1714:	ef e2       	ldi	r30, 0x2F	; 47
    1716:	f0 e0       	ldi	r31, 0x00	; 0
    1718:	89 81       	ldd	r24, Y+1	; 0x01
    171a:	80 83       	st	Z, r24
	MSPI_voidSPIFFlagPolling();
    171c:	0e 94 78 0b 	call	0x16f0	; 0x16f0 <MSPI_voidSPIFFlagPolling>
	ARG_u8CharData=SPDR; 
    1720:	ef e2       	ldi	r30, 0x2F	; 47
    1722:	f0 e0       	ldi	r31, 0x00	; 0
    1724:	80 81       	ld	r24, Z
    1726:	89 83       	std	Y+1, r24	; 0x01
	return ARG_u8CharData;
    1728:	89 81       	ldd	r24, Y+1	; 0x01
}
    172a:	0f 90       	pop	r0
    172c:	cf 91       	pop	r28
    172e:	df 91       	pop	r29
    1730:	08 95       	ret

00001732 <main>:
#define MSPI_MISO											6
#define MSPI_SCK											7


int main(void)
{
    1732:	df 93       	push	r29
    1734:	cf 93       	push	r28
    1736:	cd b7       	in	r28, 0x3d	; 61
    1738:	de b7       	in	r29, 0x3e	; 62
    173a:	64 97       	sbiw	r28, 0x14	; 20
    173c:	0f b6       	in	r0, 0x3f	; 63
    173e:	f8 94       	cli
    1740:	de bf       	out	0x3e, r29	; 62
    1742:	0f be       	out	0x3f, r0	; 63
    1744:	cd bf       	out	0x3d, r28	; 61
	u8 L_u8Data = 0;
    1746:	1f 86       	std	Y+15, r1	; 0x0f
	u8 L_u8Button1=1,L_u8Button2=1,L_u8Button3=1,L_u8SS1=1,L_u8SS2=1;
    1748:	81 e0       	ldi	r24, 0x01	; 1
    174a:	88 8b       	std	Y+16, r24	; 0x10
    174c:	81 e0       	ldi	r24, 0x01	; 1
    174e:	89 8b       	std	Y+17, r24	; 0x11
    1750:	81 e0       	ldi	r24, 0x01	; 1
    1752:	8a 8b       	std	Y+18, r24	; 0x12
    1754:	81 e0       	ldi	r24, 0x01	; 1
    1756:	8b 8b       	std	Y+19, r24	; 0x13
    1758:	81 e0       	ldi	r24, 0x01	; 1
    175a:	8c 8b       	std	Y+20, r24	; 0x14

	MDIO_stderrSetPinDirection(MDIO_PORTA, 0 , MDIO_INPUT_PULLUP);
    175c:	81 e0       	ldi	r24, 0x01	; 1
    175e:	60 e0       	ldi	r22, 0x00	; 0
    1760:	43 e0       	ldi	r20, 0x03	; 3
    1762:	0e 94 88 06 	call	0xd10	; 0xd10 <MDIO_stderrSetPinDirection>
	MDIO_stderrSetPinDirection(MDIO_PORTA, 1 , MDIO_INPUT_PULLUP);
    1766:	81 e0       	ldi	r24, 0x01	; 1
    1768:	61 e0       	ldi	r22, 0x01	; 1
    176a:	43 e0       	ldi	r20, 0x03	; 3
    176c:	0e 94 88 06 	call	0xd10	; 0xd10 <MDIO_stderrSetPinDirection>
	MDIO_stderrSetPinDirection(MDIO_PORTA, 2 , MDIO_INPUT_PULLUP);
    1770:	81 e0       	ldi	r24, 0x01	; 1
    1772:	62 e0       	ldi	r22, 0x02	; 2
    1774:	43 e0       	ldi	r20, 0x03	; 3
    1776:	0e 94 88 06 	call	0xd10	; 0xd10 <MDIO_stderrSetPinDirection>

	MDIO_stderrSetPinDirection(MDIO_PORTA, 3 , MDIO_INPUT_PULLUP);
    177a:	81 e0       	ldi	r24, 0x01	; 1
    177c:	63 e0       	ldi	r22, 0x03	; 3
    177e:	43 e0       	ldi	r20, 0x03	; 3
    1780:	0e 94 88 06 	call	0xd10	; 0xd10 <MDIO_stderrSetPinDirection>
	MDIO_stderrSetPinDirection(MDIO_PORTA, 4 , MDIO_INPUT_PULLUP);
    1784:	81 e0       	ldi	r24, 0x01	; 1
    1786:	64 e0       	ldi	r22, 0x04	; 4
    1788:	43 e0       	ldi	r20, 0x03	; 3
    178a:	0e 94 88 06 	call	0xd10	; 0xd10 <MDIO_stderrSetPinDirection>


	MDIO_stderrSetPinDirection(MSPI_PORT, MSPI_SS1  , MDIO_OUTPUT);
    178e:	82 e0       	ldi	r24, 0x02	; 2
    1790:	63 e0       	ldi	r22, 0x03	; 3
    1792:	41 e0       	ldi	r20, 0x01	; 1
    1794:	0e 94 88 06 	call	0xd10	; 0xd10 <MDIO_stderrSetPinDirection>
	MDIO_stderrSetPinDirection(MSPI_PORT, MSPI_SS2 , MDIO_OUTPUT);
    1798:	82 e0       	ldi	r24, 0x02	; 2
    179a:	64 e0       	ldi	r22, 0x04	; 4
    179c:	41 e0       	ldi	r20, 0x01	; 1
    179e:	0e 94 88 06 	call	0xd10	; 0xd10 <MDIO_stderrSetPinDirection>
	MDIO_stderrSetPinDirection(MSPI_PORT, MSPI_MOSI, MDIO_OUTPUT);
    17a2:	82 e0       	ldi	r24, 0x02	; 2
    17a4:	65 e0       	ldi	r22, 0x05	; 5
    17a6:	41 e0       	ldi	r20, 0x01	; 1
    17a8:	0e 94 88 06 	call	0xd10	; 0xd10 <MDIO_stderrSetPinDirection>
	MDIO_stderrSetPinDirection(MSPI_PORT, MSPI_SCK , MDIO_OUTPUT);
    17ac:	82 e0       	ldi	r24, 0x02	; 2
    17ae:	67 e0       	ldi	r22, 0x07	; 7
    17b0:	41 e0       	ldi	r20, 0x01	; 1
    17b2:	0e 94 88 06 	call	0xd10	; 0xd10 <MDIO_stderrSetPinDirection>

	MDIO_stderrSetPinDirection(MDIO_PORTA, 7, MDIO_OUTPUT);
    17b6:	81 e0       	ldi	r24, 0x01	; 1
    17b8:	67 e0       	ldi	r22, 0x07	; 7
    17ba:	41 e0       	ldi	r20, 0x01	; 1
    17bc:	0e 94 88 06 	call	0xd10	; 0xd10 <MDIO_stderrSetPinDirection>

	MSPI_stderrInit(MSPI_MODE_MASTER, MSPI_POLPHA_NONINVERTING_LEADING, MSPI_RATE_FOSC_4 , MSPI_DATA_MSB);
    17c0:	80 e1       	ldi	r24, 0x10	; 16
    17c2:	60 e0       	ldi	r22, 0x00	; 0
    17c4:	40 e0       	ldi	r20, 0x00	; 0
    17c6:	20 e0       	ldi	r18, 0x00	; 0
    17c8:	0e 94 d3 0a 	call	0x15a6	; 0x15a6 <MSPI_stderrInit>
	MSPI_voidEnableSPI();
    17cc:	0e 94 23 0b 	call	0x1646	; 0x1646 <MSPI_voidEnableSPI>
	MDIO_stderrSetPinValue(MDIO_PORTB,MSPI_SS1, MDIO_HIGH);
    17d0:	82 e0       	ldi	r24, 0x02	; 2
    17d2:	63 e0       	ldi	r22, 0x03	; 3
    17d4:	42 e0       	ldi	r20, 0x02	; 2
    17d6:	0e 94 7f 08 	call	0x10fe	; 0x10fe <MDIO_stderrSetPinValue>
	MDIO_stderrSetPinValue(MDIO_PORTB,MSPI_SS2, MDIO_HIGH);
    17da:	82 e0       	ldi	r24, 0x02	; 2
    17dc:	64 e0       	ldi	r22, 0x04	; 4
    17de:	42 e0       	ldi	r20, 0x02	; 2
    17e0:	0e 94 7f 08 	call	0x10fe	; 0x10fe <MDIO_stderrSetPinValue>

	while(1)
	{
		//MSPI_charTranceive(0);

		MDIO_stderrGetPinValue(&L_u8Button1, MDIO_PORTA, 0);
    17e4:	ce 01       	movw	r24, r28
    17e6:	40 96       	adiw	r24, 0x10	; 16
    17e8:	61 e0       	ldi	r22, 0x01	; 1
    17ea:	40 e0       	ldi	r20, 0x00	; 0
    17ec:	0e 94 a4 09 	call	0x1348	; 0x1348 <MDIO_stderrGetPinValue>
		MDIO_stderrGetPinValue(&L_u8Button2, MDIO_PORTA, 1);
    17f0:	ce 01       	movw	r24, r28
    17f2:	41 96       	adiw	r24, 0x11	; 17
    17f4:	61 e0       	ldi	r22, 0x01	; 1
    17f6:	41 e0       	ldi	r20, 0x01	; 1
    17f8:	0e 94 a4 09 	call	0x1348	; 0x1348 <MDIO_stderrGetPinValue>
		MDIO_stderrGetPinValue(&L_u8Button3, MDIO_PORTA, 2);
    17fc:	ce 01       	movw	r24, r28
    17fe:	42 96       	adiw	r24, 0x12	; 18
    1800:	61 e0       	ldi	r22, 0x01	; 1
    1802:	42 e0       	ldi	r20, 0x02	; 2
    1804:	0e 94 a4 09 	call	0x1348	; 0x1348 <MDIO_stderrGetPinValue>

		if(0==L_u8Button1)
    1808:	88 89       	ldd	r24, Y+16	; 0x10
    180a:	88 23       	and	r24, r24
    180c:	f9 f4       	brne	.+62     	; 0x184c <main+0x11a>
		{
			MDIO_stderrGetPinValue(&L_u8SS1, MDIO_PORTA, 3);
    180e:	ce 01       	movw	r24, r28
    1810:	43 96       	adiw	r24, 0x13	; 19
    1812:	61 e0       	ldi	r22, 0x01	; 1
    1814:	43 e0       	ldi	r20, 0x03	; 3
    1816:	0e 94 a4 09 	call	0x1348	; 0x1348 <MDIO_stderrGetPinValue>
			MDIO_stderrGetPinValue(&L_u8SS2, MDIO_PORTA, 4);
    181a:	ce 01       	movw	r24, r28
    181c:	44 96       	adiw	r24, 0x14	; 20
    181e:	61 e0       	ldi	r22, 0x01	; 1
    1820:	44 e0       	ldi	r20, 0x04	; 4
    1822:	0e 94 a4 09 	call	0x1348	; 0x1348 <MDIO_stderrGetPinValue>
//			if(L_u8SS1==0 && L_u8SS1==0 ){
//				MDIO_stderrSetPinValue(MDIO_PORTB,MSPI_SS1, MDIO_LOW);
//				MDIO_stderrSetPinValue(MDIO_PORTB,MSPI_SS2, MDIO_LOW);
//			}
			 if(L_u8SS1==0){
    1826:	8b 89       	ldd	r24, Y+19	; 0x13
    1828:	88 23       	and	r24, r24
    182a:	31 f4       	brne	.+12     	; 0x1838 <main+0x106>
				MDIO_stderrSetPinValue(MDIO_PORTB,MSPI_SS1, MDIO_LOW);
    182c:	82 e0       	ldi	r24, 0x02	; 2
    182e:	63 e0       	ldi	r22, 0x03	; 3
    1830:	41 e0       	ldi	r20, 0x01	; 1
    1832:	0e 94 7f 08 	call	0x10fe	; 0x10fe <MDIO_stderrSetPinValue>
    1836:	05 c0       	rjmp	.+10     	; 0x1842 <main+0x110>
			}
			else
			{
				MDIO_stderrSetPinValue(MDIO_PORTB,MSPI_SS2, MDIO_LOW);
    1838:	82 e0       	ldi	r24, 0x02	; 2
    183a:	64 e0       	ldi	r22, 0x04	; 4
    183c:	41 e0       	ldi	r20, 0x01	; 1
    183e:	0e 94 7f 08 	call	0x10fe	; 0x10fe <MDIO_stderrSetPinValue>
			}
			 L_u8Data=MSPI_charTranceive('1');
    1842:	81 e3       	ldi	r24, 0x31	; 49
    1844:	0e 94 84 0b 	call	0x1708	; 0x1708 <MSPI_charTranceive>
    1848:	8f 87       	std	Y+15, r24	; 0x0f
    184a:	43 c0       	rjmp	.+134    	; 0x18d2 <main+0x1a0>

		}
		else if(0==L_u8Button2)
    184c:	89 89       	ldd	r24, Y+17	; 0x11
    184e:	88 23       	and	r24, r24
    1850:	f9 f4       	brne	.+62     	; 0x1890 <main+0x15e>
		{
			MDIO_stderrGetPinValue(&L_u8SS1, MDIO_PORTA, 3);
    1852:	ce 01       	movw	r24, r28
    1854:	43 96       	adiw	r24, 0x13	; 19
    1856:	61 e0       	ldi	r22, 0x01	; 1
    1858:	43 e0       	ldi	r20, 0x03	; 3
    185a:	0e 94 a4 09 	call	0x1348	; 0x1348 <MDIO_stderrGetPinValue>
			MDIO_stderrGetPinValue(&L_u8SS2, MDIO_PORTA, 4);
    185e:	ce 01       	movw	r24, r28
    1860:	44 96       	adiw	r24, 0x14	; 20
    1862:	61 e0       	ldi	r22, 0x01	; 1
    1864:	44 e0       	ldi	r20, 0x04	; 4
    1866:	0e 94 a4 09 	call	0x1348	; 0x1348 <MDIO_stderrGetPinValue>
//			if(L_u8SS1==0 && L_u8SS1==0 ){
//				MDIO_stderrSetPinValue(MDIO_PORTB,MSPI_SS1, MDIO_LOW);
//				MDIO_stderrSetPinValue(MDIO_PORTB,MSPI_SS2, MDIO_LOW);
//			}
			if(L_u8SS1==0){
    186a:	8b 89       	ldd	r24, Y+19	; 0x13
    186c:	88 23       	and	r24, r24
    186e:	31 f4       	brne	.+12     	; 0x187c <main+0x14a>
				MDIO_stderrSetPinValue(MDIO_PORTB,MSPI_SS1, MDIO_LOW);
    1870:	82 e0       	ldi	r24, 0x02	; 2
    1872:	63 e0       	ldi	r22, 0x03	; 3
    1874:	41 e0       	ldi	r20, 0x01	; 1
    1876:	0e 94 7f 08 	call	0x10fe	; 0x10fe <MDIO_stderrSetPinValue>
    187a:	05 c0       	rjmp	.+10     	; 0x1886 <main+0x154>
			}
			else
			{
				MDIO_stderrSetPinValue(MDIO_PORTB,MSPI_SS2, MDIO_LOW);
    187c:	82 e0       	ldi	r24, 0x02	; 2
    187e:	64 e0       	ldi	r22, 0x04	; 4
    1880:	41 e0       	ldi	r20, 0x01	; 1
    1882:	0e 94 7f 08 	call	0x10fe	; 0x10fe <MDIO_stderrSetPinValue>
			}
			L_u8Data=MSPI_charTranceive('2');
    1886:	82 e3       	ldi	r24, 0x32	; 50
    1888:	0e 94 84 0b 	call	0x1708	; 0x1708 <MSPI_charTranceive>
    188c:	8f 87       	std	Y+15, r24	; 0x0f
    188e:	21 c0       	rjmp	.+66     	; 0x18d2 <main+0x1a0>
		}
		else if(0==L_u8Button3)
    1890:	8a 89       	ldd	r24, Y+18	; 0x12
    1892:	88 23       	and	r24, r24
    1894:	f1 f4       	brne	.+60     	; 0x18d2 <main+0x1a0>
		{
			MDIO_stderrGetPinValue(&L_u8SS1, MDIO_PORTA, 3);
    1896:	ce 01       	movw	r24, r28
    1898:	43 96       	adiw	r24, 0x13	; 19
    189a:	61 e0       	ldi	r22, 0x01	; 1
    189c:	43 e0       	ldi	r20, 0x03	; 3
    189e:	0e 94 a4 09 	call	0x1348	; 0x1348 <MDIO_stderrGetPinValue>
			MDIO_stderrGetPinValue(&L_u8SS2, MDIO_PORTA, 4);
    18a2:	ce 01       	movw	r24, r28
    18a4:	44 96       	adiw	r24, 0x14	; 20
    18a6:	61 e0       	ldi	r22, 0x01	; 1
    18a8:	44 e0       	ldi	r20, 0x04	; 4
    18aa:	0e 94 a4 09 	call	0x1348	; 0x1348 <MDIO_stderrGetPinValue>
//			if(L_u8SS1==0 && L_u8SS1==0 ){
//				MDIO_stderrSetPinValue(MDIO_PORTB,MSPI_SS1, MDIO_LOW);
//				MDIO_stderrSetPinValue(MDIO_PORTB,MSPI_SS2, MDIO_LOW);
//			}
			 if(L_u8SS1==0){
    18ae:	8b 89       	ldd	r24, Y+19	; 0x13
    18b0:	88 23       	and	r24, r24
    18b2:	31 f4       	brne	.+12     	; 0x18c0 <main+0x18e>
				MDIO_stderrSetPinValue(MDIO_PORTB,MSPI_SS1, MDIO_LOW);
    18b4:	82 e0       	ldi	r24, 0x02	; 2
    18b6:	63 e0       	ldi	r22, 0x03	; 3
    18b8:	41 e0       	ldi	r20, 0x01	; 1
    18ba:	0e 94 7f 08 	call	0x10fe	; 0x10fe <MDIO_stderrSetPinValue>
    18be:	05 c0       	rjmp	.+10     	; 0x18ca <main+0x198>
			}
			else
			{
				MDIO_stderrSetPinValue(MDIO_PORTB,MSPI_SS2, MDIO_LOW);
    18c0:	82 e0       	ldi	r24, 0x02	; 2
    18c2:	64 e0       	ldi	r22, 0x04	; 4
    18c4:	41 e0       	ldi	r20, 0x01	; 1
    18c6:	0e 94 7f 08 	call	0x10fe	; 0x10fe <MDIO_stderrSetPinValue>
			}
			 L_u8Data=MSPI_charTranceive('3');
    18ca:	83 e3       	ldi	r24, 0x33	; 51
    18cc:	0e 94 84 0b 	call	0x1708	; 0x1708 <MSPI_charTranceive>
    18d0:	8f 87       	std	Y+15, r24	; 0x0f
		}
		if(L_u8Data=='5' ){MDIO_stderrTogglePinValue(MDIO_PORTA,7);}
    18d2:	8f 85       	ldd	r24, Y+15	; 0x0f
    18d4:	85 33       	cpi	r24, 0x35	; 53
    18d6:	21 f4       	brne	.+8      	; 0x18e0 <main+0x1ae>
    18d8:	81 e0       	ldi	r24, 0x01	; 1
    18da:	67 e0       	ldi	r22, 0x07	; 7
    18dc:	0e 94 3e 0a 	call	0x147c	; 0x147c <MDIO_stderrTogglePinValue>

		MDIO_stderrSetPinValue(MDIO_PORTB,MSPI_SS1, MDIO_HIGH);
    18e0:	82 e0       	ldi	r24, 0x02	; 2
    18e2:	63 e0       	ldi	r22, 0x03	; 3
    18e4:	42 e0       	ldi	r20, 0x02	; 2
    18e6:	0e 94 7f 08 	call	0x10fe	; 0x10fe <MDIO_stderrSetPinValue>
		MDIO_stderrSetPinValue(MDIO_PORTB,MSPI_SS2, MDIO_HIGH);
    18ea:	82 e0       	ldi	r24, 0x02	; 2
    18ec:	64 e0       	ldi	r22, 0x04	; 4
    18ee:	42 e0       	ldi	r20, 0x02	; 2
    18f0:	0e 94 7f 08 	call	0x10fe	; 0x10fe <MDIO_stderrSetPinValue>
    18f4:	80 e0       	ldi	r24, 0x00	; 0
    18f6:	90 e0       	ldi	r25, 0x00	; 0
    18f8:	a6 e9       	ldi	r26, 0x96	; 150
    18fa:	b3 e4       	ldi	r27, 0x43	; 67
    18fc:	8b 87       	std	Y+11, r24	; 0x0b
    18fe:	9c 87       	std	Y+12, r25	; 0x0c
    1900:	ad 87       	std	Y+13, r26	; 0x0d
    1902:	be 87       	std	Y+14, r27	; 0x0e
 */
void
_delay_ms(double __ms)
{
	uint16_t __ticks;
	double __tmp = ((F_CPU) / 4e3) * __ms;
    1904:	6b 85       	ldd	r22, Y+11	; 0x0b
    1906:	7c 85       	ldd	r23, Y+12	; 0x0c
    1908:	8d 85       	ldd	r24, Y+13	; 0x0d
    190a:	9e 85       	ldd	r25, Y+14	; 0x0e
    190c:	20 e0       	ldi	r18, 0x00	; 0
    190e:	30 e0       	ldi	r19, 0x00	; 0
    1910:	4a ef       	ldi	r20, 0xFA	; 250
    1912:	54 e4       	ldi	r21, 0x44	; 68
    1914:	0e 94 1f 02 	call	0x43e	; 0x43e <__mulsf3>
    1918:	dc 01       	movw	r26, r24
    191a:	cb 01       	movw	r24, r22
    191c:	8f 83       	std	Y+7, r24	; 0x07
    191e:	98 87       	std	Y+8, r25	; 0x08
    1920:	a9 87       	std	Y+9, r26	; 0x09
    1922:	ba 87       	std	Y+10, r27	; 0x0a
	if (__tmp < 1.0)
    1924:	6f 81       	ldd	r22, Y+7	; 0x07
    1926:	78 85       	ldd	r23, Y+8	; 0x08
    1928:	89 85       	ldd	r24, Y+9	; 0x09
    192a:	9a 85       	ldd	r25, Y+10	; 0x0a
    192c:	20 e0       	ldi	r18, 0x00	; 0
    192e:	30 e0       	ldi	r19, 0x00	; 0
    1930:	40 e8       	ldi	r20, 0x80	; 128
    1932:	5f e3       	ldi	r21, 0x3F	; 63
    1934:	0e 94 79 03 	call	0x6f2	; 0x6f2 <__ltsf2>
    1938:	88 23       	and	r24, r24
    193a:	2c f4       	brge	.+10     	; 0x1946 <main+0x214>
		__ticks = 1;
    193c:	81 e0       	ldi	r24, 0x01	; 1
    193e:	90 e0       	ldi	r25, 0x00	; 0
    1940:	9e 83       	std	Y+6, r25	; 0x06
    1942:	8d 83       	std	Y+5, r24	; 0x05
    1944:	3f c0       	rjmp	.+126    	; 0x19c4 <main+0x292>
	else if (__tmp > 65535)
    1946:	6f 81       	ldd	r22, Y+7	; 0x07
    1948:	78 85       	ldd	r23, Y+8	; 0x08
    194a:	89 85       	ldd	r24, Y+9	; 0x09
    194c:	9a 85       	ldd	r25, Y+10	; 0x0a
    194e:	20 e0       	ldi	r18, 0x00	; 0
    1950:	3f ef       	ldi	r19, 0xFF	; 255
    1952:	4f e7       	ldi	r20, 0x7F	; 127
    1954:	57 e4       	ldi	r21, 0x47	; 71
    1956:	0e 94 19 03 	call	0x632	; 0x632 <__gtsf2>
    195a:	18 16       	cp	r1, r24
    195c:	4c f5       	brge	.+82     	; 0x19b0 <main+0x27e>
	{
		//	__ticks = requested delay in 1/10 ms
		__ticks = (uint16_t) (__ms * 10.0);
    195e:	6b 85       	ldd	r22, Y+11	; 0x0b
    1960:	7c 85       	ldd	r23, Y+12	; 0x0c
    1962:	8d 85       	ldd	r24, Y+13	; 0x0d
    1964:	9e 85       	ldd	r25, Y+14	; 0x0e
    1966:	20 e0       	ldi	r18, 0x00	; 0
    1968:	30 e0       	ldi	r19, 0x00	; 0
    196a:	40 e2       	ldi	r20, 0x20	; 32
    196c:	51 e4       	ldi	r21, 0x41	; 65
    196e:	0e 94 1f 02 	call	0x43e	; 0x43e <__mulsf3>
    1972:	dc 01       	movw	r26, r24
    1974:	cb 01       	movw	r24, r22
    1976:	bc 01       	movw	r22, r24
    1978:	cd 01       	movw	r24, r26
    197a:	0e 94 49 00 	call	0x92	; 0x92 <__fixunssfsi>
    197e:	dc 01       	movw	r26, r24
    1980:	cb 01       	movw	r24, r22
    1982:	9e 83       	std	Y+6, r25	; 0x06
    1984:	8d 83       	std	Y+5, r24	; 0x05
    1986:	0f c0       	rjmp	.+30     	; 0x19a6 <main+0x274>
    1988:	88 ec       	ldi	r24, 0xC8	; 200
    198a:	90 e0       	ldi	r25, 0x00	; 0
    198c:	9c 83       	std	Y+4, r25	; 0x04
    198e:	8b 83       	std	Y+3, r24	; 0x03
    milliseconds can be achieved.
 */
void
_delay_loop_2(uint16_t __count)
{
	__asm__ volatile (
    1990:	8b 81       	ldd	r24, Y+3	; 0x03
    1992:	9c 81       	ldd	r25, Y+4	; 0x04
    1994:	01 97       	sbiw	r24, 0x01	; 1
    1996:	f1 f7       	brne	.-4      	; 0x1994 <main+0x262>
    1998:	9c 83       	std	Y+4, r25	; 0x04
    199a:	8b 83       	std	Y+3, r24	; 0x03
		while(__ticks)
		{
			// wait 1/10 ms
			_delay_loop_2(((F_CPU) / 4e3) / 10);
			__ticks --;
    199c:	8d 81       	ldd	r24, Y+5	; 0x05
    199e:	9e 81       	ldd	r25, Y+6	; 0x06
    19a0:	01 97       	sbiw	r24, 0x01	; 1
    19a2:	9e 83       	std	Y+6, r25	; 0x06
    19a4:	8d 83       	std	Y+5, r24	; 0x05
		__ticks = 1;
	else if (__tmp > 65535)
	{
		//	__ticks = requested delay in 1/10 ms
		__ticks = (uint16_t) (__ms * 10.0);
		while(__ticks)
    19a6:	8d 81       	ldd	r24, Y+5	; 0x05
    19a8:	9e 81       	ldd	r25, Y+6	; 0x06
    19aa:	00 97       	sbiw	r24, 0x00	; 0
    19ac:	69 f7       	brne	.-38     	; 0x1988 <main+0x256>
    19ae:	1a cf       	rjmp	.-460    	; 0x17e4 <main+0xb2>
			__ticks --;
		}
		return;
	}
	else
		__ticks = (uint16_t)__tmp;
    19b0:	6f 81       	ldd	r22, Y+7	; 0x07
    19b2:	78 85       	ldd	r23, Y+8	; 0x08
    19b4:	89 85       	ldd	r24, Y+9	; 0x09
    19b6:	9a 85       	ldd	r25, Y+10	; 0x0a
    19b8:	0e 94 49 00 	call	0x92	; 0x92 <__fixunssfsi>
    19bc:	dc 01       	movw	r26, r24
    19be:	cb 01       	movw	r24, r22
    19c0:	9e 83       	std	Y+6, r25	; 0x06
    19c2:	8d 83       	std	Y+5, r24	; 0x05
    19c4:	8d 81       	ldd	r24, Y+5	; 0x05
    19c6:	9e 81       	ldd	r25, Y+6	; 0x06
    19c8:	9a 83       	std	Y+2, r25	; 0x02
    19ca:	89 83       	std	Y+1, r24	; 0x01
    19cc:	89 81       	ldd	r24, Y+1	; 0x01
    19ce:	9a 81       	ldd	r25, Y+2	; 0x02
    19d0:	01 97       	sbiw	r24, 0x01	; 1
    19d2:	f1 f7       	brne	.-4      	; 0x19d0 <main+0x29e>
    19d4:	9a 83       	std	Y+2, r25	; 0x02
    19d6:	89 83       	std	Y+1, r24	; 0x01
    19d8:	05 cf       	rjmp	.-502    	; 0x17e4 <main+0xb2>

000019da <__prologue_saves__>:
    19da:	2f 92       	push	r2
    19dc:	3f 92       	push	r3
    19de:	4f 92       	push	r4
    19e0:	5f 92       	push	r5
    19e2:	6f 92       	push	r6
    19e4:	7f 92       	push	r7
    19e6:	8f 92       	push	r8
    19e8:	9f 92       	push	r9
    19ea:	af 92       	push	r10
    19ec:	bf 92       	push	r11
    19ee:	cf 92       	push	r12
    19f0:	df 92       	push	r13
    19f2:	ef 92       	push	r14
    19f4:	ff 92       	push	r15
    19f6:	0f 93       	push	r16
    19f8:	1f 93       	push	r17
    19fa:	cf 93       	push	r28
    19fc:	df 93       	push	r29
    19fe:	cd b7       	in	r28, 0x3d	; 61
    1a00:	de b7       	in	r29, 0x3e	; 62
    1a02:	ca 1b       	sub	r28, r26
    1a04:	db 0b       	sbc	r29, r27
    1a06:	0f b6       	in	r0, 0x3f	; 63
    1a08:	f8 94       	cli
    1a0a:	de bf       	out	0x3e, r29	; 62
    1a0c:	0f be       	out	0x3f, r0	; 63
    1a0e:	cd bf       	out	0x3d, r28	; 61
    1a10:	09 94       	ijmp

00001a12 <__epilogue_restores__>:
    1a12:	2a 88       	ldd	r2, Y+18	; 0x12
    1a14:	39 88       	ldd	r3, Y+17	; 0x11
    1a16:	48 88       	ldd	r4, Y+16	; 0x10
    1a18:	5f 84       	ldd	r5, Y+15	; 0x0f
    1a1a:	6e 84       	ldd	r6, Y+14	; 0x0e
    1a1c:	7d 84       	ldd	r7, Y+13	; 0x0d
    1a1e:	8c 84       	ldd	r8, Y+12	; 0x0c
    1a20:	9b 84       	ldd	r9, Y+11	; 0x0b
    1a22:	aa 84       	ldd	r10, Y+10	; 0x0a
    1a24:	b9 84       	ldd	r11, Y+9	; 0x09
    1a26:	c8 84       	ldd	r12, Y+8	; 0x08
    1a28:	df 80       	ldd	r13, Y+7	; 0x07
    1a2a:	ee 80       	ldd	r14, Y+6	; 0x06
    1a2c:	fd 80       	ldd	r15, Y+5	; 0x05
    1a2e:	0c 81       	ldd	r16, Y+4	; 0x04
    1a30:	1b 81       	ldd	r17, Y+3	; 0x03
    1a32:	aa 81       	ldd	r26, Y+2	; 0x02
    1a34:	b9 81       	ldd	r27, Y+1	; 0x01
    1a36:	ce 0f       	add	r28, r30
    1a38:	d1 1d       	adc	r29, r1
    1a3a:	0f b6       	in	r0, 0x3f	; 63
    1a3c:	f8 94       	cli
    1a3e:	de bf       	out	0x3e, r29	; 62
    1a40:	0f be       	out	0x3f, r0	; 63
    1a42:	cd bf       	out	0x3d, r28	; 61
    1a44:	ed 01       	movw	r28, r26
    1a46:	08 95       	ret

00001a48 <_exit>:
    1a48:	f8 94       	cli

00001a4a <__stop_program>:
    1a4a:	ff cf       	rjmp	.-2      	; 0x1a4a <__stop_program>
