
owndriverLCD.elf:     file format elf32-avr

Sections:
Idx Name          Size      VMA       LMA       File off  Algn
  0 .text         00001bf6  00000000  00000000  00000074  2**1
                  CONTENTS, ALLOC, LOAD, READONLY, CODE
  1 .data         0000000e  00800060  00001bf6  00001c6a  2**0
                  CONTENTS, ALLOC, LOAD, DATA
  2 .stab         00001044  00000000  00000000  00001c78  2**2
                  CONTENTS, READONLY, DEBUGGING
  3 .stabstr      000007f3  00000000  00000000  00002cbc  2**0
                  CONTENTS, READONLY, DEBUGGING
  4 .debug_aranges 00000140  00000000  00000000  000034af  2**0
                  CONTENTS, READONLY, DEBUGGING
  5 .debug_pubnames 00000170  00000000  00000000  000035ef  2**0
                  CONTENTS, READONLY, DEBUGGING
  6 .debug_info   00001c49  00000000  00000000  0000375f  2**0
                  CONTENTS, READONLY, DEBUGGING
  7 .debug_abbrev 00000eeb  00000000  00000000  000053a8  2**0
                  CONTENTS, READONLY, DEBUGGING
  8 .debug_line   00000dad  00000000  00000000  00006293  2**0
                  CONTENTS, READONLY, DEBUGGING
  9 .debug_frame  00000160  00000000  00000000  00007040  2**2
                  CONTENTS, READONLY, DEBUGGING
 10 .debug_str    0000028d  00000000  00000000  000071a0  2**0
                  CONTENTS, READONLY, DEBUGGING
 11 .debug_loc    000007ce  00000000  00000000  0000742d  2**0
                  CONTENTS, READONLY, DEBUGGING
 12 .debug_ranges 00000050  00000000  00000000  00007bfb  2**0
                  CONTENTS, READONLY, DEBUGGING

Disassembly of section .text:

00000000 <__vectors>:
       0:	0c 94 2a 00 	jmp	0x54	; 0x54 <__ctors_end>
       4:	0c 94 3f 00 	jmp	0x7e	; 0x7e <__bad_interrupt>
       8:	0c 94 3f 00 	jmp	0x7e	; 0x7e <__bad_interrupt>
       c:	0c 94 3f 00 	jmp	0x7e	; 0x7e <__bad_interrupt>
      10:	0c 94 3f 00 	jmp	0x7e	; 0x7e <__bad_interrupt>
      14:	0c 94 3f 00 	jmp	0x7e	; 0x7e <__bad_interrupt>
      18:	0c 94 3f 00 	jmp	0x7e	; 0x7e <__bad_interrupt>
      1c:	0c 94 3f 00 	jmp	0x7e	; 0x7e <__bad_interrupt>
      20:	0c 94 3f 00 	jmp	0x7e	; 0x7e <__bad_interrupt>
      24:	0c 94 3f 00 	jmp	0x7e	; 0x7e <__bad_interrupt>
      28:	0c 94 3f 00 	jmp	0x7e	; 0x7e <__bad_interrupt>
      2c:	0c 94 3f 00 	jmp	0x7e	; 0x7e <__bad_interrupt>
      30:	0c 94 3f 00 	jmp	0x7e	; 0x7e <__bad_interrupt>
      34:	0c 94 3f 00 	jmp	0x7e	; 0x7e <__bad_interrupt>
      38:	0c 94 3f 00 	jmp	0x7e	; 0x7e <__bad_interrupt>
      3c:	0c 94 3f 00 	jmp	0x7e	; 0x7e <__bad_interrupt>
      40:	0c 94 3f 00 	jmp	0x7e	; 0x7e <__bad_interrupt>
      44:	0c 94 3f 00 	jmp	0x7e	; 0x7e <__bad_interrupt>
      48:	0c 94 3f 00 	jmp	0x7e	; 0x7e <__bad_interrupt>
      4c:	0c 94 3f 00 	jmp	0x7e	; 0x7e <__bad_interrupt>
      50:	0c 94 3f 00 	jmp	0x7e	; 0x7e <__bad_interrupt>

00000054 <__ctors_end>:
      54:	11 24       	eor	r1, r1
      56:	1f be       	out	0x3f, r1	; 63
      58:	cf e5       	ldi	r28, 0x5F	; 95
      5a:	d8 e0       	ldi	r29, 0x08	; 8
      5c:	de bf       	out	0x3e, r29	; 62
      5e:	cd bf       	out	0x3d, r28	; 61

00000060 <__do_copy_data>:
      60:	10 e0       	ldi	r17, 0x00	; 0
      62:	a0 e6       	ldi	r26, 0x60	; 96
      64:	b0 e0       	ldi	r27, 0x00	; 0
      66:	e6 ef       	ldi	r30, 0xF6	; 246
      68:	fb e1       	ldi	r31, 0x1B	; 27
      6a:	02 c0       	rjmp	.+4      	; 0x70 <.do_copy_data_start>

0000006c <.do_copy_data_loop>:
      6c:	05 90       	lpm	r0, Z+
      6e:	0d 92       	st	X+, r0

00000070 <.do_copy_data_start>:
      70:	ae 36       	cpi	r26, 0x6E	; 110
      72:	b1 07       	cpc	r27, r17
      74:	d9 f7       	brne	.-10     	; 0x6c <.do_copy_data_loop>
      76:	0e 94 9c 0d 	call	0x1b38	; 0x1b38 <main>
      7a:	0c 94 f9 0d 	jmp	0x1bf2	; 0x1bf2 <_exit>

0000007e <__bad_interrupt>:
      7e:	0c 94 00 00 	jmp	0	; 0x0 <__vectors>

00000082 <__fixunssfsi>:
      82:	ef 92       	push	r14
      84:	ff 92       	push	r15
      86:	0f 93       	push	r16
      88:	1f 93       	push	r17
      8a:	7b 01       	movw	r14, r22
      8c:	8c 01       	movw	r16, r24
      8e:	20 e0       	ldi	r18, 0x00	; 0
      90:	30 e0       	ldi	r19, 0x00	; 0
      92:	40 e0       	ldi	r20, 0x00	; 0
      94:	5f e4       	ldi	r21, 0x4F	; 79
      96:	0e 94 41 03 	call	0x682	; 0x682 <__gesf2>
      9a:	88 23       	and	r24, r24
      9c:	8c f0       	brlt	.+34     	; 0xc0 <__fixunssfsi+0x3e>
      9e:	c8 01       	movw	r24, r16
      a0:	b7 01       	movw	r22, r14
      a2:	20 e0       	ldi	r18, 0x00	; 0
      a4:	30 e0       	ldi	r19, 0x00	; 0
      a6:	40 e0       	ldi	r20, 0x00	; 0
      a8:	5f e4       	ldi	r21, 0x4F	; 79
      aa:	0e 94 b9 01 	call	0x372	; 0x372 <__subsf3>
      ae:	0e 94 a1 03 	call	0x742	; 0x742 <__fixsfsi>
      b2:	9b 01       	movw	r18, r22
      b4:	ac 01       	movw	r20, r24
      b6:	20 50       	subi	r18, 0x00	; 0
      b8:	30 40       	sbci	r19, 0x00	; 0
      ba:	40 40       	sbci	r20, 0x00	; 0
      bc:	50 48       	sbci	r21, 0x80	; 128
      be:	06 c0       	rjmp	.+12     	; 0xcc <__fixunssfsi+0x4a>
      c0:	c8 01       	movw	r24, r16
      c2:	b7 01       	movw	r22, r14
      c4:	0e 94 a1 03 	call	0x742	; 0x742 <__fixsfsi>
      c8:	9b 01       	movw	r18, r22
      ca:	ac 01       	movw	r20, r24
      cc:	b9 01       	movw	r22, r18
      ce:	ca 01       	movw	r24, r20
      d0:	1f 91       	pop	r17
      d2:	0f 91       	pop	r16
      d4:	ff 90       	pop	r15
      d6:	ef 90       	pop	r14
      d8:	08 95       	ret

000000da <_fpadd_parts>:
      da:	a0 e0       	ldi	r26, 0x00	; 0
      dc:	b0 e0       	ldi	r27, 0x00	; 0
      de:	e3 e7       	ldi	r30, 0x73	; 115
      e0:	f0 e0       	ldi	r31, 0x00	; 0
      e2:	0c 94 c2 0d 	jmp	0x1b84	; 0x1b84 <__prologue_saves__>
      e6:	dc 01       	movw	r26, r24
      e8:	2b 01       	movw	r4, r22
      ea:	fa 01       	movw	r30, r20
      ec:	9c 91       	ld	r25, X
      ee:	92 30       	cpi	r25, 0x02	; 2
      f0:	08 f4       	brcc	.+2      	; 0xf4 <_fpadd_parts+0x1a>
      f2:	39 c1       	rjmp	.+626    	; 0x366 <_fpadd_parts+0x28c>
      f4:	eb 01       	movw	r28, r22
      f6:	88 81       	ld	r24, Y
      f8:	82 30       	cpi	r24, 0x02	; 2
      fa:	08 f4       	brcc	.+2      	; 0xfe <_fpadd_parts+0x24>
      fc:	33 c1       	rjmp	.+614    	; 0x364 <_fpadd_parts+0x28a>
      fe:	94 30       	cpi	r25, 0x04	; 4
     100:	69 f4       	brne	.+26     	; 0x11c <_fpadd_parts+0x42>
     102:	84 30       	cpi	r24, 0x04	; 4
     104:	09 f0       	breq	.+2      	; 0x108 <_fpadd_parts+0x2e>
     106:	2f c1       	rjmp	.+606    	; 0x366 <_fpadd_parts+0x28c>
     108:	11 96       	adiw	r26, 0x01	; 1
     10a:	9c 91       	ld	r25, X
     10c:	11 97       	sbiw	r26, 0x01	; 1
     10e:	89 81       	ldd	r24, Y+1	; 0x01
     110:	98 17       	cp	r25, r24
     112:	09 f4       	brne	.+2      	; 0x116 <_fpadd_parts+0x3c>
     114:	28 c1       	rjmp	.+592    	; 0x366 <_fpadd_parts+0x28c>
     116:	a6 e6       	ldi	r26, 0x66	; 102
     118:	b0 e0       	ldi	r27, 0x00	; 0
     11a:	25 c1       	rjmp	.+586    	; 0x366 <_fpadd_parts+0x28c>
     11c:	84 30       	cpi	r24, 0x04	; 4
     11e:	09 f4       	brne	.+2      	; 0x122 <_fpadd_parts+0x48>
     120:	21 c1       	rjmp	.+578    	; 0x364 <_fpadd_parts+0x28a>
     122:	82 30       	cpi	r24, 0x02	; 2
     124:	a9 f4       	brne	.+42     	; 0x150 <_fpadd_parts+0x76>
     126:	92 30       	cpi	r25, 0x02	; 2
     128:	09 f0       	breq	.+2      	; 0x12c <_fpadd_parts+0x52>
     12a:	1d c1       	rjmp	.+570    	; 0x366 <_fpadd_parts+0x28c>
     12c:	9a 01       	movw	r18, r20
     12e:	ad 01       	movw	r20, r26
     130:	88 e0       	ldi	r24, 0x08	; 8
     132:	ea 01       	movw	r28, r20
     134:	09 90       	ld	r0, Y+
     136:	ae 01       	movw	r20, r28
     138:	e9 01       	movw	r28, r18
     13a:	09 92       	st	Y+, r0
     13c:	9e 01       	movw	r18, r28
     13e:	81 50       	subi	r24, 0x01	; 1
     140:	c1 f7       	brne	.-16     	; 0x132 <_fpadd_parts+0x58>
     142:	e2 01       	movw	r28, r4
     144:	89 81       	ldd	r24, Y+1	; 0x01
     146:	11 96       	adiw	r26, 0x01	; 1
     148:	9c 91       	ld	r25, X
     14a:	89 23       	and	r24, r25
     14c:	81 83       	std	Z+1, r24	; 0x01
     14e:	08 c1       	rjmp	.+528    	; 0x360 <_fpadd_parts+0x286>
     150:	92 30       	cpi	r25, 0x02	; 2
     152:	09 f4       	brne	.+2      	; 0x156 <_fpadd_parts+0x7c>
     154:	07 c1       	rjmp	.+526    	; 0x364 <_fpadd_parts+0x28a>
     156:	12 96       	adiw	r26, 0x02	; 2
     158:	2d 90       	ld	r2, X+
     15a:	3c 90       	ld	r3, X
     15c:	13 97       	sbiw	r26, 0x03	; 3
     15e:	eb 01       	movw	r28, r22
     160:	8a 81       	ldd	r24, Y+2	; 0x02
     162:	9b 81       	ldd	r25, Y+3	; 0x03
     164:	14 96       	adiw	r26, 0x04	; 4
     166:	ad 90       	ld	r10, X+
     168:	bd 90       	ld	r11, X+
     16a:	cd 90       	ld	r12, X+
     16c:	dc 90       	ld	r13, X
     16e:	17 97       	sbiw	r26, 0x07	; 7
     170:	ec 80       	ldd	r14, Y+4	; 0x04
     172:	fd 80       	ldd	r15, Y+5	; 0x05
     174:	0e 81       	ldd	r16, Y+6	; 0x06
     176:	1f 81       	ldd	r17, Y+7	; 0x07
     178:	91 01       	movw	r18, r2
     17a:	28 1b       	sub	r18, r24
     17c:	39 0b       	sbc	r19, r25
     17e:	b9 01       	movw	r22, r18
     180:	37 ff       	sbrs	r19, 7
     182:	04 c0       	rjmp	.+8      	; 0x18c <_fpadd_parts+0xb2>
     184:	66 27       	eor	r22, r22
     186:	77 27       	eor	r23, r23
     188:	62 1b       	sub	r22, r18
     18a:	73 0b       	sbc	r23, r19
     18c:	60 32       	cpi	r22, 0x20	; 32
     18e:	71 05       	cpc	r23, r1
     190:	0c f0       	brlt	.+2      	; 0x194 <_fpadd_parts+0xba>
     192:	61 c0       	rjmp	.+194    	; 0x256 <_fpadd_parts+0x17c>
     194:	12 16       	cp	r1, r18
     196:	13 06       	cpc	r1, r19
     198:	6c f5       	brge	.+90     	; 0x1f4 <_fpadd_parts+0x11a>
     19a:	37 01       	movw	r6, r14
     19c:	48 01       	movw	r8, r16
     19e:	06 2e       	mov	r0, r22
     1a0:	04 c0       	rjmp	.+8      	; 0x1aa <_fpadd_parts+0xd0>
     1a2:	96 94       	lsr	r9
     1a4:	87 94       	ror	r8
     1a6:	77 94       	ror	r7
     1a8:	67 94       	ror	r6
     1aa:	0a 94       	dec	r0
     1ac:	d2 f7       	brpl	.-12     	; 0x1a2 <_fpadd_parts+0xc8>
     1ae:	21 e0       	ldi	r18, 0x01	; 1
     1b0:	30 e0       	ldi	r19, 0x00	; 0
     1b2:	40 e0       	ldi	r20, 0x00	; 0
     1b4:	50 e0       	ldi	r21, 0x00	; 0
     1b6:	04 c0       	rjmp	.+8      	; 0x1c0 <_fpadd_parts+0xe6>
     1b8:	22 0f       	add	r18, r18
     1ba:	33 1f       	adc	r19, r19
     1bc:	44 1f       	adc	r20, r20
     1be:	55 1f       	adc	r21, r21
     1c0:	6a 95       	dec	r22
     1c2:	d2 f7       	brpl	.-12     	; 0x1b8 <_fpadd_parts+0xde>
     1c4:	21 50       	subi	r18, 0x01	; 1
     1c6:	30 40       	sbci	r19, 0x00	; 0
     1c8:	40 40       	sbci	r20, 0x00	; 0
     1ca:	50 40       	sbci	r21, 0x00	; 0
     1cc:	2e 21       	and	r18, r14
     1ce:	3f 21       	and	r19, r15
     1d0:	40 23       	and	r20, r16
     1d2:	51 23       	and	r21, r17
     1d4:	21 15       	cp	r18, r1
     1d6:	31 05       	cpc	r19, r1
     1d8:	41 05       	cpc	r20, r1
     1da:	51 05       	cpc	r21, r1
     1dc:	21 f0       	breq	.+8      	; 0x1e6 <_fpadd_parts+0x10c>
     1de:	21 e0       	ldi	r18, 0x01	; 1
     1e0:	30 e0       	ldi	r19, 0x00	; 0
     1e2:	40 e0       	ldi	r20, 0x00	; 0
     1e4:	50 e0       	ldi	r21, 0x00	; 0
     1e6:	79 01       	movw	r14, r18
     1e8:	8a 01       	movw	r16, r20
     1ea:	e6 28       	or	r14, r6
     1ec:	f7 28       	or	r15, r7
     1ee:	08 29       	or	r16, r8
     1f0:	19 29       	or	r17, r9
     1f2:	3c c0       	rjmp	.+120    	; 0x26c <_fpadd_parts+0x192>
     1f4:	23 2b       	or	r18, r19
     1f6:	d1 f1       	breq	.+116    	; 0x26c <_fpadd_parts+0x192>
     1f8:	26 0e       	add	r2, r22
     1fa:	37 1e       	adc	r3, r23
     1fc:	35 01       	movw	r6, r10
     1fe:	46 01       	movw	r8, r12
     200:	06 2e       	mov	r0, r22
     202:	04 c0       	rjmp	.+8      	; 0x20c <_fpadd_parts+0x132>
     204:	96 94       	lsr	r9
     206:	87 94       	ror	r8
     208:	77 94       	ror	r7
     20a:	67 94       	ror	r6
     20c:	0a 94       	dec	r0
     20e:	d2 f7       	brpl	.-12     	; 0x204 <_fpadd_parts+0x12a>
     210:	21 e0       	ldi	r18, 0x01	; 1
     212:	30 e0       	ldi	r19, 0x00	; 0
     214:	40 e0       	ldi	r20, 0x00	; 0
     216:	50 e0       	ldi	r21, 0x00	; 0
     218:	04 c0       	rjmp	.+8      	; 0x222 <_fpadd_parts+0x148>
     21a:	22 0f       	add	r18, r18
     21c:	33 1f       	adc	r19, r19
     21e:	44 1f       	adc	r20, r20
     220:	55 1f       	adc	r21, r21
     222:	6a 95       	dec	r22
     224:	d2 f7       	brpl	.-12     	; 0x21a <_fpadd_parts+0x140>
     226:	21 50       	subi	r18, 0x01	; 1
     228:	30 40       	sbci	r19, 0x00	; 0
     22a:	40 40       	sbci	r20, 0x00	; 0
     22c:	50 40       	sbci	r21, 0x00	; 0
     22e:	2a 21       	and	r18, r10
     230:	3b 21       	and	r19, r11
     232:	4c 21       	and	r20, r12
     234:	5d 21       	and	r21, r13
     236:	21 15       	cp	r18, r1
     238:	31 05       	cpc	r19, r1
     23a:	41 05       	cpc	r20, r1
     23c:	51 05       	cpc	r21, r1
     23e:	21 f0       	breq	.+8      	; 0x248 <_fpadd_parts+0x16e>
     240:	21 e0       	ldi	r18, 0x01	; 1
     242:	30 e0       	ldi	r19, 0x00	; 0
     244:	40 e0       	ldi	r20, 0x00	; 0
     246:	50 e0       	ldi	r21, 0x00	; 0
     248:	59 01       	movw	r10, r18
     24a:	6a 01       	movw	r12, r20
     24c:	a6 28       	or	r10, r6
     24e:	b7 28       	or	r11, r7
     250:	c8 28       	or	r12, r8
     252:	d9 28       	or	r13, r9
     254:	0b c0       	rjmp	.+22     	; 0x26c <_fpadd_parts+0x192>
     256:	82 15       	cp	r24, r2
     258:	93 05       	cpc	r25, r3
     25a:	2c f0       	brlt	.+10     	; 0x266 <_fpadd_parts+0x18c>
     25c:	1c 01       	movw	r2, r24
     25e:	aa 24       	eor	r10, r10
     260:	bb 24       	eor	r11, r11
     262:	65 01       	movw	r12, r10
     264:	03 c0       	rjmp	.+6      	; 0x26c <_fpadd_parts+0x192>
     266:	ee 24       	eor	r14, r14
     268:	ff 24       	eor	r15, r15
     26a:	87 01       	movw	r16, r14
     26c:	11 96       	adiw	r26, 0x01	; 1
     26e:	9c 91       	ld	r25, X
     270:	d2 01       	movw	r26, r4
     272:	11 96       	adiw	r26, 0x01	; 1
     274:	8c 91       	ld	r24, X
     276:	98 17       	cp	r25, r24
     278:	09 f4       	brne	.+2      	; 0x27c <_fpadd_parts+0x1a2>
     27a:	45 c0       	rjmp	.+138    	; 0x306 <_fpadd_parts+0x22c>
     27c:	99 23       	and	r25, r25
     27e:	39 f0       	breq	.+14     	; 0x28e <_fpadd_parts+0x1b4>
     280:	a8 01       	movw	r20, r16
     282:	97 01       	movw	r18, r14
     284:	2a 19       	sub	r18, r10
     286:	3b 09       	sbc	r19, r11
     288:	4c 09       	sbc	r20, r12
     28a:	5d 09       	sbc	r21, r13
     28c:	06 c0       	rjmp	.+12     	; 0x29a <_fpadd_parts+0x1c0>
     28e:	a6 01       	movw	r20, r12
     290:	95 01       	movw	r18, r10
     292:	2e 19       	sub	r18, r14
     294:	3f 09       	sbc	r19, r15
     296:	40 0b       	sbc	r20, r16
     298:	51 0b       	sbc	r21, r17
     29a:	57 fd       	sbrc	r21, 7
     29c:	08 c0       	rjmp	.+16     	; 0x2ae <_fpadd_parts+0x1d4>
     29e:	11 82       	std	Z+1, r1	; 0x01
     2a0:	33 82       	std	Z+3, r3	; 0x03
     2a2:	22 82       	std	Z+2, r2	; 0x02
     2a4:	24 83       	std	Z+4, r18	; 0x04
     2a6:	35 83       	std	Z+5, r19	; 0x05
     2a8:	46 83       	std	Z+6, r20	; 0x06
     2aa:	57 83       	std	Z+7, r21	; 0x07
     2ac:	1d c0       	rjmp	.+58     	; 0x2e8 <_fpadd_parts+0x20e>
     2ae:	81 e0       	ldi	r24, 0x01	; 1
     2b0:	81 83       	std	Z+1, r24	; 0x01
     2b2:	33 82       	std	Z+3, r3	; 0x03
     2b4:	22 82       	std	Z+2, r2	; 0x02
     2b6:	88 27       	eor	r24, r24
     2b8:	99 27       	eor	r25, r25
     2ba:	dc 01       	movw	r26, r24
     2bc:	82 1b       	sub	r24, r18
     2be:	93 0b       	sbc	r25, r19
     2c0:	a4 0b       	sbc	r26, r20
     2c2:	b5 0b       	sbc	r27, r21
     2c4:	84 83       	std	Z+4, r24	; 0x04
     2c6:	95 83       	std	Z+5, r25	; 0x05
     2c8:	a6 83       	std	Z+6, r26	; 0x06
     2ca:	b7 83       	std	Z+7, r27	; 0x07
     2cc:	0d c0       	rjmp	.+26     	; 0x2e8 <_fpadd_parts+0x20e>
     2ce:	22 0f       	add	r18, r18
     2d0:	33 1f       	adc	r19, r19
     2d2:	44 1f       	adc	r20, r20
     2d4:	55 1f       	adc	r21, r21
     2d6:	24 83       	std	Z+4, r18	; 0x04
     2d8:	35 83       	std	Z+5, r19	; 0x05
     2da:	46 83       	std	Z+6, r20	; 0x06
     2dc:	57 83       	std	Z+7, r21	; 0x07
     2de:	82 81       	ldd	r24, Z+2	; 0x02
     2e0:	93 81       	ldd	r25, Z+3	; 0x03
     2e2:	01 97       	sbiw	r24, 0x01	; 1
     2e4:	93 83       	std	Z+3, r25	; 0x03
     2e6:	82 83       	std	Z+2, r24	; 0x02
     2e8:	24 81       	ldd	r18, Z+4	; 0x04
     2ea:	35 81       	ldd	r19, Z+5	; 0x05
     2ec:	46 81       	ldd	r20, Z+6	; 0x06
     2ee:	57 81       	ldd	r21, Z+7	; 0x07
     2f0:	da 01       	movw	r26, r20
     2f2:	c9 01       	movw	r24, r18
     2f4:	01 97       	sbiw	r24, 0x01	; 1
     2f6:	a1 09       	sbc	r26, r1
     2f8:	b1 09       	sbc	r27, r1
     2fa:	8f 5f       	subi	r24, 0xFF	; 255
     2fc:	9f 4f       	sbci	r25, 0xFF	; 255
     2fe:	af 4f       	sbci	r26, 0xFF	; 255
     300:	bf 43       	sbci	r27, 0x3F	; 63
     302:	28 f3       	brcs	.-54     	; 0x2ce <_fpadd_parts+0x1f4>
     304:	0b c0       	rjmp	.+22     	; 0x31c <_fpadd_parts+0x242>
     306:	91 83       	std	Z+1, r25	; 0x01
     308:	33 82       	std	Z+3, r3	; 0x03
     30a:	22 82       	std	Z+2, r2	; 0x02
     30c:	ea 0c       	add	r14, r10
     30e:	fb 1c       	adc	r15, r11
     310:	0c 1d       	adc	r16, r12
     312:	1d 1d       	adc	r17, r13
     314:	e4 82       	std	Z+4, r14	; 0x04
     316:	f5 82       	std	Z+5, r15	; 0x05
     318:	06 83       	std	Z+6, r16	; 0x06
     31a:	17 83       	std	Z+7, r17	; 0x07
     31c:	83 e0       	ldi	r24, 0x03	; 3
     31e:	80 83       	st	Z, r24
     320:	24 81       	ldd	r18, Z+4	; 0x04
     322:	35 81       	ldd	r19, Z+5	; 0x05
     324:	46 81       	ldd	r20, Z+6	; 0x06
     326:	57 81       	ldd	r21, Z+7	; 0x07
     328:	57 ff       	sbrs	r21, 7
     32a:	1a c0       	rjmp	.+52     	; 0x360 <_fpadd_parts+0x286>
     32c:	c9 01       	movw	r24, r18
     32e:	aa 27       	eor	r26, r26
     330:	97 fd       	sbrc	r25, 7
     332:	a0 95       	com	r26
     334:	ba 2f       	mov	r27, r26
     336:	81 70       	andi	r24, 0x01	; 1
     338:	90 70       	andi	r25, 0x00	; 0
     33a:	a0 70       	andi	r26, 0x00	; 0
     33c:	b0 70       	andi	r27, 0x00	; 0
     33e:	56 95       	lsr	r21
     340:	47 95       	ror	r20
     342:	37 95       	ror	r19
     344:	27 95       	ror	r18
     346:	82 2b       	or	r24, r18
     348:	93 2b       	or	r25, r19
     34a:	a4 2b       	or	r26, r20
     34c:	b5 2b       	or	r27, r21
     34e:	84 83       	std	Z+4, r24	; 0x04
     350:	95 83       	std	Z+5, r25	; 0x05
     352:	a6 83       	std	Z+6, r26	; 0x06
     354:	b7 83       	std	Z+7, r27	; 0x07
     356:	82 81       	ldd	r24, Z+2	; 0x02
     358:	93 81       	ldd	r25, Z+3	; 0x03
     35a:	01 96       	adiw	r24, 0x01	; 1
     35c:	93 83       	std	Z+3, r25	; 0x03
     35e:	82 83       	std	Z+2, r24	; 0x02
     360:	df 01       	movw	r26, r30
     362:	01 c0       	rjmp	.+2      	; 0x366 <_fpadd_parts+0x28c>
     364:	d2 01       	movw	r26, r4
     366:	cd 01       	movw	r24, r26
     368:	cd b7       	in	r28, 0x3d	; 61
     36a:	de b7       	in	r29, 0x3e	; 62
     36c:	e2 e1       	ldi	r30, 0x12	; 18
     36e:	0c 94 de 0d 	jmp	0x1bbc	; 0x1bbc <__epilogue_restores__>

00000372 <__subsf3>:
     372:	a0 e2       	ldi	r26, 0x20	; 32
     374:	b0 e0       	ldi	r27, 0x00	; 0
     376:	ef eb       	ldi	r30, 0xBF	; 191
     378:	f1 e0       	ldi	r31, 0x01	; 1
     37a:	0c 94 ce 0d 	jmp	0x1b9c	; 0x1b9c <__prologue_saves__+0x18>
     37e:	69 83       	std	Y+1, r22	; 0x01
     380:	7a 83       	std	Y+2, r23	; 0x02
     382:	8b 83       	std	Y+3, r24	; 0x03
     384:	9c 83       	std	Y+4, r25	; 0x04
     386:	2d 83       	std	Y+5, r18	; 0x05
     388:	3e 83       	std	Y+6, r19	; 0x06
     38a:	4f 83       	std	Y+7, r20	; 0x07
     38c:	58 87       	std	Y+8, r21	; 0x08
     38e:	e9 e0       	ldi	r30, 0x09	; 9
     390:	ee 2e       	mov	r14, r30
     392:	f1 2c       	mov	r15, r1
     394:	ec 0e       	add	r14, r28
     396:	fd 1e       	adc	r15, r29
     398:	ce 01       	movw	r24, r28
     39a:	01 96       	adiw	r24, 0x01	; 1
     39c:	b7 01       	movw	r22, r14
     39e:	0e 94 ca 04 	call	0x994	; 0x994 <__unpack_f>
     3a2:	8e 01       	movw	r16, r28
     3a4:	0f 5e       	subi	r16, 0xEF	; 239
     3a6:	1f 4f       	sbci	r17, 0xFF	; 255
     3a8:	ce 01       	movw	r24, r28
     3aa:	05 96       	adiw	r24, 0x05	; 5
     3ac:	b8 01       	movw	r22, r16
     3ae:	0e 94 ca 04 	call	0x994	; 0x994 <__unpack_f>
     3b2:	8a 89       	ldd	r24, Y+18	; 0x12
     3b4:	91 e0       	ldi	r25, 0x01	; 1
     3b6:	89 27       	eor	r24, r25
     3b8:	8a 8b       	std	Y+18, r24	; 0x12
     3ba:	c7 01       	movw	r24, r14
     3bc:	b8 01       	movw	r22, r16
     3be:	ae 01       	movw	r20, r28
     3c0:	47 5e       	subi	r20, 0xE7	; 231
     3c2:	5f 4f       	sbci	r21, 0xFF	; 255
     3c4:	0e 94 6d 00 	call	0xda	; 0xda <_fpadd_parts>
     3c8:	0e 94 f5 03 	call	0x7ea	; 0x7ea <__pack_f>
     3cc:	a0 96       	adiw	r28, 0x20	; 32
     3ce:	e6 e0       	ldi	r30, 0x06	; 6
     3d0:	0c 94 ea 0d 	jmp	0x1bd4	; 0x1bd4 <__epilogue_restores__+0x18>

000003d4 <__addsf3>:
     3d4:	a0 e2       	ldi	r26, 0x20	; 32
     3d6:	b0 e0       	ldi	r27, 0x00	; 0
     3d8:	e0 ef       	ldi	r30, 0xF0	; 240
     3da:	f1 e0       	ldi	r31, 0x01	; 1
     3dc:	0c 94 ce 0d 	jmp	0x1b9c	; 0x1b9c <__prologue_saves__+0x18>
     3e0:	69 83       	std	Y+1, r22	; 0x01
     3e2:	7a 83       	std	Y+2, r23	; 0x02
     3e4:	8b 83       	std	Y+3, r24	; 0x03
     3e6:	9c 83       	std	Y+4, r25	; 0x04
     3e8:	2d 83       	std	Y+5, r18	; 0x05
     3ea:	3e 83       	std	Y+6, r19	; 0x06
     3ec:	4f 83       	std	Y+7, r20	; 0x07
     3ee:	58 87       	std	Y+8, r21	; 0x08
     3f0:	f9 e0       	ldi	r31, 0x09	; 9
     3f2:	ef 2e       	mov	r14, r31
     3f4:	f1 2c       	mov	r15, r1
     3f6:	ec 0e       	add	r14, r28
     3f8:	fd 1e       	adc	r15, r29
     3fa:	ce 01       	movw	r24, r28
     3fc:	01 96       	adiw	r24, 0x01	; 1
     3fe:	b7 01       	movw	r22, r14
     400:	0e 94 ca 04 	call	0x994	; 0x994 <__unpack_f>
     404:	8e 01       	movw	r16, r28
     406:	0f 5e       	subi	r16, 0xEF	; 239
     408:	1f 4f       	sbci	r17, 0xFF	; 255
     40a:	ce 01       	movw	r24, r28
     40c:	05 96       	adiw	r24, 0x05	; 5
     40e:	b8 01       	movw	r22, r16
     410:	0e 94 ca 04 	call	0x994	; 0x994 <__unpack_f>
     414:	c7 01       	movw	r24, r14
     416:	b8 01       	movw	r22, r16
     418:	ae 01       	movw	r20, r28
     41a:	47 5e       	subi	r20, 0xE7	; 231
     41c:	5f 4f       	sbci	r21, 0xFF	; 255
     41e:	0e 94 6d 00 	call	0xda	; 0xda <_fpadd_parts>
     422:	0e 94 f5 03 	call	0x7ea	; 0x7ea <__pack_f>
     426:	a0 96       	adiw	r28, 0x20	; 32
     428:	e6 e0       	ldi	r30, 0x06	; 6
     42a:	0c 94 ea 0d 	jmp	0x1bd4	; 0x1bd4 <__epilogue_restores__+0x18>

0000042e <__mulsf3>:
     42e:	a0 e2       	ldi	r26, 0x20	; 32
     430:	b0 e0       	ldi	r27, 0x00	; 0
     432:	ed e1       	ldi	r30, 0x1D	; 29
     434:	f2 e0       	ldi	r31, 0x02	; 2
     436:	0c 94 c2 0d 	jmp	0x1b84	; 0x1b84 <__prologue_saves__>
     43a:	69 83       	std	Y+1, r22	; 0x01
     43c:	7a 83       	std	Y+2, r23	; 0x02
     43e:	8b 83       	std	Y+3, r24	; 0x03
     440:	9c 83       	std	Y+4, r25	; 0x04
     442:	2d 83       	std	Y+5, r18	; 0x05
     444:	3e 83       	std	Y+6, r19	; 0x06
     446:	4f 83       	std	Y+7, r20	; 0x07
     448:	58 87       	std	Y+8, r21	; 0x08
     44a:	ce 01       	movw	r24, r28
     44c:	01 96       	adiw	r24, 0x01	; 1
     44e:	be 01       	movw	r22, r28
     450:	67 5f       	subi	r22, 0xF7	; 247
     452:	7f 4f       	sbci	r23, 0xFF	; 255
     454:	0e 94 ca 04 	call	0x994	; 0x994 <__unpack_f>
     458:	ce 01       	movw	r24, r28
     45a:	05 96       	adiw	r24, 0x05	; 5
     45c:	be 01       	movw	r22, r28
     45e:	6f 5e       	subi	r22, 0xEF	; 239
     460:	7f 4f       	sbci	r23, 0xFF	; 255
     462:	0e 94 ca 04 	call	0x994	; 0x994 <__unpack_f>
     466:	99 85       	ldd	r25, Y+9	; 0x09
     468:	92 30       	cpi	r25, 0x02	; 2
     46a:	88 f0       	brcs	.+34     	; 0x48e <__mulsf3+0x60>
     46c:	89 89       	ldd	r24, Y+17	; 0x11
     46e:	82 30       	cpi	r24, 0x02	; 2
     470:	c8 f0       	brcs	.+50     	; 0x4a4 <__mulsf3+0x76>
     472:	94 30       	cpi	r25, 0x04	; 4
     474:	19 f4       	brne	.+6      	; 0x47c <__mulsf3+0x4e>
     476:	82 30       	cpi	r24, 0x02	; 2
     478:	51 f4       	brne	.+20     	; 0x48e <__mulsf3+0x60>
     47a:	04 c0       	rjmp	.+8      	; 0x484 <__mulsf3+0x56>
     47c:	84 30       	cpi	r24, 0x04	; 4
     47e:	29 f4       	brne	.+10     	; 0x48a <__mulsf3+0x5c>
     480:	92 30       	cpi	r25, 0x02	; 2
     482:	81 f4       	brne	.+32     	; 0x4a4 <__mulsf3+0x76>
     484:	86 e6       	ldi	r24, 0x66	; 102
     486:	90 e0       	ldi	r25, 0x00	; 0
     488:	c6 c0       	rjmp	.+396    	; 0x616 <__mulsf3+0x1e8>
     48a:	92 30       	cpi	r25, 0x02	; 2
     48c:	49 f4       	brne	.+18     	; 0x4a0 <__mulsf3+0x72>
     48e:	20 e0       	ldi	r18, 0x00	; 0
     490:	9a 85       	ldd	r25, Y+10	; 0x0a
     492:	8a 89       	ldd	r24, Y+18	; 0x12
     494:	98 13       	cpse	r25, r24
     496:	21 e0       	ldi	r18, 0x01	; 1
     498:	2a 87       	std	Y+10, r18	; 0x0a
     49a:	ce 01       	movw	r24, r28
     49c:	09 96       	adiw	r24, 0x09	; 9
     49e:	bb c0       	rjmp	.+374    	; 0x616 <__mulsf3+0x1e8>
     4a0:	82 30       	cpi	r24, 0x02	; 2
     4a2:	49 f4       	brne	.+18     	; 0x4b6 <__mulsf3+0x88>
     4a4:	20 e0       	ldi	r18, 0x00	; 0
     4a6:	9a 85       	ldd	r25, Y+10	; 0x0a
     4a8:	8a 89       	ldd	r24, Y+18	; 0x12
     4aa:	98 13       	cpse	r25, r24
     4ac:	21 e0       	ldi	r18, 0x01	; 1
     4ae:	2a 8b       	std	Y+18, r18	; 0x12
     4b0:	ce 01       	movw	r24, r28
     4b2:	41 96       	adiw	r24, 0x11	; 17
     4b4:	b0 c0       	rjmp	.+352    	; 0x616 <__mulsf3+0x1e8>
     4b6:	2d 84       	ldd	r2, Y+13	; 0x0d
     4b8:	3e 84       	ldd	r3, Y+14	; 0x0e
     4ba:	4f 84       	ldd	r4, Y+15	; 0x0f
     4bc:	58 88       	ldd	r5, Y+16	; 0x10
     4be:	6d 88       	ldd	r6, Y+21	; 0x15
     4c0:	7e 88       	ldd	r7, Y+22	; 0x16
     4c2:	8f 88       	ldd	r8, Y+23	; 0x17
     4c4:	98 8c       	ldd	r9, Y+24	; 0x18
     4c6:	ee 24       	eor	r14, r14
     4c8:	ff 24       	eor	r15, r15
     4ca:	87 01       	movw	r16, r14
     4cc:	aa 24       	eor	r10, r10
     4ce:	bb 24       	eor	r11, r11
     4d0:	65 01       	movw	r12, r10
     4d2:	40 e0       	ldi	r20, 0x00	; 0
     4d4:	50 e0       	ldi	r21, 0x00	; 0
     4d6:	60 e0       	ldi	r22, 0x00	; 0
     4d8:	70 e0       	ldi	r23, 0x00	; 0
     4da:	e0 e0       	ldi	r30, 0x00	; 0
     4dc:	f0 e0       	ldi	r31, 0x00	; 0
     4de:	c1 01       	movw	r24, r2
     4e0:	81 70       	andi	r24, 0x01	; 1
     4e2:	90 70       	andi	r25, 0x00	; 0
     4e4:	89 2b       	or	r24, r25
     4e6:	e9 f0       	breq	.+58     	; 0x522 <__mulsf3+0xf4>
     4e8:	e6 0c       	add	r14, r6
     4ea:	f7 1c       	adc	r15, r7
     4ec:	08 1d       	adc	r16, r8
     4ee:	19 1d       	adc	r17, r9
     4f0:	9a 01       	movw	r18, r20
     4f2:	ab 01       	movw	r20, r22
     4f4:	2a 0d       	add	r18, r10
     4f6:	3b 1d       	adc	r19, r11
     4f8:	4c 1d       	adc	r20, r12
     4fa:	5d 1d       	adc	r21, r13
     4fc:	80 e0       	ldi	r24, 0x00	; 0
     4fe:	90 e0       	ldi	r25, 0x00	; 0
     500:	a0 e0       	ldi	r26, 0x00	; 0
     502:	b0 e0       	ldi	r27, 0x00	; 0
     504:	e6 14       	cp	r14, r6
     506:	f7 04       	cpc	r15, r7
     508:	08 05       	cpc	r16, r8
     50a:	19 05       	cpc	r17, r9
     50c:	20 f4       	brcc	.+8      	; 0x516 <__mulsf3+0xe8>
     50e:	81 e0       	ldi	r24, 0x01	; 1
     510:	90 e0       	ldi	r25, 0x00	; 0
     512:	a0 e0       	ldi	r26, 0x00	; 0
     514:	b0 e0       	ldi	r27, 0x00	; 0
     516:	ba 01       	movw	r22, r20
     518:	a9 01       	movw	r20, r18
     51a:	48 0f       	add	r20, r24
     51c:	59 1f       	adc	r21, r25
     51e:	6a 1f       	adc	r22, r26
     520:	7b 1f       	adc	r23, r27
     522:	aa 0c       	add	r10, r10
     524:	bb 1c       	adc	r11, r11
     526:	cc 1c       	adc	r12, r12
     528:	dd 1c       	adc	r13, r13
     52a:	97 fe       	sbrs	r9, 7
     52c:	08 c0       	rjmp	.+16     	; 0x53e <__mulsf3+0x110>
     52e:	81 e0       	ldi	r24, 0x01	; 1
     530:	90 e0       	ldi	r25, 0x00	; 0
     532:	a0 e0       	ldi	r26, 0x00	; 0
     534:	b0 e0       	ldi	r27, 0x00	; 0
     536:	a8 2a       	or	r10, r24
     538:	b9 2a       	or	r11, r25
     53a:	ca 2a       	or	r12, r26
     53c:	db 2a       	or	r13, r27
     53e:	31 96       	adiw	r30, 0x01	; 1
     540:	e0 32       	cpi	r30, 0x20	; 32
     542:	f1 05       	cpc	r31, r1
     544:	49 f0       	breq	.+18     	; 0x558 <__mulsf3+0x12a>
     546:	66 0c       	add	r6, r6
     548:	77 1c       	adc	r7, r7
     54a:	88 1c       	adc	r8, r8
     54c:	99 1c       	adc	r9, r9
     54e:	56 94       	lsr	r5
     550:	47 94       	ror	r4
     552:	37 94       	ror	r3
     554:	27 94       	ror	r2
     556:	c3 cf       	rjmp	.-122    	; 0x4de <__mulsf3+0xb0>
     558:	fa 85       	ldd	r31, Y+10	; 0x0a
     55a:	ea 89       	ldd	r30, Y+18	; 0x12
     55c:	2b 89       	ldd	r18, Y+19	; 0x13
     55e:	3c 89       	ldd	r19, Y+20	; 0x14
     560:	8b 85       	ldd	r24, Y+11	; 0x0b
     562:	9c 85       	ldd	r25, Y+12	; 0x0c
     564:	28 0f       	add	r18, r24
     566:	39 1f       	adc	r19, r25
     568:	2e 5f       	subi	r18, 0xFE	; 254
     56a:	3f 4f       	sbci	r19, 0xFF	; 255
     56c:	17 c0       	rjmp	.+46     	; 0x59c <__mulsf3+0x16e>
     56e:	ca 01       	movw	r24, r20
     570:	81 70       	andi	r24, 0x01	; 1
     572:	90 70       	andi	r25, 0x00	; 0
     574:	89 2b       	or	r24, r25
     576:	61 f0       	breq	.+24     	; 0x590 <__mulsf3+0x162>
     578:	16 95       	lsr	r17
     57a:	07 95       	ror	r16
     57c:	f7 94       	ror	r15
     57e:	e7 94       	ror	r14
     580:	80 e0       	ldi	r24, 0x00	; 0
     582:	90 e0       	ldi	r25, 0x00	; 0
     584:	a0 e0       	ldi	r26, 0x00	; 0
     586:	b0 e8       	ldi	r27, 0x80	; 128
     588:	e8 2a       	or	r14, r24
     58a:	f9 2a       	or	r15, r25
     58c:	0a 2b       	or	r16, r26
     58e:	1b 2b       	or	r17, r27
     590:	76 95       	lsr	r23
     592:	67 95       	ror	r22
     594:	57 95       	ror	r21
     596:	47 95       	ror	r20
     598:	2f 5f       	subi	r18, 0xFF	; 255
     59a:	3f 4f       	sbci	r19, 0xFF	; 255
     59c:	77 fd       	sbrc	r23, 7
     59e:	e7 cf       	rjmp	.-50     	; 0x56e <__mulsf3+0x140>
     5a0:	0c c0       	rjmp	.+24     	; 0x5ba <__mulsf3+0x18c>
     5a2:	44 0f       	add	r20, r20
     5a4:	55 1f       	adc	r21, r21
     5a6:	66 1f       	adc	r22, r22
     5a8:	77 1f       	adc	r23, r23
     5aa:	17 fd       	sbrc	r17, 7
     5ac:	41 60       	ori	r20, 0x01	; 1
     5ae:	ee 0c       	add	r14, r14
     5b0:	ff 1c       	adc	r15, r15
     5b2:	00 1f       	adc	r16, r16
     5b4:	11 1f       	adc	r17, r17
     5b6:	21 50       	subi	r18, 0x01	; 1
     5b8:	30 40       	sbci	r19, 0x00	; 0
     5ba:	40 30       	cpi	r20, 0x00	; 0
     5bc:	90 e0       	ldi	r25, 0x00	; 0
     5be:	59 07       	cpc	r21, r25
     5c0:	90 e0       	ldi	r25, 0x00	; 0
     5c2:	69 07       	cpc	r22, r25
     5c4:	90 e4       	ldi	r25, 0x40	; 64
     5c6:	79 07       	cpc	r23, r25
     5c8:	60 f3       	brcs	.-40     	; 0x5a2 <__mulsf3+0x174>
     5ca:	2b 8f       	std	Y+27, r18	; 0x1b
     5cc:	3c 8f       	std	Y+28, r19	; 0x1c
     5ce:	db 01       	movw	r26, r22
     5d0:	ca 01       	movw	r24, r20
     5d2:	8f 77       	andi	r24, 0x7F	; 127
     5d4:	90 70       	andi	r25, 0x00	; 0
     5d6:	a0 70       	andi	r26, 0x00	; 0
     5d8:	b0 70       	andi	r27, 0x00	; 0
     5da:	80 34       	cpi	r24, 0x40	; 64
     5dc:	91 05       	cpc	r25, r1
     5de:	a1 05       	cpc	r26, r1
     5e0:	b1 05       	cpc	r27, r1
     5e2:	61 f4       	brne	.+24     	; 0x5fc <__mulsf3+0x1ce>
     5e4:	47 fd       	sbrc	r20, 7
     5e6:	0a c0       	rjmp	.+20     	; 0x5fc <__mulsf3+0x1ce>
     5e8:	e1 14       	cp	r14, r1
     5ea:	f1 04       	cpc	r15, r1
     5ec:	01 05       	cpc	r16, r1
     5ee:	11 05       	cpc	r17, r1
     5f0:	29 f0       	breq	.+10     	; 0x5fc <__mulsf3+0x1ce>
     5f2:	40 5c       	subi	r20, 0xC0	; 192
     5f4:	5f 4f       	sbci	r21, 0xFF	; 255
     5f6:	6f 4f       	sbci	r22, 0xFF	; 255
     5f8:	7f 4f       	sbci	r23, 0xFF	; 255
     5fa:	40 78       	andi	r20, 0x80	; 128
     5fc:	1a 8e       	std	Y+26, r1	; 0x1a
     5fe:	fe 17       	cp	r31, r30
     600:	11 f0       	breq	.+4      	; 0x606 <__mulsf3+0x1d8>
     602:	81 e0       	ldi	r24, 0x01	; 1
     604:	8a 8f       	std	Y+26, r24	; 0x1a
     606:	4d 8f       	std	Y+29, r20	; 0x1d
     608:	5e 8f       	std	Y+30, r21	; 0x1e
     60a:	6f 8f       	std	Y+31, r22	; 0x1f
     60c:	78 a3       	std	Y+32, r23	; 0x20
     60e:	83 e0       	ldi	r24, 0x03	; 3
     610:	89 8f       	std	Y+25, r24	; 0x19
     612:	ce 01       	movw	r24, r28
     614:	49 96       	adiw	r24, 0x19	; 25
     616:	0e 94 f5 03 	call	0x7ea	; 0x7ea <__pack_f>
     61a:	a0 96       	adiw	r28, 0x20	; 32
     61c:	e2 e1       	ldi	r30, 0x12	; 18
     61e:	0c 94 de 0d 	jmp	0x1bbc	; 0x1bbc <__epilogue_restores__>

00000622 <__gtsf2>:
     622:	a8 e1       	ldi	r26, 0x18	; 24
     624:	b0 e0       	ldi	r27, 0x00	; 0
     626:	e7 e1       	ldi	r30, 0x17	; 23
     628:	f3 e0       	ldi	r31, 0x03	; 3
     62a:	0c 94 ce 0d 	jmp	0x1b9c	; 0x1b9c <__prologue_saves__+0x18>
     62e:	69 83       	std	Y+1, r22	; 0x01
     630:	7a 83       	std	Y+2, r23	; 0x02
     632:	8b 83       	std	Y+3, r24	; 0x03
     634:	9c 83       	std	Y+4, r25	; 0x04
     636:	2d 83       	std	Y+5, r18	; 0x05
     638:	3e 83       	std	Y+6, r19	; 0x06
     63a:	4f 83       	std	Y+7, r20	; 0x07
     63c:	58 87       	std	Y+8, r21	; 0x08
     63e:	89 e0       	ldi	r24, 0x09	; 9
     640:	e8 2e       	mov	r14, r24
     642:	f1 2c       	mov	r15, r1
     644:	ec 0e       	add	r14, r28
     646:	fd 1e       	adc	r15, r29
     648:	ce 01       	movw	r24, r28
     64a:	01 96       	adiw	r24, 0x01	; 1
     64c:	b7 01       	movw	r22, r14
     64e:	0e 94 ca 04 	call	0x994	; 0x994 <__unpack_f>
     652:	8e 01       	movw	r16, r28
     654:	0f 5e       	subi	r16, 0xEF	; 239
     656:	1f 4f       	sbci	r17, 0xFF	; 255
     658:	ce 01       	movw	r24, r28
     65a:	05 96       	adiw	r24, 0x05	; 5
     65c:	b8 01       	movw	r22, r16
     65e:	0e 94 ca 04 	call	0x994	; 0x994 <__unpack_f>
     662:	89 85       	ldd	r24, Y+9	; 0x09
     664:	82 30       	cpi	r24, 0x02	; 2
     666:	40 f0       	brcs	.+16     	; 0x678 <__gtsf2+0x56>
     668:	89 89       	ldd	r24, Y+17	; 0x11
     66a:	82 30       	cpi	r24, 0x02	; 2
     66c:	28 f0       	brcs	.+10     	; 0x678 <__gtsf2+0x56>
     66e:	c7 01       	movw	r24, r14
     670:	b8 01       	movw	r22, r16
     672:	0e 94 42 05 	call	0xa84	; 0xa84 <__fpcmp_parts_f>
     676:	01 c0       	rjmp	.+2      	; 0x67a <__gtsf2+0x58>
     678:	8f ef       	ldi	r24, 0xFF	; 255
     67a:	68 96       	adiw	r28, 0x18	; 24
     67c:	e6 e0       	ldi	r30, 0x06	; 6
     67e:	0c 94 ea 0d 	jmp	0x1bd4	; 0x1bd4 <__epilogue_restores__+0x18>

00000682 <__gesf2>:
     682:	a8 e1       	ldi	r26, 0x18	; 24
     684:	b0 e0       	ldi	r27, 0x00	; 0
     686:	e7 e4       	ldi	r30, 0x47	; 71
     688:	f3 e0       	ldi	r31, 0x03	; 3
     68a:	0c 94 ce 0d 	jmp	0x1b9c	; 0x1b9c <__prologue_saves__+0x18>
     68e:	69 83       	std	Y+1, r22	; 0x01
     690:	7a 83       	std	Y+2, r23	; 0x02
     692:	8b 83       	std	Y+3, r24	; 0x03
     694:	9c 83       	std	Y+4, r25	; 0x04
     696:	2d 83       	std	Y+5, r18	; 0x05
     698:	3e 83       	std	Y+6, r19	; 0x06
     69a:	4f 83       	std	Y+7, r20	; 0x07
     69c:	58 87       	std	Y+8, r21	; 0x08
     69e:	89 e0       	ldi	r24, 0x09	; 9
     6a0:	e8 2e       	mov	r14, r24
     6a2:	f1 2c       	mov	r15, r1
     6a4:	ec 0e       	add	r14, r28
     6a6:	fd 1e       	adc	r15, r29
     6a8:	ce 01       	movw	r24, r28
     6aa:	01 96       	adiw	r24, 0x01	; 1
     6ac:	b7 01       	movw	r22, r14
     6ae:	0e 94 ca 04 	call	0x994	; 0x994 <__unpack_f>
     6b2:	8e 01       	movw	r16, r28
     6b4:	0f 5e       	subi	r16, 0xEF	; 239
     6b6:	1f 4f       	sbci	r17, 0xFF	; 255
     6b8:	ce 01       	movw	r24, r28
     6ba:	05 96       	adiw	r24, 0x05	; 5
     6bc:	b8 01       	movw	r22, r16
     6be:	0e 94 ca 04 	call	0x994	; 0x994 <__unpack_f>
     6c2:	89 85       	ldd	r24, Y+9	; 0x09
     6c4:	82 30       	cpi	r24, 0x02	; 2
     6c6:	40 f0       	brcs	.+16     	; 0x6d8 <__gesf2+0x56>
     6c8:	89 89       	ldd	r24, Y+17	; 0x11
     6ca:	82 30       	cpi	r24, 0x02	; 2
     6cc:	28 f0       	brcs	.+10     	; 0x6d8 <__gesf2+0x56>
     6ce:	c7 01       	movw	r24, r14
     6d0:	b8 01       	movw	r22, r16
     6d2:	0e 94 42 05 	call	0xa84	; 0xa84 <__fpcmp_parts_f>
     6d6:	01 c0       	rjmp	.+2      	; 0x6da <__gesf2+0x58>
     6d8:	8f ef       	ldi	r24, 0xFF	; 255
     6da:	68 96       	adiw	r28, 0x18	; 24
     6dc:	e6 e0       	ldi	r30, 0x06	; 6
     6de:	0c 94 ea 0d 	jmp	0x1bd4	; 0x1bd4 <__epilogue_restores__+0x18>

000006e2 <__ltsf2>:
     6e2:	a8 e1       	ldi	r26, 0x18	; 24
     6e4:	b0 e0       	ldi	r27, 0x00	; 0
     6e6:	e7 e7       	ldi	r30, 0x77	; 119
     6e8:	f3 e0       	ldi	r31, 0x03	; 3
     6ea:	0c 94 ce 0d 	jmp	0x1b9c	; 0x1b9c <__prologue_saves__+0x18>
     6ee:	69 83       	std	Y+1, r22	; 0x01
     6f0:	7a 83       	std	Y+2, r23	; 0x02
     6f2:	8b 83       	std	Y+3, r24	; 0x03
     6f4:	9c 83       	std	Y+4, r25	; 0x04
     6f6:	2d 83       	std	Y+5, r18	; 0x05
     6f8:	3e 83       	std	Y+6, r19	; 0x06
     6fa:	4f 83       	std	Y+7, r20	; 0x07
     6fc:	58 87       	std	Y+8, r21	; 0x08
     6fe:	89 e0       	ldi	r24, 0x09	; 9
     700:	e8 2e       	mov	r14, r24
     702:	f1 2c       	mov	r15, r1
     704:	ec 0e       	add	r14, r28
     706:	fd 1e       	adc	r15, r29
     708:	ce 01       	movw	r24, r28
     70a:	01 96       	adiw	r24, 0x01	; 1
     70c:	b7 01       	movw	r22, r14
     70e:	0e 94 ca 04 	call	0x994	; 0x994 <__unpack_f>
     712:	8e 01       	movw	r16, r28
     714:	0f 5e       	subi	r16, 0xEF	; 239
     716:	1f 4f       	sbci	r17, 0xFF	; 255
     718:	ce 01       	movw	r24, r28
     71a:	05 96       	adiw	r24, 0x05	; 5
     71c:	b8 01       	movw	r22, r16
     71e:	0e 94 ca 04 	call	0x994	; 0x994 <__unpack_f>
     722:	89 85       	ldd	r24, Y+9	; 0x09
     724:	82 30       	cpi	r24, 0x02	; 2
     726:	40 f0       	brcs	.+16     	; 0x738 <__ltsf2+0x56>
     728:	89 89       	ldd	r24, Y+17	; 0x11
     72a:	82 30       	cpi	r24, 0x02	; 2
     72c:	28 f0       	brcs	.+10     	; 0x738 <__ltsf2+0x56>
     72e:	c7 01       	movw	r24, r14
     730:	b8 01       	movw	r22, r16
     732:	0e 94 42 05 	call	0xa84	; 0xa84 <__fpcmp_parts_f>
     736:	01 c0       	rjmp	.+2      	; 0x73a <__ltsf2+0x58>
     738:	81 e0       	ldi	r24, 0x01	; 1
     73a:	68 96       	adiw	r28, 0x18	; 24
     73c:	e6 e0       	ldi	r30, 0x06	; 6
     73e:	0c 94 ea 0d 	jmp	0x1bd4	; 0x1bd4 <__epilogue_restores__+0x18>

00000742 <__fixsfsi>:
     742:	ac e0       	ldi	r26, 0x0C	; 12
     744:	b0 e0       	ldi	r27, 0x00	; 0
     746:	e7 ea       	ldi	r30, 0xA7	; 167
     748:	f3 e0       	ldi	r31, 0x03	; 3
     74a:	0c 94 d2 0d 	jmp	0x1ba4	; 0x1ba4 <__prologue_saves__+0x20>
     74e:	69 83       	std	Y+1, r22	; 0x01
     750:	7a 83       	std	Y+2, r23	; 0x02
     752:	8b 83       	std	Y+3, r24	; 0x03
     754:	9c 83       	std	Y+4, r25	; 0x04
     756:	ce 01       	movw	r24, r28
     758:	01 96       	adiw	r24, 0x01	; 1
     75a:	be 01       	movw	r22, r28
     75c:	6b 5f       	subi	r22, 0xFB	; 251
     75e:	7f 4f       	sbci	r23, 0xFF	; 255
     760:	0e 94 ca 04 	call	0x994	; 0x994 <__unpack_f>
     764:	8d 81       	ldd	r24, Y+5	; 0x05
     766:	82 30       	cpi	r24, 0x02	; 2
     768:	61 f1       	breq	.+88     	; 0x7c2 <__fixsfsi+0x80>
     76a:	82 30       	cpi	r24, 0x02	; 2
     76c:	50 f1       	brcs	.+84     	; 0x7c2 <__fixsfsi+0x80>
     76e:	84 30       	cpi	r24, 0x04	; 4
     770:	21 f4       	brne	.+8      	; 0x77a <__fixsfsi+0x38>
     772:	8e 81       	ldd	r24, Y+6	; 0x06
     774:	88 23       	and	r24, r24
     776:	51 f1       	breq	.+84     	; 0x7cc <__fixsfsi+0x8a>
     778:	2e c0       	rjmp	.+92     	; 0x7d6 <__fixsfsi+0x94>
     77a:	2f 81       	ldd	r18, Y+7	; 0x07
     77c:	38 85       	ldd	r19, Y+8	; 0x08
     77e:	37 fd       	sbrc	r19, 7
     780:	20 c0       	rjmp	.+64     	; 0x7c2 <__fixsfsi+0x80>
     782:	6e 81       	ldd	r22, Y+6	; 0x06
     784:	2f 31       	cpi	r18, 0x1F	; 31
     786:	31 05       	cpc	r19, r1
     788:	1c f0       	brlt	.+6      	; 0x790 <__fixsfsi+0x4e>
     78a:	66 23       	and	r22, r22
     78c:	f9 f0       	breq	.+62     	; 0x7cc <__fixsfsi+0x8a>
     78e:	23 c0       	rjmp	.+70     	; 0x7d6 <__fixsfsi+0x94>
     790:	8e e1       	ldi	r24, 0x1E	; 30
     792:	90 e0       	ldi	r25, 0x00	; 0
     794:	82 1b       	sub	r24, r18
     796:	93 0b       	sbc	r25, r19
     798:	29 85       	ldd	r18, Y+9	; 0x09
     79a:	3a 85       	ldd	r19, Y+10	; 0x0a
     79c:	4b 85       	ldd	r20, Y+11	; 0x0b
     79e:	5c 85       	ldd	r21, Y+12	; 0x0c
     7a0:	04 c0       	rjmp	.+8      	; 0x7aa <__fixsfsi+0x68>
     7a2:	56 95       	lsr	r21
     7a4:	47 95       	ror	r20
     7a6:	37 95       	ror	r19
     7a8:	27 95       	ror	r18
     7aa:	8a 95       	dec	r24
     7ac:	d2 f7       	brpl	.-12     	; 0x7a2 <__fixsfsi+0x60>
     7ae:	66 23       	and	r22, r22
     7b0:	b1 f0       	breq	.+44     	; 0x7de <__fixsfsi+0x9c>
     7b2:	50 95       	com	r21
     7b4:	40 95       	com	r20
     7b6:	30 95       	com	r19
     7b8:	21 95       	neg	r18
     7ba:	3f 4f       	sbci	r19, 0xFF	; 255
     7bc:	4f 4f       	sbci	r20, 0xFF	; 255
     7be:	5f 4f       	sbci	r21, 0xFF	; 255
     7c0:	0e c0       	rjmp	.+28     	; 0x7de <__fixsfsi+0x9c>
     7c2:	20 e0       	ldi	r18, 0x00	; 0
     7c4:	30 e0       	ldi	r19, 0x00	; 0
     7c6:	40 e0       	ldi	r20, 0x00	; 0
     7c8:	50 e0       	ldi	r21, 0x00	; 0
     7ca:	09 c0       	rjmp	.+18     	; 0x7de <__fixsfsi+0x9c>
     7cc:	2f ef       	ldi	r18, 0xFF	; 255
     7ce:	3f ef       	ldi	r19, 0xFF	; 255
     7d0:	4f ef       	ldi	r20, 0xFF	; 255
     7d2:	5f e7       	ldi	r21, 0x7F	; 127
     7d4:	04 c0       	rjmp	.+8      	; 0x7de <__fixsfsi+0x9c>
     7d6:	20 e0       	ldi	r18, 0x00	; 0
     7d8:	30 e0       	ldi	r19, 0x00	; 0
     7da:	40 e0       	ldi	r20, 0x00	; 0
     7dc:	50 e8       	ldi	r21, 0x80	; 128
     7de:	b9 01       	movw	r22, r18
     7e0:	ca 01       	movw	r24, r20
     7e2:	2c 96       	adiw	r28, 0x0c	; 12
     7e4:	e2 e0       	ldi	r30, 0x02	; 2
     7e6:	0c 94 ee 0d 	jmp	0x1bdc	; 0x1bdc <__epilogue_restores__+0x20>

000007ea <__pack_f>:
     7ea:	df 92       	push	r13
     7ec:	ef 92       	push	r14
     7ee:	ff 92       	push	r15
     7f0:	0f 93       	push	r16
     7f2:	1f 93       	push	r17
     7f4:	fc 01       	movw	r30, r24
     7f6:	e4 80       	ldd	r14, Z+4	; 0x04
     7f8:	f5 80       	ldd	r15, Z+5	; 0x05
     7fa:	06 81       	ldd	r16, Z+6	; 0x06
     7fc:	17 81       	ldd	r17, Z+7	; 0x07
     7fe:	d1 80       	ldd	r13, Z+1	; 0x01
     800:	80 81       	ld	r24, Z
     802:	82 30       	cpi	r24, 0x02	; 2
     804:	48 f4       	brcc	.+18     	; 0x818 <__pack_f+0x2e>
     806:	80 e0       	ldi	r24, 0x00	; 0
     808:	90 e0       	ldi	r25, 0x00	; 0
     80a:	a0 e1       	ldi	r26, 0x10	; 16
     80c:	b0 e0       	ldi	r27, 0x00	; 0
     80e:	e8 2a       	or	r14, r24
     810:	f9 2a       	or	r15, r25
     812:	0a 2b       	or	r16, r26
     814:	1b 2b       	or	r17, r27
     816:	a5 c0       	rjmp	.+330    	; 0x962 <__stack+0x103>
     818:	84 30       	cpi	r24, 0x04	; 4
     81a:	09 f4       	brne	.+2      	; 0x81e <__pack_f+0x34>
     81c:	9f c0       	rjmp	.+318    	; 0x95c <__stack+0xfd>
     81e:	82 30       	cpi	r24, 0x02	; 2
     820:	21 f4       	brne	.+8      	; 0x82a <__pack_f+0x40>
     822:	ee 24       	eor	r14, r14
     824:	ff 24       	eor	r15, r15
     826:	87 01       	movw	r16, r14
     828:	05 c0       	rjmp	.+10     	; 0x834 <__pack_f+0x4a>
     82a:	e1 14       	cp	r14, r1
     82c:	f1 04       	cpc	r15, r1
     82e:	01 05       	cpc	r16, r1
     830:	11 05       	cpc	r17, r1
     832:	19 f4       	brne	.+6      	; 0x83a <__pack_f+0x50>
     834:	e0 e0       	ldi	r30, 0x00	; 0
     836:	f0 e0       	ldi	r31, 0x00	; 0
     838:	96 c0       	rjmp	.+300    	; 0x966 <__stack+0x107>
     83a:	62 81       	ldd	r22, Z+2	; 0x02
     83c:	73 81       	ldd	r23, Z+3	; 0x03
     83e:	9f ef       	ldi	r25, 0xFF	; 255
     840:	62 38       	cpi	r22, 0x82	; 130
     842:	79 07       	cpc	r23, r25
     844:	0c f0       	brlt	.+2      	; 0x848 <__pack_f+0x5e>
     846:	5b c0       	rjmp	.+182    	; 0x8fe <__stack+0x9f>
     848:	22 e8       	ldi	r18, 0x82	; 130
     84a:	3f ef       	ldi	r19, 0xFF	; 255
     84c:	26 1b       	sub	r18, r22
     84e:	37 0b       	sbc	r19, r23
     850:	2a 31       	cpi	r18, 0x1A	; 26
     852:	31 05       	cpc	r19, r1
     854:	2c f0       	brlt	.+10     	; 0x860 <__stack+0x1>
     856:	20 e0       	ldi	r18, 0x00	; 0
     858:	30 e0       	ldi	r19, 0x00	; 0
     85a:	40 e0       	ldi	r20, 0x00	; 0
     85c:	50 e0       	ldi	r21, 0x00	; 0
     85e:	2a c0       	rjmp	.+84     	; 0x8b4 <__stack+0x55>
     860:	b8 01       	movw	r22, r16
     862:	a7 01       	movw	r20, r14
     864:	02 2e       	mov	r0, r18
     866:	04 c0       	rjmp	.+8      	; 0x870 <__stack+0x11>
     868:	76 95       	lsr	r23
     86a:	67 95       	ror	r22
     86c:	57 95       	ror	r21
     86e:	47 95       	ror	r20
     870:	0a 94       	dec	r0
     872:	d2 f7       	brpl	.-12     	; 0x868 <__stack+0x9>
     874:	81 e0       	ldi	r24, 0x01	; 1
     876:	90 e0       	ldi	r25, 0x00	; 0
     878:	a0 e0       	ldi	r26, 0x00	; 0
     87a:	b0 e0       	ldi	r27, 0x00	; 0
     87c:	04 c0       	rjmp	.+8      	; 0x886 <__stack+0x27>
     87e:	88 0f       	add	r24, r24
     880:	99 1f       	adc	r25, r25
     882:	aa 1f       	adc	r26, r26
     884:	bb 1f       	adc	r27, r27
     886:	2a 95       	dec	r18
     888:	d2 f7       	brpl	.-12     	; 0x87e <__stack+0x1f>
     88a:	01 97       	sbiw	r24, 0x01	; 1
     88c:	a1 09       	sbc	r26, r1
     88e:	b1 09       	sbc	r27, r1
     890:	8e 21       	and	r24, r14
     892:	9f 21       	and	r25, r15
     894:	a0 23       	and	r26, r16
     896:	b1 23       	and	r27, r17
     898:	00 97       	sbiw	r24, 0x00	; 0
     89a:	a1 05       	cpc	r26, r1
     89c:	b1 05       	cpc	r27, r1
     89e:	21 f0       	breq	.+8      	; 0x8a8 <__stack+0x49>
     8a0:	81 e0       	ldi	r24, 0x01	; 1
     8a2:	90 e0       	ldi	r25, 0x00	; 0
     8a4:	a0 e0       	ldi	r26, 0x00	; 0
     8a6:	b0 e0       	ldi	r27, 0x00	; 0
     8a8:	9a 01       	movw	r18, r20
     8aa:	ab 01       	movw	r20, r22
     8ac:	28 2b       	or	r18, r24
     8ae:	39 2b       	or	r19, r25
     8b0:	4a 2b       	or	r20, r26
     8b2:	5b 2b       	or	r21, r27
     8b4:	da 01       	movw	r26, r20
     8b6:	c9 01       	movw	r24, r18
     8b8:	8f 77       	andi	r24, 0x7F	; 127
     8ba:	90 70       	andi	r25, 0x00	; 0
     8bc:	a0 70       	andi	r26, 0x00	; 0
     8be:	b0 70       	andi	r27, 0x00	; 0
     8c0:	80 34       	cpi	r24, 0x40	; 64
     8c2:	91 05       	cpc	r25, r1
     8c4:	a1 05       	cpc	r26, r1
     8c6:	b1 05       	cpc	r27, r1
     8c8:	39 f4       	brne	.+14     	; 0x8d8 <__stack+0x79>
     8ca:	27 ff       	sbrs	r18, 7
     8cc:	09 c0       	rjmp	.+18     	; 0x8e0 <__stack+0x81>
     8ce:	20 5c       	subi	r18, 0xC0	; 192
     8d0:	3f 4f       	sbci	r19, 0xFF	; 255
     8d2:	4f 4f       	sbci	r20, 0xFF	; 255
     8d4:	5f 4f       	sbci	r21, 0xFF	; 255
     8d6:	04 c0       	rjmp	.+8      	; 0x8e0 <__stack+0x81>
     8d8:	21 5c       	subi	r18, 0xC1	; 193
     8da:	3f 4f       	sbci	r19, 0xFF	; 255
     8dc:	4f 4f       	sbci	r20, 0xFF	; 255
     8de:	5f 4f       	sbci	r21, 0xFF	; 255
     8e0:	e0 e0       	ldi	r30, 0x00	; 0
     8e2:	f0 e0       	ldi	r31, 0x00	; 0
     8e4:	20 30       	cpi	r18, 0x00	; 0
     8e6:	a0 e0       	ldi	r26, 0x00	; 0
     8e8:	3a 07       	cpc	r19, r26
     8ea:	a0 e0       	ldi	r26, 0x00	; 0
     8ec:	4a 07       	cpc	r20, r26
     8ee:	a0 e4       	ldi	r26, 0x40	; 64
     8f0:	5a 07       	cpc	r21, r26
     8f2:	10 f0       	brcs	.+4      	; 0x8f8 <__stack+0x99>
     8f4:	e1 e0       	ldi	r30, 0x01	; 1
     8f6:	f0 e0       	ldi	r31, 0x00	; 0
     8f8:	79 01       	movw	r14, r18
     8fa:	8a 01       	movw	r16, r20
     8fc:	27 c0       	rjmp	.+78     	; 0x94c <__stack+0xed>
     8fe:	60 38       	cpi	r22, 0x80	; 128
     900:	71 05       	cpc	r23, r1
     902:	64 f5       	brge	.+88     	; 0x95c <__stack+0xfd>
     904:	fb 01       	movw	r30, r22
     906:	e1 58       	subi	r30, 0x81	; 129
     908:	ff 4f       	sbci	r31, 0xFF	; 255
     90a:	d8 01       	movw	r26, r16
     90c:	c7 01       	movw	r24, r14
     90e:	8f 77       	andi	r24, 0x7F	; 127
     910:	90 70       	andi	r25, 0x00	; 0
     912:	a0 70       	andi	r26, 0x00	; 0
     914:	b0 70       	andi	r27, 0x00	; 0
     916:	80 34       	cpi	r24, 0x40	; 64
     918:	91 05       	cpc	r25, r1
     91a:	a1 05       	cpc	r26, r1
     91c:	b1 05       	cpc	r27, r1
     91e:	39 f4       	brne	.+14     	; 0x92e <__stack+0xcf>
     920:	e7 fe       	sbrs	r14, 7
     922:	0d c0       	rjmp	.+26     	; 0x93e <__stack+0xdf>
     924:	80 e4       	ldi	r24, 0x40	; 64
     926:	90 e0       	ldi	r25, 0x00	; 0
     928:	a0 e0       	ldi	r26, 0x00	; 0
     92a:	b0 e0       	ldi	r27, 0x00	; 0
     92c:	04 c0       	rjmp	.+8      	; 0x936 <__stack+0xd7>
     92e:	8f e3       	ldi	r24, 0x3F	; 63
     930:	90 e0       	ldi	r25, 0x00	; 0
     932:	a0 e0       	ldi	r26, 0x00	; 0
     934:	b0 e0       	ldi	r27, 0x00	; 0
     936:	e8 0e       	add	r14, r24
     938:	f9 1e       	adc	r15, r25
     93a:	0a 1f       	adc	r16, r26
     93c:	1b 1f       	adc	r17, r27
     93e:	17 ff       	sbrs	r17, 7
     940:	05 c0       	rjmp	.+10     	; 0x94c <__stack+0xed>
     942:	16 95       	lsr	r17
     944:	07 95       	ror	r16
     946:	f7 94       	ror	r15
     948:	e7 94       	ror	r14
     94a:	31 96       	adiw	r30, 0x01	; 1
     94c:	87 e0       	ldi	r24, 0x07	; 7
     94e:	16 95       	lsr	r17
     950:	07 95       	ror	r16
     952:	f7 94       	ror	r15
     954:	e7 94       	ror	r14
     956:	8a 95       	dec	r24
     958:	d1 f7       	brne	.-12     	; 0x94e <__stack+0xef>
     95a:	05 c0       	rjmp	.+10     	; 0x966 <__stack+0x107>
     95c:	ee 24       	eor	r14, r14
     95e:	ff 24       	eor	r15, r15
     960:	87 01       	movw	r16, r14
     962:	ef ef       	ldi	r30, 0xFF	; 255
     964:	f0 e0       	ldi	r31, 0x00	; 0
     966:	6e 2f       	mov	r22, r30
     968:	67 95       	ror	r22
     96a:	66 27       	eor	r22, r22
     96c:	67 95       	ror	r22
     96e:	90 2f       	mov	r25, r16
     970:	9f 77       	andi	r25, 0x7F	; 127
     972:	d7 94       	ror	r13
     974:	dd 24       	eor	r13, r13
     976:	d7 94       	ror	r13
     978:	8e 2f       	mov	r24, r30
     97a:	86 95       	lsr	r24
     97c:	49 2f       	mov	r20, r25
     97e:	46 2b       	or	r20, r22
     980:	58 2f       	mov	r21, r24
     982:	5d 29       	or	r21, r13
     984:	b7 01       	movw	r22, r14
     986:	ca 01       	movw	r24, r20
     988:	1f 91       	pop	r17
     98a:	0f 91       	pop	r16
     98c:	ff 90       	pop	r15
     98e:	ef 90       	pop	r14
     990:	df 90       	pop	r13
     992:	08 95       	ret

00000994 <__unpack_f>:
     994:	fc 01       	movw	r30, r24
     996:	db 01       	movw	r26, r22
     998:	40 81       	ld	r20, Z
     99a:	51 81       	ldd	r21, Z+1	; 0x01
     99c:	22 81       	ldd	r18, Z+2	; 0x02
     99e:	62 2f       	mov	r22, r18
     9a0:	6f 77       	andi	r22, 0x7F	; 127
     9a2:	70 e0       	ldi	r23, 0x00	; 0
     9a4:	22 1f       	adc	r18, r18
     9a6:	22 27       	eor	r18, r18
     9a8:	22 1f       	adc	r18, r18
     9aa:	93 81       	ldd	r25, Z+3	; 0x03
     9ac:	89 2f       	mov	r24, r25
     9ae:	88 0f       	add	r24, r24
     9b0:	82 2b       	or	r24, r18
     9b2:	28 2f       	mov	r18, r24
     9b4:	30 e0       	ldi	r19, 0x00	; 0
     9b6:	99 1f       	adc	r25, r25
     9b8:	99 27       	eor	r25, r25
     9ba:	99 1f       	adc	r25, r25
     9bc:	11 96       	adiw	r26, 0x01	; 1
     9be:	9c 93       	st	X, r25
     9c0:	11 97       	sbiw	r26, 0x01	; 1
     9c2:	21 15       	cp	r18, r1
     9c4:	31 05       	cpc	r19, r1
     9c6:	a9 f5       	brne	.+106    	; 0xa32 <__unpack_f+0x9e>
     9c8:	41 15       	cp	r20, r1
     9ca:	51 05       	cpc	r21, r1
     9cc:	61 05       	cpc	r22, r1
     9ce:	71 05       	cpc	r23, r1
     9d0:	11 f4       	brne	.+4      	; 0x9d6 <__unpack_f+0x42>
     9d2:	82 e0       	ldi	r24, 0x02	; 2
     9d4:	37 c0       	rjmp	.+110    	; 0xa44 <__unpack_f+0xb0>
     9d6:	82 e8       	ldi	r24, 0x82	; 130
     9d8:	9f ef       	ldi	r25, 0xFF	; 255
     9da:	13 96       	adiw	r26, 0x03	; 3
     9dc:	9c 93       	st	X, r25
     9de:	8e 93       	st	-X, r24
     9e0:	12 97       	sbiw	r26, 0x02	; 2
     9e2:	9a 01       	movw	r18, r20
     9e4:	ab 01       	movw	r20, r22
     9e6:	67 e0       	ldi	r22, 0x07	; 7
     9e8:	22 0f       	add	r18, r18
     9ea:	33 1f       	adc	r19, r19
     9ec:	44 1f       	adc	r20, r20
     9ee:	55 1f       	adc	r21, r21
     9f0:	6a 95       	dec	r22
     9f2:	d1 f7       	brne	.-12     	; 0x9e8 <__unpack_f+0x54>
     9f4:	83 e0       	ldi	r24, 0x03	; 3
     9f6:	8c 93       	st	X, r24
     9f8:	0d c0       	rjmp	.+26     	; 0xa14 <__unpack_f+0x80>
     9fa:	22 0f       	add	r18, r18
     9fc:	33 1f       	adc	r19, r19
     9fe:	44 1f       	adc	r20, r20
     a00:	55 1f       	adc	r21, r21
     a02:	12 96       	adiw	r26, 0x02	; 2
     a04:	8d 91       	ld	r24, X+
     a06:	9c 91       	ld	r25, X
     a08:	13 97       	sbiw	r26, 0x03	; 3
     a0a:	01 97       	sbiw	r24, 0x01	; 1
     a0c:	13 96       	adiw	r26, 0x03	; 3
     a0e:	9c 93       	st	X, r25
     a10:	8e 93       	st	-X, r24
     a12:	12 97       	sbiw	r26, 0x02	; 2
     a14:	20 30       	cpi	r18, 0x00	; 0
     a16:	80 e0       	ldi	r24, 0x00	; 0
     a18:	38 07       	cpc	r19, r24
     a1a:	80 e0       	ldi	r24, 0x00	; 0
     a1c:	48 07       	cpc	r20, r24
     a1e:	80 e4       	ldi	r24, 0x40	; 64
     a20:	58 07       	cpc	r21, r24
     a22:	58 f3       	brcs	.-42     	; 0x9fa <__unpack_f+0x66>
     a24:	14 96       	adiw	r26, 0x04	; 4
     a26:	2d 93       	st	X+, r18
     a28:	3d 93       	st	X+, r19
     a2a:	4d 93       	st	X+, r20
     a2c:	5c 93       	st	X, r21
     a2e:	17 97       	sbiw	r26, 0x07	; 7
     a30:	08 95       	ret
     a32:	2f 3f       	cpi	r18, 0xFF	; 255
     a34:	31 05       	cpc	r19, r1
     a36:	79 f4       	brne	.+30     	; 0xa56 <__unpack_f+0xc2>
     a38:	41 15       	cp	r20, r1
     a3a:	51 05       	cpc	r21, r1
     a3c:	61 05       	cpc	r22, r1
     a3e:	71 05       	cpc	r23, r1
     a40:	19 f4       	brne	.+6      	; 0xa48 <__unpack_f+0xb4>
     a42:	84 e0       	ldi	r24, 0x04	; 4
     a44:	8c 93       	st	X, r24
     a46:	08 95       	ret
     a48:	64 ff       	sbrs	r22, 4
     a4a:	03 c0       	rjmp	.+6      	; 0xa52 <__unpack_f+0xbe>
     a4c:	81 e0       	ldi	r24, 0x01	; 1
     a4e:	8c 93       	st	X, r24
     a50:	12 c0       	rjmp	.+36     	; 0xa76 <__unpack_f+0xe2>
     a52:	1c 92       	st	X, r1
     a54:	10 c0       	rjmp	.+32     	; 0xa76 <__unpack_f+0xe2>
     a56:	2f 57       	subi	r18, 0x7F	; 127
     a58:	30 40       	sbci	r19, 0x00	; 0
     a5a:	13 96       	adiw	r26, 0x03	; 3
     a5c:	3c 93       	st	X, r19
     a5e:	2e 93       	st	-X, r18
     a60:	12 97       	sbiw	r26, 0x02	; 2
     a62:	83 e0       	ldi	r24, 0x03	; 3
     a64:	8c 93       	st	X, r24
     a66:	87 e0       	ldi	r24, 0x07	; 7
     a68:	44 0f       	add	r20, r20
     a6a:	55 1f       	adc	r21, r21
     a6c:	66 1f       	adc	r22, r22
     a6e:	77 1f       	adc	r23, r23
     a70:	8a 95       	dec	r24
     a72:	d1 f7       	brne	.-12     	; 0xa68 <__unpack_f+0xd4>
     a74:	70 64       	ori	r23, 0x40	; 64
     a76:	14 96       	adiw	r26, 0x04	; 4
     a78:	4d 93       	st	X+, r20
     a7a:	5d 93       	st	X+, r21
     a7c:	6d 93       	st	X+, r22
     a7e:	7c 93       	st	X, r23
     a80:	17 97       	sbiw	r26, 0x07	; 7
     a82:	08 95       	ret

00000a84 <__fpcmp_parts_f>:
     a84:	1f 93       	push	r17
     a86:	dc 01       	movw	r26, r24
     a88:	fb 01       	movw	r30, r22
     a8a:	9c 91       	ld	r25, X
     a8c:	92 30       	cpi	r25, 0x02	; 2
     a8e:	08 f4       	brcc	.+2      	; 0xa92 <__fpcmp_parts_f+0xe>
     a90:	47 c0       	rjmp	.+142    	; 0xb20 <__fpcmp_parts_f+0x9c>
     a92:	80 81       	ld	r24, Z
     a94:	82 30       	cpi	r24, 0x02	; 2
     a96:	08 f4       	brcc	.+2      	; 0xa9a <__fpcmp_parts_f+0x16>
     a98:	43 c0       	rjmp	.+134    	; 0xb20 <__fpcmp_parts_f+0x9c>
     a9a:	94 30       	cpi	r25, 0x04	; 4
     a9c:	51 f4       	brne	.+20     	; 0xab2 <__fpcmp_parts_f+0x2e>
     a9e:	11 96       	adiw	r26, 0x01	; 1
     aa0:	1c 91       	ld	r17, X
     aa2:	84 30       	cpi	r24, 0x04	; 4
     aa4:	99 f5       	brne	.+102    	; 0xb0c <__fpcmp_parts_f+0x88>
     aa6:	81 81       	ldd	r24, Z+1	; 0x01
     aa8:	68 2f       	mov	r22, r24
     aaa:	70 e0       	ldi	r23, 0x00	; 0
     aac:	61 1b       	sub	r22, r17
     aae:	71 09       	sbc	r23, r1
     ab0:	3f c0       	rjmp	.+126    	; 0xb30 <__fpcmp_parts_f+0xac>
     ab2:	84 30       	cpi	r24, 0x04	; 4
     ab4:	21 f0       	breq	.+8      	; 0xabe <__fpcmp_parts_f+0x3a>
     ab6:	92 30       	cpi	r25, 0x02	; 2
     ab8:	31 f4       	brne	.+12     	; 0xac6 <__fpcmp_parts_f+0x42>
     aba:	82 30       	cpi	r24, 0x02	; 2
     abc:	b9 f1       	breq	.+110    	; 0xb2c <__fpcmp_parts_f+0xa8>
     abe:	81 81       	ldd	r24, Z+1	; 0x01
     ac0:	88 23       	and	r24, r24
     ac2:	89 f1       	breq	.+98     	; 0xb26 <__fpcmp_parts_f+0xa2>
     ac4:	2d c0       	rjmp	.+90     	; 0xb20 <__fpcmp_parts_f+0x9c>
     ac6:	11 96       	adiw	r26, 0x01	; 1
     ac8:	1c 91       	ld	r17, X
     aca:	11 97       	sbiw	r26, 0x01	; 1
     acc:	82 30       	cpi	r24, 0x02	; 2
     ace:	f1 f0       	breq	.+60     	; 0xb0c <__fpcmp_parts_f+0x88>
     ad0:	81 81       	ldd	r24, Z+1	; 0x01
     ad2:	18 17       	cp	r17, r24
     ad4:	d9 f4       	brne	.+54     	; 0xb0c <__fpcmp_parts_f+0x88>
     ad6:	12 96       	adiw	r26, 0x02	; 2
     ad8:	2d 91       	ld	r18, X+
     ada:	3c 91       	ld	r19, X
     adc:	13 97       	sbiw	r26, 0x03	; 3
     ade:	82 81       	ldd	r24, Z+2	; 0x02
     ae0:	93 81       	ldd	r25, Z+3	; 0x03
     ae2:	82 17       	cp	r24, r18
     ae4:	93 07       	cpc	r25, r19
     ae6:	94 f0       	brlt	.+36     	; 0xb0c <__fpcmp_parts_f+0x88>
     ae8:	28 17       	cp	r18, r24
     aea:	39 07       	cpc	r19, r25
     aec:	bc f0       	brlt	.+46     	; 0xb1c <__fpcmp_parts_f+0x98>
     aee:	14 96       	adiw	r26, 0x04	; 4
     af0:	8d 91       	ld	r24, X+
     af2:	9d 91       	ld	r25, X+
     af4:	0d 90       	ld	r0, X+
     af6:	bc 91       	ld	r27, X
     af8:	a0 2d       	mov	r26, r0
     afa:	24 81       	ldd	r18, Z+4	; 0x04
     afc:	35 81       	ldd	r19, Z+5	; 0x05
     afe:	46 81       	ldd	r20, Z+6	; 0x06
     b00:	57 81       	ldd	r21, Z+7	; 0x07
     b02:	28 17       	cp	r18, r24
     b04:	39 07       	cpc	r19, r25
     b06:	4a 07       	cpc	r20, r26
     b08:	5b 07       	cpc	r21, r27
     b0a:	18 f4       	brcc	.+6      	; 0xb12 <__fpcmp_parts_f+0x8e>
     b0c:	11 23       	and	r17, r17
     b0e:	41 f0       	breq	.+16     	; 0xb20 <__fpcmp_parts_f+0x9c>
     b10:	0a c0       	rjmp	.+20     	; 0xb26 <__fpcmp_parts_f+0xa2>
     b12:	82 17       	cp	r24, r18
     b14:	93 07       	cpc	r25, r19
     b16:	a4 07       	cpc	r26, r20
     b18:	b5 07       	cpc	r27, r21
     b1a:	40 f4       	brcc	.+16     	; 0xb2c <__fpcmp_parts_f+0xa8>
     b1c:	11 23       	and	r17, r17
     b1e:	19 f0       	breq	.+6      	; 0xb26 <__fpcmp_parts_f+0xa2>
     b20:	61 e0       	ldi	r22, 0x01	; 1
     b22:	70 e0       	ldi	r23, 0x00	; 0
     b24:	05 c0       	rjmp	.+10     	; 0xb30 <__fpcmp_parts_f+0xac>
     b26:	6f ef       	ldi	r22, 0xFF	; 255
     b28:	7f ef       	ldi	r23, 0xFF	; 255
     b2a:	02 c0       	rjmp	.+4      	; 0xb30 <__fpcmp_parts_f+0xac>
     b2c:	60 e0       	ldi	r22, 0x00	; 0
     b2e:	70 e0       	ldi	r23, 0x00	; 0
     b30:	cb 01       	movw	r24, r22
     b32:	1f 91       	pop	r17
     b34:	08 95       	ret

00000b36 <LCD_init>:
* Function Name: LCD_init
* Purpose      : initialize LCD - enable mode 4-bit mode - enable both lines - cursor off
* Parameters   : void
* Return value : void
*****************************************************************************/
void LCD_init(void){
     b36:	df 93       	push	r29
     b38:	cf 93       	push	r28
     b3a:	cd b7       	in	r28, 0x3d	; 61
     b3c:	de b7       	in	r29, 0x3e	; 62
     b3e:	e8 97       	sbiw	r28, 0x38	; 56
     b40:	0f b6       	in	r0, 0x3f	; 63
     b42:	f8 94       	cli
     b44:	de bf       	out	0x3e, r29	; 62
     b46:	0f be       	out	0x3f, r0	; 63
     b48:	cd bf       	out	0x3d, r28	; 61
	LCD_PORT_INIT();
     b4a:	a7 e3       	ldi	r26, 0x37	; 55
     b4c:	b0 e0       	ldi	r27, 0x00	; 0
     b4e:	e7 e3       	ldi	r30, 0x37	; 55
     b50:	f0 e0       	ldi	r31, 0x00	; 0
     b52:	80 81       	ld	r24, Z
     b54:	80 6f       	ori	r24, 0xF0	; 240
     b56:	8c 93       	st	X, r24
     b58:	aa e3       	ldi	r26, 0x3A	; 58
     b5a:	b0 e0       	ldi	r27, 0x00	; 0
     b5c:	ea e3       	ldi	r30, 0x3A	; 58
     b5e:	f0 e0       	ldi	r31, 0x00	; 0
     b60:	80 81       	ld	r24, Z
     b62:	87 60       	ori	r24, 0x07	; 7
     b64:	8c 93       	st	X, r24
	LCD_write_command(0x3);
     b66:	83 e0       	ldi	r24, 0x03	; 3
     b68:	0e 94 9f 07 	call	0xf3e	; 0xf3e <LCD_write_command>
     b6c:	80 e0       	ldi	r24, 0x00	; 0
     b6e:	90 e0       	ldi	r25, 0x00	; 0
     b70:	a0 e8       	ldi	r26, 0x80	; 128
     b72:	b0 e4       	ldi	r27, 0x40	; 64
     b74:	8d ab       	std	Y+53, r24	; 0x35
     b76:	9e ab       	std	Y+54, r25	; 0x36
     b78:	af ab       	std	Y+55, r26	; 0x37
     b7a:	b8 af       	std	Y+56, r27	; 0x38
 */
void
_delay_ms(double __ms)
{
	uint16_t __ticks;
	double __tmp = ((F_CPU) / 4e3) * __ms;
     b7c:	6d a9       	ldd	r22, Y+53	; 0x35
     b7e:	7e a9       	ldd	r23, Y+54	; 0x36
     b80:	8f a9       	ldd	r24, Y+55	; 0x37
     b82:	98 ad       	ldd	r25, Y+56	; 0x38
     b84:	20 e0       	ldi	r18, 0x00	; 0
     b86:	30 e0       	ldi	r19, 0x00	; 0
     b88:	4a ef       	ldi	r20, 0xFA	; 250
     b8a:	54 e4       	ldi	r21, 0x44	; 68
     b8c:	0e 94 17 02 	call	0x42e	; 0x42e <__mulsf3>
     b90:	dc 01       	movw	r26, r24
     b92:	cb 01       	movw	r24, r22
     b94:	89 ab       	std	Y+49, r24	; 0x31
     b96:	9a ab       	std	Y+50, r25	; 0x32
     b98:	ab ab       	std	Y+51, r26	; 0x33
     b9a:	bc ab       	std	Y+52, r27	; 0x34
	if (__tmp < 1.0)
     b9c:	69 a9       	ldd	r22, Y+49	; 0x31
     b9e:	7a a9       	ldd	r23, Y+50	; 0x32
     ba0:	8b a9       	ldd	r24, Y+51	; 0x33
     ba2:	9c a9       	ldd	r25, Y+52	; 0x34
     ba4:	20 e0       	ldi	r18, 0x00	; 0
     ba6:	30 e0       	ldi	r19, 0x00	; 0
     ba8:	40 e8       	ldi	r20, 0x80	; 128
     baa:	5f e3       	ldi	r21, 0x3F	; 63
     bac:	0e 94 71 03 	call	0x6e2	; 0x6e2 <__ltsf2>
     bb0:	88 23       	and	r24, r24
     bb2:	2c f4       	brge	.+10     	; 0xbbe <LCD_init+0x88>
		__ticks = 1;
     bb4:	81 e0       	ldi	r24, 0x01	; 1
     bb6:	90 e0       	ldi	r25, 0x00	; 0
     bb8:	98 ab       	std	Y+48, r25	; 0x30
     bba:	8f a7       	std	Y+47, r24	; 0x2f
     bbc:	3f c0       	rjmp	.+126    	; 0xc3c <LCD_init+0x106>
	else if (__tmp > 65535)
     bbe:	69 a9       	ldd	r22, Y+49	; 0x31
     bc0:	7a a9       	ldd	r23, Y+50	; 0x32
     bc2:	8b a9       	ldd	r24, Y+51	; 0x33
     bc4:	9c a9       	ldd	r25, Y+52	; 0x34
     bc6:	20 e0       	ldi	r18, 0x00	; 0
     bc8:	3f ef       	ldi	r19, 0xFF	; 255
     bca:	4f e7       	ldi	r20, 0x7F	; 127
     bcc:	57 e4       	ldi	r21, 0x47	; 71
     bce:	0e 94 11 03 	call	0x622	; 0x622 <__gtsf2>
     bd2:	18 16       	cp	r1, r24
     bd4:	4c f5       	brge	.+82     	; 0xc28 <LCD_init+0xf2>
	{
		//	__ticks = requested delay in 1/10 ms
		__ticks = (uint16_t) (__ms * 10.0);
     bd6:	6d a9       	ldd	r22, Y+53	; 0x35
     bd8:	7e a9       	ldd	r23, Y+54	; 0x36
     bda:	8f a9       	ldd	r24, Y+55	; 0x37
     bdc:	98 ad       	ldd	r25, Y+56	; 0x38
     bde:	20 e0       	ldi	r18, 0x00	; 0
     be0:	30 e0       	ldi	r19, 0x00	; 0
     be2:	40 e2       	ldi	r20, 0x20	; 32
     be4:	51 e4       	ldi	r21, 0x41	; 65
     be6:	0e 94 17 02 	call	0x42e	; 0x42e <__mulsf3>
     bea:	dc 01       	movw	r26, r24
     bec:	cb 01       	movw	r24, r22
     bee:	bc 01       	movw	r22, r24
     bf0:	cd 01       	movw	r24, r26
     bf2:	0e 94 41 00 	call	0x82	; 0x82 <__fixunssfsi>
     bf6:	dc 01       	movw	r26, r24
     bf8:	cb 01       	movw	r24, r22
     bfa:	98 ab       	std	Y+48, r25	; 0x30
     bfc:	8f a7       	std	Y+47, r24	; 0x2f
     bfe:	0f c0       	rjmp	.+30     	; 0xc1e <LCD_init+0xe8>
     c00:	88 ec       	ldi	r24, 0xC8	; 200
     c02:	90 e0       	ldi	r25, 0x00	; 0
     c04:	9e a7       	std	Y+46, r25	; 0x2e
     c06:	8d a7       	std	Y+45, r24	; 0x2d
    milliseconds can be achieved.
 */
void
_delay_loop_2(uint16_t __count)
{
	__asm__ volatile (
     c08:	8d a5       	ldd	r24, Y+45	; 0x2d
     c0a:	9e a5       	ldd	r25, Y+46	; 0x2e
     c0c:	01 97       	sbiw	r24, 0x01	; 1
     c0e:	f1 f7       	brne	.-4      	; 0xc0c <LCD_init+0xd6>
     c10:	9e a7       	std	Y+46, r25	; 0x2e
     c12:	8d a7       	std	Y+45, r24	; 0x2d
		while(__ticks)
		{
			// wait 1/10 ms
			_delay_loop_2(((F_CPU) / 4e3) / 10);
			__ticks --;
     c14:	8f a5       	ldd	r24, Y+47	; 0x2f
     c16:	98 a9       	ldd	r25, Y+48	; 0x30
     c18:	01 97       	sbiw	r24, 0x01	; 1
     c1a:	98 ab       	std	Y+48, r25	; 0x30
     c1c:	8f a7       	std	Y+47, r24	; 0x2f
		__ticks = 1;
	else if (__tmp > 65535)
	{
		//	__ticks = requested delay in 1/10 ms
		__ticks = (uint16_t) (__ms * 10.0);
		while(__ticks)
     c1e:	8f a5       	ldd	r24, Y+47	; 0x2f
     c20:	98 a9       	ldd	r25, Y+48	; 0x30
     c22:	00 97       	sbiw	r24, 0x00	; 0
     c24:	69 f7       	brne	.-38     	; 0xc00 <LCD_init+0xca>
     c26:	14 c0       	rjmp	.+40     	; 0xc50 <LCD_init+0x11a>
			__ticks --;
		}
		return;
	}
	else
		__ticks = (uint16_t)__tmp;
     c28:	69 a9       	ldd	r22, Y+49	; 0x31
     c2a:	7a a9       	ldd	r23, Y+50	; 0x32
     c2c:	8b a9       	ldd	r24, Y+51	; 0x33
     c2e:	9c a9       	ldd	r25, Y+52	; 0x34
     c30:	0e 94 41 00 	call	0x82	; 0x82 <__fixunssfsi>
     c34:	dc 01       	movw	r26, r24
     c36:	cb 01       	movw	r24, r22
     c38:	98 ab       	std	Y+48, r25	; 0x30
     c3a:	8f a7       	std	Y+47, r24	; 0x2f
     c3c:	8f a5       	ldd	r24, Y+47	; 0x2f
     c3e:	98 a9       	ldd	r25, Y+48	; 0x30
     c40:	9c a7       	std	Y+44, r25	; 0x2c
     c42:	8b a7       	std	Y+43, r24	; 0x2b
     c44:	8b a5       	ldd	r24, Y+43	; 0x2b
     c46:	9c a5       	ldd	r25, Y+44	; 0x2c
     c48:	01 97       	sbiw	r24, 0x01	; 1
     c4a:	f1 f7       	brne	.-4      	; 0xc48 <LCD_init+0x112>
     c4c:	9c a7       	std	Y+44, r25	; 0x2c
     c4e:	8b a7       	std	Y+43, r24	; 0x2b
	_delay_ms(4);
	LCD_write_command(0x3);
     c50:	83 e0       	ldi	r24, 0x03	; 3
     c52:	0e 94 9f 07 	call	0xf3e	; 0xf3e <LCD_write_command>
     c56:	80 e0       	ldi	r24, 0x00	; 0
     c58:	90 e0       	ldi	r25, 0x00	; 0
     c5a:	a0 e8       	ldi	r26, 0x80	; 128
     c5c:	b0 e4       	ldi	r27, 0x40	; 64
     c5e:	8f a3       	std	Y+39, r24	; 0x27
     c60:	98 a7       	std	Y+40, r25	; 0x28
     c62:	a9 a7       	std	Y+41, r26	; 0x29
     c64:	ba a7       	std	Y+42, r27	; 0x2a
 */
void
_delay_ms(double __ms)
{
	uint16_t __ticks;
	double __tmp = ((F_CPU) / 4e3) * __ms;
     c66:	6f a1       	ldd	r22, Y+39	; 0x27
     c68:	78 a5       	ldd	r23, Y+40	; 0x28
     c6a:	89 a5       	ldd	r24, Y+41	; 0x29
     c6c:	9a a5       	ldd	r25, Y+42	; 0x2a
     c6e:	20 e0       	ldi	r18, 0x00	; 0
     c70:	30 e0       	ldi	r19, 0x00	; 0
     c72:	4a ef       	ldi	r20, 0xFA	; 250
     c74:	54 e4       	ldi	r21, 0x44	; 68
     c76:	0e 94 17 02 	call	0x42e	; 0x42e <__mulsf3>
     c7a:	dc 01       	movw	r26, r24
     c7c:	cb 01       	movw	r24, r22
     c7e:	8b a3       	std	Y+35, r24	; 0x23
     c80:	9c a3       	std	Y+36, r25	; 0x24
     c82:	ad a3       	std	Y+37, r26	; 0x25
     c84:	be a3       	std	Y+38, r27	; 0x26
	if (__tmp < 1.0)
     c86:	6b a1       	ldd	r22, Y+35	; 0x23
     c88:	7c a1       	ldd	r23, Y+36	; 0x24
     c8a:	8d a1       	ldd	r24, Y+37	; 0x25
     c8c:	9e a1       	ldd	r25, Y+38	; 0x26
     c8e:	20 e0       	ldi	r18, 0x00	; 0
     c90:	30 e0       	ldi	r19, 0x00	; 0
     c92:	40 e8       	ldi	r20, 0x80	; 128
     c94:	5f e3       	ldi	r21, 0x3F	; 63
     c96:	0e 94 71 03 	call	0x6e2	; 0x6e2 <__ltsf2>
     c9a:	88 23       	and	r24, r24
     c9c:	2c f4       	brge	.+10     	; 0xca8 <LCD_init+0x172>
		__ticks = 1;
     c9e:	81 e0       	ldi	r24, 0x01	; 1
     ca0:	90 e0       	ldi	r25, 0x00	; 0
     ca2:	9a a3       	std	Y+34, r25	; 0x22
     ca4:	89 a3       	std	Y+33, r24	; 0x21
     ca6:	3f c0       	rjmp	.+126    	; 0xd26 <LCD_init+0x1f0>
	else if (__tmp > 65535)
     ca8:	6b a1       	ldd	r22, Y+35	; 0x23
     caa:	7c a1       	ldd	r23, Y+36	; 0x24
     cac:	8d a1       	ldd	r24, Y+37	; 0x25
     cae:	9e a1       	ldd	r25, Y+38	; 0x26
     cb0:	20 e0       	ldi	r18, 0x00	; 0
     cb2:	3f ef       	ldi	r19, 0xFF	; 255
     cb4:	4f e7       	ldi	r20, 0x7F	; 127
     cb6:	57 e4       	ldi	r21, 0x47	; 71
     cb8:	0e 94 11 03 	call	0x622	; 0x622 <__gtsf2>
     cbc:	18 16       	cp	r1, r24
     cbe:	4c f5       	brge	.+82     	; 0xd12 <LCD_init+0x1dc>
	{
		//	__ticks = requested delay in 1/10 ms
		__ticks = (uint16_t) (__ms * 10.0);
     cc0:	6f a1       	ldd	r22, Y+39	; 0x27
     cc2:	78 a5       	ldd	r23, Y+40	; 0x28
     cc4:	89 a5       	ldd	r24, Y+41	; 0x29
     cc6:	9a a5       	ldd	r25, Y+42	; 0x2a
     cc8:	20 e0       	ldi	r18, 0x00	; 0
     cca:	30 e0       	ldi	r19, 0x00	; 0
     ccc:	40 e2       	ldi	r20, 0x20	; 32
     cce:	51 e4       	ldi	r21, 0x41	; 65
     cd0:	0e 94 17 02 	call	0x42e	; 0x42e <__mulsf3>
     cd4:	dc 01       	movw	r26, r24
     cd6:	cb 01       	movw	r24, r22
     cd8:	bc 01       	movw	r22, r24
     cda:	cd 01       	movw	r24, r26
     cdc:	0e 94 41 00 	call	0x82	; 0x82 <__fixunssfsi>
     ce0:	dc 01       	movw	r26, r24
     ce2:	cb 01       	movw	r24, r22
     ce4:	9a a3       	std	Y+34, r25	; 0x22
     ce6:	89 a3       	std	Y+33, r24	; 0x21
     ce8:	0f c0       	rjmp	.+30     	; 0xd08 <LCD_init+0x1d2>
     cea:	88 ec       	ldi	r24, 0xC8	; 200
     cec:	90 e0       	ldi	r25, 0x00	; 0
     cee:	98 a3       	std	Y+32, r25	; 0x20
     cf0:	8f 8f       	std	Y+31, r24	; 0x1f
     cf2:	8f 8d       	ldd	r24, Y+31	; 0x1f
     cf4:	98 a1       	ldd	r25, Y+32	; 0x20
     cf6:	01 97       	sbiw	r24, 0x01	; 1
     cf8:	f1 f7       	brne	.-4      	; 0xcf6 <LCD_init+0x1c0>
     cfa:	98 a3       	std	Y+32, r25	; 0x20
     cfc:	8f 8f       	std	Y+31, r24	; 0x1f
		while(__ticks)
		{
			// wait 1/10 ms
			_delay_loop_2(((F_CPU) / 4e3) / 10);
			__ticks --;
     cfe:	89 a1       	ldd	r24, Y+33	; 0x21
     d00:	9a a1       	ldd	r25, Y+34	; 0x22
     d02:	01 97       	sbiw	r24, 0x01	; 1
     d04:	9a a3       	std	Y+34, r25	; 0x22
     d06:	89 a3       	std	Y+33, r24	; 0x21
		__ticks = 1;
	else if (__tmp > 65535)
	{
		//	__ticks = requested delay in 1/10 ms
		__ticks = (uint16_t) (__ms * 10.0);
		while(__ticks)
     d08:	89 a1       	ldd	r24, Y+33	; 0x21
     d0a:	9a a1       	ldd	r25, Y+34	; 0x22
     d0c:	00 97       	sbiw	r24, 0x00	; 0
     d0e:	69 f7       	brne	.-38     	; 0xcea <LCD_init+0x1b4>
     d10:	14 c0       	rjmp	.+40     	; 0xd3a <LCD_init+0x204>
			__ticks --;
		}
		return;
	}
	else
		__ticks = (uint16_t)__tmp;
     d12:	6b a1       	ldd	r22, Y+35	; 0x23
     d14:	7c a1       	ldd	r23, Y+36	; 0x24
     d16:	8d a1       	ldd	r24, Y+37	; 0x25
     d18:	9e a1       	ldd	r25, Y+38	; 0x26
     d1a:	0e 94 41 00 	call	0x82	; 0x82 <__fixunssfsi>
     d1e:	dc 01       	movw	r26, r24
     d20:	cb 01       	movw	r24, r22
     d22:	9a a3       	std	Y+34, r25	; 0x22
     d24:	89 a3       	std	Y+33, r24	; 0x21
     d26:	89 a1       	ldd	r24, Y+33	; 0x21
     d28:	9a a1       	ldd	r25, Y+34	; 0x22
     d2a:	9e 8f       	std	Y+30, r25	; 0x1e
     d2c:	8d 8f       	std	Y+29, r24	; 0x1d
     d2e:	8d 8d       	ldd	r24, Y+29	; 0x1d
     d30:	9e 8d       	ldd	r25, Y+30	; 0x1e
     d32:	01 97       	sbiw	r24, 0x01	; 1
     d34:	f1 f7       	brne	.-4      	; 0xd32 <LCD_init+0x1fc>
     d36:	9e 8f       	std	Y+30, r25	; 0x1e
     d38:	8d 8f       	std	Y+29, r24	; 0x1d
	_delay_ms(4);
	LCD_write_command(0x3);
     d3a:	83 e0       	ldi	r24, 0x03	; 3
     d3c:	0e 94 9f 07 	call	0xf3e	; 0xf3e <LCD_write_command>
     d40:	80 e0       	ldi	r24, 0x00	; 0
     d42:	90 e0       	ldi	r25, 0x00	; 0
     d44:	a0 e8       	ldi	r26, 0x80	; 128
     d46:	b0 e4       	ldi	r27, 0x40	; 64
     d48:	89 8f       	std	Y+25, r24	; 0x19
     d4a:	9a 8f       	std	Y+26, r25	; 0x1a
     d4c:	ab 8f       	std	Y+27, r26	; 0x1b
     d4e:	bc 8f       	std	Y+28, r27	; 0x1c
 */
void
_delay_ms(double __ms)
{
	uint16_t __ticks;
	double __tmp = ((F_CPU) / 4e3) * __ms;
     d50:	69 8d       	ldd	r22, Y+25	; 0x19
     d52:	7a 8d       	ldd	r23, Y+26	; 0x1a
     d54:	8b 8d       	ldd	r24, Y+27	; 0x1b
     d56:	9c 8d       	ldd	r25, Y+28	; 0x1c
     d58:	20 e0       	ldi	r18, 0x00	; 0
     d5a:	30 e0       	ldi	r19, 0x00	; 0
     d5c:	4a ef       	ldi	r20, 0xFA	; 250
     d5e:	54 e4       	ldi	r21, 0x44	; 68
     d60:	0e 94 17 02 	call	0x42e	; 0x42e <__mulsf3>
     d64:	dc 01       	movw	r26, r24
     d66:	cb 01       	movw	r24, r22
     d68:	8d 8b       	std	Y+21, r24	; 0x15
     d6a:	9e 8b       	std	Y+22, r25	; 0x16
     d6c:	af 8b       	std	Y+23, r26	; 0x17
     d6e:	b8 8f       	std	Y+24, r27	; 0x18
	if (__tmp < 1.0)
     d70:	6d 89       	ldd	r22, Y+21	; 0x15
     d72:	7e 89       	ldd	r23, Y+22	; 0x16
     d74:	8f 89       	ldd	r24, Y+23	; 0x17
     d76:	98 8d       	ldd	r25, Y+24	; 0x18
     d78:	20 e0       	ldi	r18, 0x00	; 0
     d7a:	30 e0       	ldi	r19, 0x00	; 0
     d7c:	40 e8       	ldi	r20, 0x80	; 128
     d7e:	5f e3       	ldi	r21, 0x3F	; 63
     d80:	0e 94 71 03 	call	0x6e2	; 0x6e2 <__ltsf2>
     d84:	88 23       	and	r24, r24
     d86:	2c f4       	brge	.+10     	; 0xd92 <LCD_init+0x25c>
		__ticks = 1;
     d88:	81 e0       	ldi	r24, 0x01	; 1
     d8a:	90 e0       	ldi	r25, 0x00	; 0
     d8c:	9c 8b       	std	Y+20, r25	; 0x14
     d8e:	8b 8b       	std	Y+19, r24	; 0x13
     d90:	3f c0       	rjmp	.+126    	; 0xe10 <LCD_init+0x2da>
	else if (__tmp > 65535)
     d92:	6d 89       	ldd	r22, Y+21	; 0x15
     d94:	7e 89       	ldd	r23, Y+22	; 0x16
     d96:	8f 89       	ldd	r24, Y+23	; 0x17
     d98:	98 8d       	ldd	r25, Y+24	; 0x18
     d9a:	20 e0       	ldi	r18, 0x00	; 0
     d9c:	3f ef       	ldi	r19, 0xFF	; 255
     d9e:	4f e7       	ldi	r20, 0x7F	; 127
     da0:	57 e4       	ldi	r21, 0x47	; 71
     da2:	0e 94 11 03 	call	0x622	; 0x622 <__gtsf2>
     da6:	18 16       	cp	r1, r24
     da8:	4c f5       	brge	.+82     	; 0xdfc <LCD_init+0x2c6>
	{
		//	__ticks = requested delay in 1/10 ms
		__ticks = (uint16_t) (__ms * 10.0);
     daa:	69 8d       	ldd	r22, Y+25	; 0x19
     dac:	7a 8d       	ldd	r23, Y+26	; 0x1a
     dae:	8b 8d       	ldd	r24, Y+27	; 0x1b
     db0:	9c 8d       	ldd	r25, Y+28	; 0x1c
     db2:	20 e0       	ldi	r18, 0x00	; 0
     db4:	30 e0       	ldi	r19, 0x00	; 0
     db6:	40 e2       	ldi	r20, 0x20	; 32
     db8:	51 e4       	ldi	r21, 0x41	; 65
     dba:	0e 94 17 02 	call	0x42e	; 0x42e <__mulsf3>
     dbe:	dc 01       	movw	r26, r24
     dc0:	cb 01       	movw	r24, r22
     dc2:	bc 01       	movw	r22, r24
     dc4:	cd 01       	movw	r24, r26
     dc6:	0e 94 41 00 	call	0x82	; 0x82 <__fixunssfsi>
     dca:	dc 01       	movw	r26, r24
     dcc:	cb 01       	movw	r24, r22
     dce:	9c 8b       	std	Y+20, r25	; 0x14
     dd0:	8b 8b       	std	Y+19, r24	; 0x13
     dd2:	0f c0       	rjmp	.+30     	; 0xdf2 <LCD_init+0x2bc>
     dd4:	88 ec       	ldi	r24, 0xC8	; 200
     dd6:	90 e0       	ldi	r25, 0x00	; 0
     dd8:	9a 8b       	std	Y+18, r25	; 0x12
     dda:	89 8b       	std	Y+17, r24	; 0x11
     ddc:	89 89       	ldd	r24, Y+17	; 0x11
     dde:	9a 89       	ldd	r25, Y+18	; 0x12
     de0:	01 97       	sbiw	r24, 0x01	; 1
     de2:	f1 f7       	brne	.-4      	; 0xde0 <LCD_init+0x2aa>
     de4:	9a 8b       	std	Y+18, r25	; 0x12
     de6:	89 8b       	std	Y+17, r24	; 0x11
		while(__ticks)
		{
			// wait 1/10 ms
			_delay_loop_2(((F_CPU) / 4e3) / 10);
			__ticks --;
     de8:	8b 89       	ldd	r24, Y+19	; 0x13
     dea:	9c 89       	ldd	r25, Y+20	; 0x14
     dec:	01 97       	sbiw	r24, 0x01	; 1
     dee:	9c 8b       	std	Y+20, r25	; 0x14
     df0:	8b 8b       	std	Y+19, r24	; 0x13
		__ticks = 1;
	else if (__tmp > 65535)
	{
		//	__ticks = requested delay in 1/10 ms
		__ticks = (uint16_t) (__ms * 10.0);
		while(__ticks)
     df2:	8b 89       	ldd	r24, Y+19	; 0x13
     df4:	9c 89       	ldd	r25, Y+20	; 0x14
     df6:	00 97       	sbiw	r24, 0x00	; 0
     df8:	69 f7       	brne	.-38     	; 0xdd4 <LCD_init+0x29e>
     dfa:	14 c0       	rjmp	.+40     	; 0xe24 <LCD_init+0x2ee>
			__ticks --;
		}
		return;
	}
	else
		__ticks = (uint16_t)__tmp;
     dfc:	6d 89       	ldd	r22, Y+21	; 0x15
     dfe:	7e 89       	ldd	r23, Y+22	; 0x16
     e00:	8f 89       	ldd	r24, Y+23	; 0x17
     e02:	98 8d       	ldd	r25, Y+24	; 0x18
     e04:	0e 94 41 00 	call	0x82	; 0x82 <__fixunssfsi>
     e08:	dc 01       	movw	r26, r24
     e0a:	cb 01       	movw	r24, r22
     e0c:	9c 8b       	std	Y+20, r25	; 0x14
     e0e:	8b 8b       	std	Y+19, r24	; 0x13
     e10:	8b 89       	ldd	r24, Y+19	; 0x13
     e12:	9c 89       	ldd	r25, Y+20	; 0x14
     e14:	98 8b       	std	Y+16, r25	; 0x10
     e16:	8f 87       	std	Y+15, r24	; 0x0f
     e18:	8f 85       	ldd	r24, Y+15	; 0x0f
     e1a:	98 89       	ldd	r25, Y+16	; 0x10
     e1c:	01 97       	sbiw	r24, 0x01	; 1
     e1e:	f1 f7       	brne	.-4      	; 0xe1c <LCD_init+0x2e6>
     e20:	98 8b       	std	Y+16, r25	; 0x10
     e22:	8f 87       	std	Y+15, r24	; 0x0f
	_delay_ms(4);
	LCD_write_command(0x2); //enable 4-bit mode 
     e24:	82 e0       	ldi	r24, 0x02	; 2
     e26:	0e 94 9f 07 	call	0xf3e	; 0xf3e <LCD_write_command>
	LCD_write_command(0x28);
     e2a:	88 e2       	ldi	r24, 0x28	; 40
     e2c:	0e 94 9f 07 	call	0xf3e	; 0xf3e <LCD_write_command>
	LCD_write_command(0x08);
     e30:	88 e0       	ldi	r24, 0x08	; 8
     e32:	0e 94 9f 07 	call	0xf3e	; 0xf3e <LCD_write_command>
	LCD_write_command(0x01);//to clear LCD 
     e36:	81 e0       	ldi	r24, 0x01	; 1
     e38:	0e 94 9f 07 	call	0xf3e	; 0xf3e <LCD_write_command>
	LCD_write_command(0x06);//make cursor increment to right 
     e3c:	86 e0       	ldi	r24, 0x06	; 6
     e3e:	0e 94 9f 07 	call	0xf3e	; 0xf3e <LCD_write_command>
	LCD_write_command(0x0C);//turn on the display
     e42:	8c e0       	ldi	r24, 0x0C	; 12
     e44:	0e 94 9f 07 	call	0xf3e	; 0xf3e <LCD_write_command>
     e48:	80 e0       	ldi	r24, 0x00	; 0
     e4a:	90 e0       	ldi	r25, 0x00	; 0
     e4c:	a0 ea       	ldi	r26, 0xA0	; 160
     e4e:	b1 e4       	ldi	r27, 0x41	; 65
     e50:	8b 87       	std	Y+11, r24	; 0x0b
     e52:	9c 87       	std	Y+12, r25	; 0x0c
     e54:	ad 87       	std	Y+13, r26	; 0x0d
     e56:	be 87       	std	Y+14, r27	; 0x0e
 */
void
_delay_ms(double __ms)
{
	uint16_t __ticks;
	double __tmp = ((F_CPU) / 4e3) * __ms;
     e58:	6b 85       	ldd	r22, Y+11	; 0x0b
     e5a:	7c 85       	ldd	r23, Y+12	; 0x0c
     e5c:	8d 85       	ldd	r24, Y+13	; 0x0d
     e5e:	9e 85       	ldd	r25, Y+14	; 0x0e
     e60:	20 e0       	ldi	r18, 0x00	; 0
     e62:	30 e0       	ldi	r19, 0x00	; 0
     e64:	4a ef       	ldi	r20, 0xFA	; 250
     e66:	54 e4       	ldi	r21, 0x44	; 68
     e68:	0e 94 17 02 	call	0x42e	; 0x42e <__mulsf3>
     e6c:	dc 01       	movw	r26, r24
     e6e:	cb 01       	movw	r24, r22
     e70:	8f 83       	std	Y+7, r24	; 0x07
     e72:	98 87       	std	Y+8, r25	; 0x08
     e74:	a9 87       	std	Y+9, r26	; 0x09
     e76:	ba 87       	std	Y+10, r27	; 0x0a
	if (__tmp < 1.0)
     e78:	6f 81       	ldd	r22, Y+7	; 0x07
     e7a:	78 85       	ldd	r23, Y+8	; 0x08
     e7c:	89 85       	ldd	r24, Y+9	; 0x09
     e7e:	9a 85       	ldd	r25, Y+10	; 0x0a
     e80:	20 e0       	ldi	r18, 0x00	; 0
     e82:	30 e0       	ldi	r19, 0x00	; 0
     e84:	40 e8       	ldi	r20, 0x80	; 128
     e86:	5f e3       	ldi	r21, 0x3F	; 63
     e88:	0e 94 71 03 	call	0x6e2	; 0x6e2 <__ltsf2>
     e8c:	88 23       	and	r24, r24
     e8e:	2c f4       	brge	.+10     	; 0xe9a <LCD_init+0x364>
		__ticks = 1;
     e90:	81 e0       	ldi	r24, 0x01	; 1
     e92:	90 e0       	ldi	r25, 0x00	; 0
     e94:	9e 83       	std	Y+6, r25	; 0x06
     e96:	8d 83       	std	Y+5, r24	; 0x05
     e98:	3f c0       	rjmp	.+126    	; 0xf18 <LCD_init+0x3e2>
	else if (__tmp > 65535)
     e9a:	6f 81       	ldd	r22, Y+7	; 0x07
     e9c:	78 85       	ldd	r23, Y+8	; 0x08
     e9e:	89 85       	ldd	r24, Y+9	; 0x09
     ea0:	9a 85       	ldd	r25, Y+10	; 0x0a
     ea2:	20 e0       	ldi	r18, 0x00	; 0
     ea4:	3f ef       	ldi	r19, 0xFF	; 255
     ea6:	4f e7       	ldi	r20, 0x7F	; 127
     ea8:	57 e4       	ldi	r21, 0x47	; 71
     eaa:	0e 94 11 03 	call	0x622	; 0x622 <__gtsf2>
     eae:	18 16       	cp	r1, r24
     eb0:	4c f5       	brge	.+82     	; 0xf04 <LCD_init+0x3ce>
	{
		//	__ticks = requested delay in 1/10 ms
		__ticks = (uint16_t) (__ms * 10.0);
     eb2:	6b 85       	ldd	r22, Y+11	; 0x0b
     eb4:	7c 85       	ldd	r23, Y+12	; 0x0c
     eb6:	8d 85       	ldd	r24, Y+13	; 0x0d
     eb8:	9e 85       	ldd	r25, Y+14	; 0x0e
     eba:	20 e0       	ldi	r18, 0x00	; 0
     ebc:	30 e0       	ldi	r19, 0x00	; 0
     ebe:	40 e2       	ldi	r20, 0x20	; 32
     ec0:	51 e4       	ldi	r21, 0x41	; 65
     ec2:	0e 94 17 02 	call	0x42e	; 0x42e <__mulsf3>
     ec6:	dc 01       	movw	r26, r24
     ec8:	cb 01       	movw	r24, r22
     eca:	bc 01       	movw	r22, r24
     ecc:	cd 01       	movw	r24, r26
     ece:	0e 94 41 00 	call	0x82	; 0x82 <__fixunssfsi>
     ed2:	dc 01       	movw	r26, r24
     ed4:	cb 01       	movw	r24, r22
     ed6:	9e 83       	std	Y+6, r25	; 0x06
     ed8:	8d 83       	std	Y+5, r24	; 0x05
     eda:	0f c0       	rjmp	.+30     	; 0xefa <LCD_init+0x3c4>
     edc:	88 ec       	ldi	r24, 0xC8	; 200
     ede:	90 e0       	ldi	r25, 0x00	; 0
     ee0:	9c 83       	std	Y+4, r25	; 0x04
     ee2:	8b 83       	std	Y+3, r24	; 0x03
     ee4:	8b 81       	ldd	r24, Y+3	; 0x03
     ee6:	9c 81       	ldd	r25, Y+4	; 0x04
     ee8:	01 97       	sbiw	r24, 0x01	; 1
     eea:	f1 f7       	brne	.-4      	; 0xee8 <LCD_init+0x3b2>
     eec:	9c 83       	std	Y+4, r25	; 0x04
     eee:	8b 83       	std	Y+3, r24	; 0x03
		while(__ticks)
		{
			// wait 1/10 ms
			_delay_loop_2(((F_CPU) / 4e3) / 10);
			__ticks --;
     ef0:	8d 81       	ldd	r24, Y+5	; 0x05
     ef2:	9e 81       	ldd	r25, Y+6	; 0x06
     ef4:	01 97       	sbiw	r24, 0x01	; 1
     ef6:	9e 83       	std	Y+6, r25	; 0x06
     ef8:	8d 83       	std	Y+5, r24	; 0x05
		__ticks = 1;
	else if (__tmp > 65535)
	{
		//	__ticks = requested delay in 1/10 ms
		__ticks = (uint16_t) (__ms * 10.0);
		while(__ticks)
     efa:	8d 81       	ldd	r24, Y+5	; 0x05
     efc:	9e 81       	ldd	r25, Y+6	; 0x06
     efe:	00 97       	sbiw	r24, 0x00	; 0
     f00:	69 f7       	brne	.-38     	; 0xedc <LCD_init+0x3a6>
     f02:	14 c0       	rjmp	.+40     	; 0xf2c <LCD_init+0x3f6>
			__ticks --;
		}
		return;
	}
	else
		__ticks = (uint16_t)__tmp;
     f04:	6f 81       	ldd	r22, Y+7	; 0x07
     f06:	78 85       	ldd	r23, Y+8	; 0x08
     f08:	89 85       	ldd	r24, Y+9	; 0x09
     f0a:	9a 85       	ldd	r25, Y+10	; 0x0a
     f0c:	0e 94 41 00 	call	0x82	; 0x82 <__fixunssfsi>
     f10:	dc 01       	movw	r26, r24
     f12:	cb 01       	movw	r24, r22
     f14:	9e 83       	std	Y+6, r25	; 0x06
     f16:	8d 83       	std	Y+5, r24	; 0x05
     f18:	8d 81       	ldd	r24, Y+5	; 0x05
     f1a:	9e 81       	ldd	r25, Y+6	; 0x06
     f1c:	9a 83       	std	Y+2, r25	; 0x02
     f1e:	89 83       	std	Y+1, r24	; 0x01
     f20:	89 81       	ldd	r24, Y+1	; 0x01
     f22:	9a 81       	ldd	r25, Y+2	; 0x02
     f24:	01 97       	sbiw	r24, 0x01	; 1
     f26:	f1 f7       	brne	.-4      	; 0xf24 <LCD_init+0x3ee>
     f28:	9a 83       	std	Y+2, r25	; 0x02
     f2a:	89 83       	std	Y+1, r24	; 0x01
 	_delay_ms(20);
}
     f2c:	e8 96       	adiw	r28, 0x38	; 56
     f2e:	0f b6       	in	r0, 0x3f	; 63
     f30:	f8 94       	cli
     f32:	de bf       	out	0x3e, r29	; 62
     f34:	0f be       	out	0x3f, r0	; 63
     f36:	cd bf       	out	0x3d, r28	; 61
     f38:	cf 91       	pop	r28
     f3a:	df 91       	pop	r29
     f3c:	08 95       	ret

00000f3e <LCD_write_command>:
* Purpose      : send a specific command to LCD
* Parameters   : uint8_t: the value of command
* Return value : void
*****************************************************************************/

void LCD_write_command(uint8_t com){
     f3e:	df 93       	push	r29
     f40:	cf 93       	push	r28
     f42:	cd b7       	in	r28, 0x3d	; 61
     f44:	de b7       	in	r29, 0x3e	; 62
     f46:	e9 97       	sbiw	r28, 0x39	; 57
     f48:	0f b6       	in	r0, 0x3f	; 63
     f4a:	f8 94       	cli
     f4c:	de bf       	out	0x3e, r29	; 62
     f4e:	0f be       	out	0x3f, r0	; 63
     f50:	cd bf       	out	0x3d, r28	; 61
     f52:	89 af       	std	Y+57, r24	; 0x39
	
	// send last 4 bits in com after enable command
	RS(0);
     f54:	ab e3       	ldi	r26, 0x3B	; 59
     f56:	b0 e0       	ldi	r27, 0x00	; 0
     f58:	eb e3       	ldi	r30, 0x3B	; 59
     f5a:	f0 e0       	ldi	r31, 0x00	; 0
     f5c:	80 81       	ld	r24, Z
     f5e:	8e 7f       	andi	r24, 0xFE	; 254
     f60:	8c 93       	st	X, r24
	D4(READBIT(com,4));
     f62:	89 ad       	ldd	r24, Y+57	; 0x39
     f64:	82 95       	swap	r24
     f66:	8f 70       	andi	r24, 0x0F	; 15
     f68:	88 2f       	mov	r24, r24
     f6a:	90 e0       	ldi	r25, 0x00	; 0
     f6c:	81 70       	andi	r24, 0x01	; 1
     f6e:	90 70       	andi	r25, 0x00	; 0
     f70:	88 23       	and	r24, r24
     f72:	41 f0       	breq	.+16     	; 0xf84 <LCD_write_command+0x46>
     f74:	a8 e3       	ldi	r26, 0x38	; 56
     f76:	b0 e0       	ldi	r27, 0x00	; 0
     f78:	e8 e3       	ldi	r30, 0x38	; 56
     f7a:	f0 e0       	ldi	r31, 0x00	; 0
     f7c:	80 81       	ld	r24, Z
     f7e:	80 61       	ori	r24, 0x10	; 16
     f80:	8c 93       	st	X, r24
     f82:	07 c0       	rjmp	.+14     	; 0xf92 <LCD_write_command+0x54>
     f84:	a8 e3       	ldi	r26, 0x38	; 56
     f86:	b0 e0       	ldi	r27, 0x00	; 0
     f88:	e8 e3       	ldi	r30, 0x38	; 56
     f8a:	f0 e0       	ldi	r31, 0x00	; 0
     f8c:	80 81       	ld	r24, Z
     f8e:	8f 7e       	andi	r24, 0xEF	; 239
     f90:	8c 93       	st	X, r24
	D5(READBIT(com,5));
     f92:	89 ad       	ldd	r24, Y+57	; 0x39
     f94:	82 95       	swap	r24
     f96:	86 95       	lsr	r24
     f98:	87 70       	andi	r24, 0x07	; 7
     f9a:	88 2f       	mov	r24, r24
     f9c:	90 e0       	ldi	r25, 0x00	; 0
     f9e:	81 70       	andi	r24, 0x01	; 1
     fa0:	90 70       	andi	r25, 0x00	; 0
     fa2:	88 23       	and	r24, r24
     fa4:	41 f0       	breq	.+16     	; 0xfb6 <LCD_write_command+0x78>
     fa6:	a8 e3       	ldi	r26, 0x38	; 56
     fa8:	b0 e0       	ldi	r27, 0x00	; 0
     faa:	e8 e3       	ldi	r30, 0x38	; 56
     fac:	f0 e0       	ldi	r31, 0x00	; 0
     fae:	80 81       	ld	r24, Z
     fb0:	80 62       	ori	r24, 0x20	; 32
     fb2:	8c 93       	st	X, r24
     fb4:	07 c0       	rjmp	.+14     	; 0xfc4 <LCD_write_command+0x86>
     fb6:	a8 e3       	ldi	r26, 0x38	; 56
     fb8:	b0 e0       	ldi	r27, 0x00	; 0
     fba:	e8 e3       	ldi	r30, 0x38	; 56
     fbc:	f0 e0       	ldi	r31, 0x00	; 0
     fbe:	80 81       	ld	r24, Z
     fc0:	8f 7d       	andi	r24, 0xDF	; 223
     fc2:	8c 93       	st	X, r24
	D6(READBIT(com,6));
     fc4:	89 ad       	ldd	r24, Y+57	; 0x39
     fc6:	82 95       	swap	r24
     fc8:	86 95       	lsr	r24
     fca:	86 95       	lsr	r24
     fcc:	83 70       	andi	r24, 0x03	; 3
     fce:	88 2f       	mov	r24, r24
     fd0:	90 e0       	ldi	r25, 0x00	; 0
     fd2:	81 70       	andi	r24, 0x01	; 1
     fd4:	90 70       	andi	r25, 0x00	; 0
     fd6:	88 23       	and	r24, r24
     fd8:	41 f0       	breq	.+16     	; 0xfea <LCD_write_command+0xac>
     fda:	a8 e3       	ldi	r26, 0x38	; 56
     fdc:	b0 e0       	ldi	r27, 0x00	; 0
     fde:	e8 e3       	ldi	r30, 0x38	; 56
     fe0:	f0 e0       	ldi	r31, 0x00	; 0
     fe2:	80 81       	ld	r24, Z
     fe4:	80 64       	ori	r24, 0x40	; 64
     fe6:	8c 93       	st	X, r24
     fe8:	07 c0       	rjmp	.+14     	; 0xff8 <LCD_write_command+0xba>
     fea:	a8 e3       	ldi	r26, 0x38	; 56
     fec:	b0 e0       	ldi	r27, 0x00	; 0
     fee:	e8 e3       	ldi	r30, 0x38	; 56
     ff0:	f0 e0       	ldi	r31, 0x00	; 0
     ff2:	80 81       	ld	r24, Z
     ff4:	8f 7b       	andi	r24, 0xBF	; 191
     ff6:	8c 93       	st	X, r24
	D7(READBIT(com,7));
     ff8:	89 ad       	ldd	r24, Y+57	; 0x39
     ffa:	88 1f       	adc	r24, r24
     ffc:	88 27       	eor	r24, r24
     ffe:	88 1f       	adc	r24, r24
    1000:	81 30       	cpi	r24, 0x01	; 1
    1002:	41 f4       	brne	.+16     	; 0x1014 <LCD_write_command+0xd6>
    1004:	a8 e3       	ldi	r26, 0x38	; 56
    1006:	b0 e0       	ldi	r27, 0x00	; 0
    1008:	e8 e3       	ldi	r30, 0x38	; 56
    100a:	f0 e0       	ldi	r31, 0x00	; 0
    100c:	80 81       	ld	r24, Z
    100e:	80 68       	ori	r24, 0x80	; 128
    1010:	8c 93       	st	X, r24
    1012:	07 c0       	rjmp	.+14     	; 0x1022 <LCD_write_command+0xe4>
    1014:	a8 e3       	ldi	r26, 0x38	; 56
    1016:	b0 e0       	ldi	r27, 0x00	; 0
    1018:	e8 e3       	ldi	r30, 0x38	; 56
    101a:	f0 e0       	ldi	r31, 0x00	; 0
    101c:	80 81       	ld	r24, Z
    101e:	8f 77       	andi	r24, 0x7F	; 127
    1020:	8c 93       	st	X, r24
	EN(1);
    1022:	ab e3       	ldi	r26, 0x3B	; 59
    1024:	b0 e0       	ldi	r27, 0x00	; 0
    1026:	eb e3       	ldi	r30, 0x3B	; 59
    1028:	f0 e0       	ldi	r31, 0x00	; 0
    102a:	80 81       	ld	r24, Z
    102c:	84 60       	ori	r24, 0x04	; 4
    102e:	8c 93       	st	X, r24
    1030:	80 e0       	ldi	r24, 0x00	; 0
    1032:	90 e0       	ldi	r25, 0x00	; 0
    1034:	a0 e8       	ldi	r26, 0x80	; 128
    1036:	bf e3       	ldi	r27, 0x3F	; 63
    1038:	8d ab       	std	Y+53, r24	; 0x35
    103a:	9e ab       	std	Y+54, r25	; 0x36
    103c:	af ab       	std	Y+55, r26	; 0x37
    103e:	b8 af       	std	Y+56, r27	; 0x38
 */
void
_delay_ms(double __ms)
{
	uint16_t __ticks;
	double __tmp = ((F_CPU) / 4e3) * __ms;
    1040:	6d a9       	ldd	r22, Y+53	; 0x35
    1042:	7e a9       	ldd	r23, Y+54	; 0x36
    1044:	8f a9       	ldd	r24, Y+55	; 0x37
    1046:	98 ad       	ldd	r25, Y+56	; 0x38
    1048:	20 e0       	ldi	r18, 0x00	; 0
    104a:	30 e0       	ldi	r19, 0x00	; 0
    104c:	4a ef       	ldi	r20, 0xFA	; 250
    104e:	54 e4       	ldi	r21, 0x44	; 68
    1050:	0e 94 17 02 	call	0x42e	; 0x42e <__mulsf3>
    1054:	dc 01       	movw	r26, r24
    1056:	cb 01       	movw	r24, r22
    1058:	89 ab       	std	Y+49, r24	; 0x31
    105a:	9a ab       	std	Y+50, r25	; 0x32
    105c:	ab ab       	std	Y+51, r26	; 0x33
    105e:	bc ab       	std	Y+52, r27	; 0x34
	if (__tmp < 1.0)
    1060:	69 a9       	ldd	r22, Y+49	; 0x31
    1062:	7a a9       	ldd	r23, Y+50	; 0x32
    1064:	8b a9       	ldd	r24, Y+51	; 0x33
    1066:	9c a9       	ldd	r25, Y+52	; 0x34
    1068:	20 e0       	ldi	r18, 0x00	; 0
    106a:	30 e0       	ldi	r19, 0x00	; 0
    106c:	40 e8       	ldi	r20, 0x80	; 128
    106e:	5f e3       	ldi	r21, 0x3F	; 63
    1070:	0e 94 71 03 	call	0x6e2	; 0x6e2 <__ltsf2>
    1074:	88 23       	and	r24, r24
    1076:	2c f4       	brge	.+10     	; 0x1082 <LCD_write_command+0x144>
		__ticks = 1;
    1078:	81 e0       	ldi	r24, 0x01	; 1
    107a:	90 e0       	ldi	r25, 0x00	; 0
    107c:	98 ab       	std	Y+48, r25	; 0x30
    107e:	8f a7       	std	Y+47, r24	; 0x2f
    1080:	3f c0       	rjmp	.+126    	; 0x1100 <LCD_write_command+0x1c2>
	else if (__tmp > 65535)
    1082:	69 a9       	ldd	r22, Y+49	; 0x31
    1084:	7a a9       	ldd	r23, Y+50	; 0x32
    1086:	8b a9       	ldd	r24, Y+51	; 0x33
    1088:	9c a9       	ldd	r25, Y+52	; 0x34
    108a:	20 e0       	ldi	r18, 0x00	; 0
    108c:	3f ef       	ldi	r19, 0xFF	; 255
    108e:	4f e7       	ldi	r20, 0x7F	; 127
    1090:	57 e4       	ldi	r21, 0x47	; 71
    1092:	0e 94 11 03 	call	0x622	; 0x622 <__gtsf2>
    1096:	18 16       	cp	r1, r24
    1098:	4c f5       	brge	.+82     	; 0x10ec <LCD_write_command+0x1ae>
	{
		//	__ticks = requested delay in 1/10 ms
		__ticks = (uint16_t) (__ms * 10.0);
    109a:	6d a9       	ldd	r22, Y+53	; 0x35
    109c:	7e a9       	ldd	r23, Y+54	; 0x36
    109e:	8f a9       	ldd	r24, Y+55	; 0x37
    10a0:	98 ad       	ldd	r25, Y+56	; 0x38
    10a2:	20 e0       	ldi	r18, 0x00	; 0
    10a4:	30 e0       	ldi	r19, 0x00	; 0
    10a6:	40 e2       	ldi	r20, 0x20	; 32
    10a8:	51 e4       	ldi	r21, 0x41	; 65
    10aa:	0e 94 17 02 	call	0x42e	; 0x42e <__mulsf3>
    10ae:	dc 01       	movw	r26, r24
    10b0:	cb 01       	movw	r24, r22
    10b2:	bc 01       	movw	r22, r24
    10b4:	cd 01       	movw	r24, r26
    10b6:	0e 94 41 00 	call	0x82	; 0x82 <__fixunssfsi>
    10ba:	dc 01       	movw	r26, r24
    10bc:	cb 01       	movw	r24, r22
    10be:	98 ab       	std	Y+48, r25	; 0x30
    10c0:	8f a7       	std	Y+47, r24	; 0x2f
    10c2:	0f c0       	rjmp	.+30     	; 0x10e2 <LCD_write_command+0x1a4>
    10c4:	88 ec       	ldi	r24, 0xC8	; 200
    10c6:	90 e0       	ldi	r25, 0x00	; 0
    10c8:	9e a7       	std	Y+46, r25	; 0x2e
    10ca:	8d a7       	std	Y+45, r24	; 0x2d
    10cc:	8d a5       	ldd	r24, Y+45	; 0x2d
    10ce:	9e a5       	ldd	r25, Y+46	; 0x2e
    10d0:	01 97       	sbiw	r24, 0x01	; 1
    10d2:	f1 f7       	brne	.-4      	; 0x10d0 <LCD_write_command+0x192>
    10d4:	9e a7       	std	Y+46, r25	; 0x2e
    10d6:	8d a7       	std	Y+45, r24	; 0x2d
		while(__ticks)
		{
			// wait 1/10 ms
			_delay_loop_2(((F_CPU) / 4e3) / 10);
			__ticks --;
    10d8:	8f a5       	ldd	r24, Y+47	; 0x2f
    10da:	98 a9       	ldd	r25, Y+48	; 0x30
    10dc:	01 97       	sbiw	r24, 0x01	; 1
    10de:	98 ab       	std	Y+48, r25	; 0x30
    10e0:	8f a7       	std	Y+47, r24	; 0x2f
		__ticks = 1;
	else if (__tmp > 65535)
	{
		//	__ticks = requested delay in 1/10 ms
		__ticks = (uint16_t) (__ms * 10.0);
		while(__ticks)
    10e2:	8f a5       	ldd	r24, Y+47	; 0x2f
    10e4:	98 a9       	ldd	r25, Y+48	; 0x30
    10e6:	00 97       	sbiw	r24, 0x00	; 0
    10e8:	69 f7       	brne	.-38     	; 0x10c4 <LCD_write_command+0x186>
    10ea:	14 c0       	rjmp	.+40     	; 0x1114 <LCD_write_command+0x1d6>
			__ticks --;
		}
		return;
	}
	else
		__ticks = (uint16_t)__tmp;
    10ec:	69 a9       	ldd	r22, Y+49	; 0x31
    10ee:	7a a9       	ldd	r23, Y+50	; 0x32
    10f0:	8b a9       	ldd	r24, Y+51	; 0x33
    10f2:	9c a9       	ldd	r25, Y+52	; 0x34
    10f4:	0e 94 41 00 	call	0x82	; 0x82 <__fixunssfsi>
    10f8:	dc 01       	movw	r26, r24
    10fa:	cb 01       	movw	r24, r22
    10fc:	98 ab       	std	Y+48, r25	; 0x30
    10fe:	8f a7       	std	Y+47, r24	; 0x2f
    1100:	8f a5       	ldd	r24, Y+47	; 0x2f
    1102:	98 a9       	ldd	r25, Y+48	; 0x30
    1104:	9c a7       	std	Y+44, r25	; 0x2c
    1106:	8b a7       	std	Y+43, r24	; 0x2b
    1108:	8b a5       	ldd	r24, Y+43	; 0x2b
    110a:	9c a5       	ldd	r25, Y+44	; 0x2c
    110c:	01 97       	sbiw	r24, 0x01	; 1
    110e:	f1 f7       	brne	.-4      	; 0x110c <LCD_write_command+0x1ce>
    1110:	9c a7       	std	Y+44, r25	; 0x2c
    1112:	8b a7       	std	Y+43, r24	; 0x2b
	_delay_ms(1);
	EN(0);
    1114:	ab e3       	ldi	r26, 0x3B	; 59
    1116:	b0 e0       	ldi	r27, 0x00	; 0
    1118:	eb e3       	ldi	r30, 0x3B	; 59
    111a:	f0 e0       	ldi	r31, 0x00	; 0
    111c:	80 81       	ld	r24, Z
    111e:	8b 7f       	andi	r24, 0xFB	; 251
    1120:	8c 93       	st	X, r24
    1122:	80 e0       	ldi	r24, 0x00	; 0
    1124:	90 e0       	ldi	r25, 0x00	; 0
    1126:	a0 e8       	ldi	r26, 0x80	; 128
    1128:	bf e3       	ldi	r27, 0x3F	; 63
    112a:	8f a3       	std	Y+39, r24	; 0x27
    112c:	98 a7       	std	Y+40, r25	; 0x28
    112e:	a9 a7       	std	Y+41, r26	; 0x29
    1130:	ba a7       	std	Y+42, r27	; 0x2a
 */
void
_delay_ms(double __ms)
{
	uint16_t __ticks;
	double __tmp = ((F_CPU) / 4e3) * __ms;
    1132:	6f a1       	ldd	r22, Y+39	; 0x27
    1134:	78 a5       	ldd	r23, Y+40	; 0x28
    1136:	89 a5       	ldd	r24, Y+41	; 0x29
    1138:	9a a5       	ldd	r25, Y+42	; 0x2a
    113a:	20 e0       	ldi	r18, 0x00	; 0
    113c:	30 e0       	ldi	r19, 0x00	; 0
    113e:	4a ef       	ldi	r20, 0xFA	; 250
    1140:	54 e4       	ldi	r21, 0x44	; 68
    1142:	0e 94 17 02 	call	0x42e	; 0x42e <__mulsf3>
    1146:	dc 01       	movw	r26, r24
    1148:	cb 01       	movw	r24, r22
    114a:	8b a3       	std	Y+35, r24	; 0x23
    114c:	9c a3       	std	Y+36, r25	; 0x24
    114e:	ad a3       	std	Y+37, r26	; 0x25
    1150:	be a3       	std	Y+38, r27	; 0x26
	if (__tmp < 1.0)
    1152:	6b a1       	ldd	r22, Y+35	; 0x23
    1154:	7c a1       	ldd	r23, Y+36	; 0x24
    1156:	8d a1       	ldd	r24, Y+37	; 0x25
    1158:	9e a1       	ldd	r25, Y+38	; 0x26
    115a:	20 e0       	ldi	r18, 0x00	; 0
    115c:	30 e0       	ldi	r19, 0x00	; 0
    115e:	40 e8       	ldi	r20, 0x80	; 128
    1160:	5f e3       	ldi	r21, 0x3F	; 63
    1162:	0e 94 71 03 	call	0x6e2	; 0x6e2 <__ltsf2>
    1166:	88 23       	and	r24, r24
    1168:	2c f4       	brge	.+10     	; 0x1174 <LCD_write_command+0x236>
		__ticks = 1;
    116a:	81 e0       	ldi	r24, 0x01	; 1
    116c:	90 e0       	ldi	r25, 0x00	; 0
    116e:	9a a3       	std	Y+34, r25	; 0x22
    1170:	89 a3       	std	Y+33, r24	; 0x21
    1172:	3f c0       	rjmp	.+126    	; 0x11f2 <LCD_write_command+0x2b4>
	else if (__tmp > 65535)
    1174:	6b a1       	ldd	r22, Y+35	; 0x23
    1176:	7c a1       	ldd	r23, Y+36	; 0x24
    1178:	8d a1       	ldd	r24, Y+37	; 0x25
    117a:	9e a1       	ldd	r25, Y+38	; 0x26
    117c:	20 e0       	ldi	r18, 0x00	; 0
    117e:	3f ef       	ldi	r19, 0xFF	; 255
    1180:	4f e7       	ldi	r20, 0x7F	; 127
    1182:	57 e4       	ldi	r21, 0x47	; 71
    1184:	0e 94 11 03 	call	0x622	; 0x622 <__gtsf2>
    1188:	18 16       	cp	r1, r24
    118a:	4c f5       	brge	.+82     	; 0x11de <LCD_write_command+0x2a0>
	{
		//	__ticks = requested delay in 1/10 ms
		__ticks = (uint16_t) (__ms * 10.0);
    118c:	6f a1       	ldd	r22, Y+39	; 0x27
    118e:	78 a5       	ldd	r23, Y+40	; 0x28
    1190:	89 a5       	ldd	r24, Y+41	; 0x29
    1192:	9a a5       	ldd	r25, Y+42	; 0x2a
    1194:	20 e0       	ldi	r18, 0x00	; 0
    1196:	30 e0       	ldi	r19, 0x00	; 0
    1198:	40 e2       	ldi	r20, 0x20	; 32
    119a:	51 e4       	ldi	r21, 0x41	; 65
    119c:	0e 94 17 02 	call	0x42e	; 0x42e <__mulsf3>
    11a0:	dc 01       	movw	r26, r24
    11a2:	cb 01       	movw	r24, r22
    11a4:	bc 01       	movw	r22, r24
    11a6:	cd 01       	movw	r24, r26
    11a8:	0e 94 41 00 	call	0x82	; 0x82 <__fixunssfsi>
    11ac:	dc 01       	movw	r26, r24
    11ae:	cb 01       	movw	r24, r22
    11b0:	9a a3       	std	Y+34, r25	; 0x22
    11b2:	89 a3       	std	Y+33, r24	; 0x21
    11b4:	0f c0       	rjmp	.+30     	; 0x11d4 <LCD_write_command+0x296>
    11b6:	88 ec       	ldi	r24, 0xC8	; 200
    11b8:	90 e0       	ldi	r25, 0x00	; 0
    11ba:	98 a3       	std	Y+32, r25	; 0x20
    11bc:	8f 8f       	std	Y+31, r24	; 0x1f
    11be:	8f 8d       	ldd	r24, Y+31	; 0x1f
    11c0:	98 a1       	ldd	r25, Y+32	; 0x20
    11c2:	01 97       	sbiw	r24, 0x01	; 1
    11c4:	f1 f7       	brne	.-4      	; 0x11c2 <LCD_write_command+0x284>
    11c6:	98 a3       	std	Y+32, r25	; 0x20
    11c8:	8f 8f       	std	Y+31, r24	; 0x1f
		while(__ticks)
		{
			// wait 1/10 ms
			_delay_loop_2(((F_CPU) / 4e3) / 10);
			__ticks --;
    11ca:	89 a1       	ldd	r24, Y+33	; 0x21
    11cc:	9a a1       	ldd	r25, Y+34	; 0x22
    11ce:	01 97       	sbiw	r24, 0x01	; 1
    11d0:	9a a3       	std	Y+34, r25	; 0x22
    11d2:	89 a3       	std	Y+33, r24	; 0x21
		__ticks = 1;
	else if (__tmp > 65535)
	{
		//	__ticks = requested delay in 1/10 ms
		__ticks = (uint16_t) (__ms * 10.0);
		while(__ticks)
    11d4:	89 a1       	ldd	r24, Y+33	; 0x21
    11d6:	9a a1       	ldd	r25, Y+34	; 0x22
    11d8:	00 97       	sbiw	r24, 0x00	; 0
    11da:	69 f7       	brne	.-38     	; 0x11b6 <LCD_write_command+0x278>
    11dc:	14 c0       	rjmp	.+40     	; 0x1206 <LCD_write_command+0x2c8>
			__ticks --;
		}
		return;
	}
	else
		__ticks = (uint16_t)__tmp;
    11de:	6b a1       	ldd	r22, Y+35	; 0x23
    11e0:	7c a1       	ldd	r23, Y+36	; 0x24
    11e2:	8d a1       	ldd	r24, Y+37	; 0x25
    11e4:	9e a1       	ldd	r25, Y+38	; 0x26
    11e6:	0e 94 41 00 	call	0x82	; 0x82 <__fixunssfsi>
    11ea:	dc 01       	movw	r26, r24
    11ec:	cb 01       	movw	r24, r22
    11ee:	9a a3       	std	Y+34, r25	; 0x22
    11f0:	89 a3       	std	Y+33, r24	; 0x21
    11f2:	89 a1       	ldd	r24, Y+33	; 0x21
    11f4:	9a a1       	ldd	r25, Y+34	; 0x22
    11f6:	9e 8f       	std	Y+30, r25	; 0x1e
    11f8:	8d 8f       	std	Y+29, r24	; 0x1d
    11fa:	8d 8d       	ldd	r24, Y+29	; 0x1d
    11fc:	9e 8d       	ldd	r25, Y+30	; 0x1e
    11fe:	01 97       	sbiw	r24, 0x01	; 1
    1200:	f1 f7       	brne	.-4      	; 0x11fe <LCD_write_command+0x2c0>
    1202:	9e 8f       	std	Y+30, r25	; 0x1e
    1204:	8d 8f       	std	Y+29, r24	; 0x1d
	_delay_ms(1);
	
	// send first 4 bits in com after enable command 
	D4(READBIT(com,0));
    1206:	89 ad       	ldd	r24, Y+57	; 0x39
    1208:	88 2f       	mov	r24, r24
    120a:	90 e0       	ldi	r25, 0x00	; 0
    120c:	81 70       	andi	r24, 0x01	; 1
    120e:	90 70       	andi	r25, 0x00	; 0
    1210:	88 23       	and	r24, r24
    1212:	41 f0       	breq	.+16     	; 0x1224 <LCD_write_command+0x2e6>
    1214:	a8 e3       	ldi	r26, 0x38	; 56
    1216:	b0 e0       	ldi	r27, 0x00	; 0
    1218:	e8 e3       	ldi	r30, 0x38	; 56
    121a:	f0 e0       	ldi	r31, 0x00	; 0
    121c:	80 81       	ld	r24, Z
    121e:	80 61       	ori	r24, 0x10	; 16
    1220:	8c 93       	st	X, r24
    1222:	07 c0       	rjmp	.+14     	; 0x1232 <LCD_write_command+0x2f4>
    1224:	a8 e3       	ldi	r26, 0x38	; 56
    1226:	b0 e0       	ldi	r27, 0x00	; 0
    1228:	e8 e3       	ldi	r30, 0x38	; 56
    122a:	f0 e0       	ldi	r31, 0x00	; 0
    122c:	80 81       	ld	r24, Z
    122e:	8f 7e       	andi	r24, 0xEF	; 239
    1230:	8c 93       	st	X, r24
	D5(READBIT(com,1));
    1232:	89 ad       	ldd	r24, Y+57	; 0x39
    1234:	86 95       	lsr	r24
    1236:	88 2f       	mov	r24, r24
    1238:	90 e0       	ldi	r25, 0x00	; 0
    123a:	81 70       	andi	r24, 0x01	; 1
    123c:	90 70       	andi	r25, 0x00	; 0
    123e:	88 23       	and	r24, r24
    1240:	41 f0       	breq	.+16     	; 0x1252 <LCD_write_command+0x314>
    1242:	a8 e3       	ldi	r26, 0x38	; 56
    1244:	b0 e0       	ldi	r27, 0x00	; 0
    1246:	e8 e3       	ldi	r30, 0x38	; 56
    1248:	f0 e0       	ldi	r31, 0x00	; 0
    124a:	80 81       	ld	r24, Z
    124c:	80 62       	ori	r24, 0x20	; 32
    124e:	8c 93       	st	X, r24
    1250:	07 c0       	rjmp	.+14     	; 0x1260 <LCD_write_command+0x322>
    1252:	a8 e3       	ldi	r26, 0x38	; 56
    1254:	b0 e0       	ldi	r27, 0x00	; 0
    1256:	e8 e3       	ldi	r30, 0x38	; 56
    1258:	f0 e0       	ldi	r31, 0x00	; 0
    125a:	80 81       	ld	r24, Z
    125c:	8f 7d       	andi	r24, 0xDF	; 223
    125e:	8c 93       	st	X, r24
	D6(READBIT(com,2));
    1260:	89 ad       	ldd	r24, Y+57	; 0x39
    1262:	86 95       	lsr	r24
    1264:	86 95       	lsr	r24
    1266:	88 2f       	mov	r24, r24
    1268:	90 e0       	ldi	r25, 0x00	; 0
    126a:	81 70       	andi	r24, 0x01	; 1
    126c:	90 70       	andi	r25, 0x00	; 0
    126e:	88 23       	and	r24, r24
    1270:	41 f0       	breq	.+16     	; 0x1282 <LCD_write_command+0x344>
    1272:	a8 e3       	ldi	r26, 0x38	; 56
    1274:	b0 e0       	ldi	r27, 0x00	; 0
    1276:	e8 e3       	ldi	r30, 0x38	; 56
    1278:	f0 e0       	ldi	r31, 0x00	; 0
    127a:	80 81       	ld	r24, Z
    127c:	80 64       	ori	r24, 0x40	; 64
    127e:	8c 93       	st	X, r24
    1280:	07 c0       	rjmp	.+14     	; 0x1290 <LCD_write_command+0x352>
    1282:	a8 e3       	ldi	r26, 0x38	; 56
    1284:	b0 e0       	ldi	r27, 0x00	; 0
    1286:	e8 e3       	ldi	r30, 0x38	; 56
    1288:	f0 e0       	ldi	r31, 0x00	; 0
    128a:	80 81       	ld	r24, Z
    128c:	8f 7b       	andi	r24, 0xBF	; 191
    128e:	8c 93       	st	X, r24
	D7(READBIT(com,3));
    1290:	89 ad       	ldd	r24, Y+57	; 0x39
    1292:	86 95       	lsr	r24
    1294:	86 95       	lsr	r24
    1296:	86 95       	lsr	r24
    1298:	88 2f       	mov	r24, r24
    129a:	90 e0       	ldi	r25, 0x00	; 0
    129c:	81 70       	andi	r24, 0x01	; 1
    129e:	90 70       	andi	r25, 0x00	; 0
    12a0:	88 23       	and	r24, r24
    12a2:	41 f0       	breq	.+16     	; 0x12b4 <LCD_write_command+0x376>
    12a4:	a8 e3       	ldi	r26, 0x38	; 56
    12a6:	b0 e0       	ldi	r27, 0x00	; 0
    12a8:	e8 e3       	ldi	r30, 0x38	; 56
    12aa:	f0 e0       	ldi	r31, 0x00	; 0
    12ac:	80 81       	ld	r24, Z
    12ae:	80 68       	ori	r24, 0x80	; 128
    12b0:	8c 93       	st	X, r24
    12b2:	07 c0       	rjmp	.+14     	; 0x12c2 <LCD_write_command+0x384>
    12b4:	a8 e3       	ldi	r26, 0x38	; 56
    12b6:	b0 e0       	ldi	r27, 0x00	; 0
    12b8:	e8 e3       	ldi	r30, 0x38	; 56
    12ba:	f0 e0       	ldi	r31, 0x00	; 0
    12bc:	80 81       	ld	r24, Z
    12be:	8f 77       	andi	r24, 0x7F	; 127
    12c0:	8c 93       	st	X, r24
	EN(1);
    12c2:	ab e3       	ldi	r26, 0x3B	; 59
    12c4:	b0 e0       	ldi	r27, 0x00	; 0
    12c6:	eb e3       	ldi	r30, 0x3B	; 59
    12c8:	f0 e0       	ldi	r31, 0x00	; 0
    12ca:	80 81       	ld	r24, Z
    12cc:	84 60       	ori	r24, 0x04	; 4
    12ce:	8c 93       	st	X, r24
    12d0:	80 e0       	ldi	r24, 0x00	; 0
    12d2:	90 e0       	ldi	r25, 0x00	; 0
    12d4:	a0 e8       	ldi	r26, 0x80	; 128
    12d6:	bf e3       	ldi	r27, 0x3F	; 63
    12d8:	89 8f       	std	Y+25, r24	; 0x19
    12da:	9a 8f       	std	Y+26, r25	; 0x1a
    12dc:	ab 8f       	std	Y+27, r26	; 0x1b
    12de:	bc 8f       	std	Y+28, r27	; 0x1c
 */
void
_delay_ms(double __ms)
{
	uint16_t __ticks;
	double __tmp = ((F_CPU) / 4e3) * __ms;
    12e0:	69 8d       	ldd	r22, Y+25	; 0x19
    12e2:	7a 8d       	ldd	r23, Y+26	; 0x1a
    12e4:	8b 8d       	ldd	r24, Y+27	; 0x1b
    12e6:	9c 8d       	ldd	r25, Y+28	; 0x1c
    12e8:	20 e0       	ldi	r18, 0x00	; 0
    12ea:	30 e0       	ldi	r19, 0x00	; 0
    12ec:	4a ef       	ldi	r20, 0xFA	; 250
    12ee:	54 e4       	ldi	r21, 0x44	; 68
    12f0:	0e 94 17 02 	call	0x42e	; 0x42e <__mulsf3>
    12f4:	dc 01       	movw	r26, r24
    12f6:	cb 01       	movw	r24, r22
    12f8:	8d 8b       	std	Y+21, r24	; 0x15
    12fa:	9e 8b       	std	Y+22, r25	; 0x16
    12fc:	af 8b       	std	Y+23, r26	; 0x17
    12fe:	b8 8f       	std	Y+24, r27	; 0x18
	if (__tmp < 1.0)
    1300:	6d 89       	ldd	r22, Y+21	; 0x15
    1302:	7e 89       	ldd	r23, Y+22	; 0x16
    1304:	8f 89       	ldd	r24, Y+23	; 0x17
    1306:	98 8d       	ldd	r25, Y+24	; 0x18
    1308:	20 e0       	ldi	r18, 0x00	; 0
    130a:	30 e0       	ldi	r19, 0x00	; 0
    130c:	40 e8       	ldi	r20, 0x80	; 128
    130e:	5f e3       	ldi	r21, 0x3F	; 63
    1310:	0e 94 71 03 	call	0x6e2	; 0x6e2 <__ltsf2>
    1314:	88 23       	and	r24, r24
    1316:	2c f4       	brge	.+10     	; 0x1322 <LCD_write_command+0x3e4>
		__ticks = 1;
    1318:	81 e0       	ldi	r24, 0x01	; 1
    131a:	90 e0       	ldi	r25, 0x00	; 0
    131c:	9c 8b       	std	Y+20, r25	; 0x14
    131e:	8b 8b       	std	Y+19, r24	; 0x13
    1320:	3f c0       	rjmp	.+126    	; 0x13a0 <LCD_write_command+0x462>
	else if (__tmp > 65535)
    1322:	6d 89       	ldd	r22, Y+21	; 0x15
    1324:	7e 89       	ldd	r23, Y+22	; 0x16
    1326:	8f 89       	ldd	r24, Y+23	; 0x17
    1328:	98 8d       	ldd	r25, Y+24	; 0x18
    132a:	20 e0       	ldi	r18, 0x00	; 0
    132c:	3f ef       	ldi	r19, 0xFF	; 255
    132e:	4f e7       	ldi	r20, 0x7F	; 127
    1330:	57 e4       	ldi	r21, 0x47	; 71
    1332:	0e 94 11 03 	call	0x622	; 0x622 <__gtsf2>
    1336:	18 16       	cp	r1, r24
    1338:	4c f5       	brge	.+82     	; 0x138c <LCD_write_command+0x44e>
	{
		//	__ticks = requested delay in 1/10 ms
		__ticks = (uint16_t) (__ms * 10.0);
    133a:	69 8d       	ldd	r22, Y+25	; 0x19
    133c:	7a 8d       	ldd	r23, Y+26	; 0x1a
    133e:	8b 8d       	ldd	r24, Y+27	; 0x1b
    1340:	9c 8d       	ldd	r25, Y+28	; 0x1c
    1342:	20 e0       	ldi	r18, 0x00	; 0
    1344:	30 e0       	ldi	r19, 0x00	; 0
    1346:	40 e2       	ldi	r20, 0x20	; 32
    1348:	51 e4       	ldi	r21, 0x41	; 65
    134a:	0e 94 17 02 	call	0x42e	; 0x42e <__mulsf3>
    134e:	dc 01       	movw	r26, r24
    1350:	cb 01       	movw	r24, r22
    1352:	bc 01       	movw	r22, r24
    1354:	cd 01       	movw	r24, r26
    1356:	0e 94 41 00 	call	0x82	; 0x82 <__fixunssfsi>
    135a:	dc 01       	movw	r26, r24
    135c:	cb 01       	movw	r24, r22
    135e:	9c 8b       	std	Y+20, r25	; 0x14
    1360:	8b 8b       	std	Y+19, r24	; 0x13
    1362:	0f c0       	rjmp	.+30     	; 0x1382 <LCD_write_command+0x444>
    1364:	88 ec       	ldi	r24, 0xC8	; 200
    1366:	90 e0       	ldi	r25, 0x00	; 0
    1368:	9a 8b       	std	Y+18, r25	; 0x12
    136a:	89 8b       	std	Y+17, r24	; 0x11
    136c:	89 89       	ldd	r24, Y+17	; 0x11
    136e:	9a 89       	ldd	r25, Y+18	; 0x12
    1370:	01 97       	sbiw	r24, 0x01	; 1
    1372:	f1 f7       	brne	.-4      	; 0x1370 <LCD_write_command+0x432>
    1374:	9a 8b       	std	Y+18, r25	; 0x12
    1376:	89 8b       	std	Y+17, r24	; 0x11
		while(__ticks)
		{
			// wait 1/10 ms
			_delay_loop_2(((F_CPU) / 4e3) / 10);
			__ticks --;
    1378:	8b 89       	ldd	r24, Y+19	; 0x13
    137a:	9c 89       	ldd	r25, Y+20	; 0x14
    137c:	01 97       	sbiw	r24, 0x01	; 1
    137e:	9c 8b       	std	Y+20, r25	; 0x14
    1380:	8b 8b       	std	Y+19, r24	; 0x13
		__ticks = 1;
	else if (__tmp > 65535)
	{
		//	__ticks = requested delay in 1/10 ms
		__ticks = (uint16_t) (__ms * 10.0);
		while(__ticks)
    1382:	8b 89       	ldd	r24, Y+19	; 0x13
    1384:	9c 89       	ldd	r25, Y+20	; 0x14
    1386:	00 97       	sbiw	r24, 0x00	; 0
    1388:	69 f7       	brne	.-38     	; 0x1364 <LCD_write_command+0x426>
    138a:	14 c0       	rjmp	.+40     	; 0x13b4 <LCD_write_command+0x476>
			__ticks --;
		}
		return;
	}
	else
		__ticks = (uint16_t)__tmp;
    138c:	6d 89       	ldd	r22, Y+21	; 0x15
    138e:	7e 89       	ldd	r23, Y+22	; 0x16
    1390:	8f 89       	ldd	r24, Y+23	; 0x17
    1392:	98 8d       	ldd	r25, Y+24	; 0x18
    1394:	0e 94 41 00 	call	0x82	; 0x82 <__fixunssfsi>
    1398:	dc 01       	movw	r26, r24
    139a:	cb 01       	movw	r24, r22
    139c:	9c 8b       	std	Y+20, r25	; 0x14
    139e:	8b 8b       	std	Y+19, r24	; 0x13
    13a0:	8b 89       	ldd	r24, Y+19	; 0x13
    13a2:	9c 89       	ldd	r25, Y+20	; 0x14
    13a4:	98 8b       	std	Y+16, r25	; 0x10
    13a6:	8f 87       	std	Y+15, r24	; 0x0f
    13a8:	8f 85       	ldd	r24, Y+15	; 0x0f
    13aa:	98 89       	ldd	r25, Y+16	; 0x10
    13ac:	01 97       	sbiw	r24, 0x01	; 1
    13ae:	f1 f7       	brne	.-4      	; 0x13ac <LCD_write_command+0x46e>
    13b0:	98 8b       	std	Y+16, r25	; 0x10
    13b2:	8f 87       	std	Y+15, r24	; 0x0f
	_delay_ms(1);
	EN(0);	
    13b4:	ab e3       	ldi	r26, 0x3B	; 59
    13b6:	b0 e0       	ldi	r27, 0x00	; 0
    13b8:	eb e3       	ldi	r30, 0x3B	; 59
    13ba:	f0 e0       	ldi	r31, 0x00	; 0
    13bc:	80 81       	ld	r24, Z
    13be:	8b 7f       	andi	r24, 0xFB	; 251
    13c0:	8c 93       	st	X, r24
    13c2:	80 e0       	ldi	r24, 0x00	; 0
    13c4:	90 e0       	ldi	r25, 0x00	; 0
    13c6:	a0 e8       	ldi	r26, 0x80	; 128
    13c8:	bf e3       	ldi	r27, 0x3F	; 63
    13ca:	8b 87       	std	Y+11, r24	; 0x0b
    13cc:	9c 87       	std	Y+12, r25	; 0x0c
    13ce:	ad 87       	std	Y+13, r26	; 0x0d
    13d0:	be 87       	std	Y+14, r27	; 0x0e
 */
void
_delay_ms(double __ms)
{
	uint16_t __ticks;
	double __tmp = ((F_CPU) / 4e3) * __ms;
    13d2:	6b 85       	ldd	r22, Y+11	; 0x0b
    13d4:	7c 85       	ldd	r23, Y+12	; 0x0c
    13d6:	8d 85       	ldd	r24, Y+13	; 0x0d
    13d8:	9e 85       	ldd	r25, Y+14	; 0x0e
    13da:	20 e0       	ldi	r18, 0x00	; 0
    13dc:	30 e0       	ldi	r19, 0x00	; 0
    13de:	4a ef       	ldi	r20, 0xFA	; 250
    13e0:	54 e4       	ldi	r21, 0x44	; 68
    13e2:	0e 94 17 02 	call	0x42e	; 0x42e <__mulsf3>
    13e6:	dc 01       	movw	r26, r24
    13e8:	cb 01       	movw	r24, r22
    13ea:	8f 83       	std	Y+7, r24	; 0x07
    13ec:	98 87       	std	Y+8, r25	; 0x08
    13ee:	a9 87       	std	Y+9, r26	; 0x09
    13f0:	ba 87       	std	Y+10, r27	; 0x0a
	if (__tmp < 1.0)
    13f2:	6f 81       	ldd	r22, Y+7	; 0x07
    13f4:	78 85       	ldd	r23, Y+8	; 0x08
    13f6:	89 85       	ldd	r24, Y+9	; 0x09
    13f8:	9a 85       	ldd	r25, Y+10	; 0x0a
    13fa:	20 e0       	ldi	r18, 0x00	; 0
    13fc:	30 e0       	ldi	r19, 0x00	; 0
    13fe:	40 e8       	ldi	r20, 0x80	; 128
    1400:	5f e3       	ldi	r21, 0x3F	; 63
    1402:	0e 94 71 03 	call	0x6e2	; 0x6e2 <__ltsf2>
    1406:	88 23       	and	r24, r24
    1408:	2c f4       	brge	.+10     	; 0x1414 <LCD_write_command+0x4d6>
		__ticks = 1;
    140a:	81 e0       	ldi	r24, 0x01	; 1
    140c:	90 e0       	ldi	r25, 0x00	; 0
    140e:	9e 83       	std	Y+6, r25	; 0x06
    1410:	8d 83       	std	Y+5, r24	; 0x05
    1412:	3f c0       	rjmp	.+126    	; 0x1492 <LCD_write_command+0x554>
	else if (__tmp > 65535)
    1414:	6f 81       	ldd	r22, Y+7	; 0x07
    1416:	78 85       	ldd	r23, Y+8	; 0x08
    1418:	89 85       	ldd	r24, Y+9	; 0x09
    141a:	9a 85       	ldd	r25, Y+10	; 0x0a
    141c:	20 e0       	ldi	r18, 0x00	; 0
    141e:	3f ef       	ldi	r19, 0xFF	; 255
    1420:	4f e7       	ldi	r20, 0x7F	; 127
    1422:	57 e4       	ldi	r21, 0x47	; 71
    1424:	0e 94 11 03 	call	0x622	; 0x622 <__gtsf2>
    1428:	18 16       	cp	r1, r24
    142a:	4c f5       	brge	.+82     	; 0x147e <LCD_write_command+0x540>
	{
		//	__ticks = requested delay in 1/10 ms
		__ticks = (uint16_t) (__ms * 10.0);
    142c:	6b 85       	ldd	r22, Y+11	; 0x0b
    142e:	7c 85       	ldd	r23, Y+12	; 0x0c
    1430:	8d 85       	ldd	r24, Y+13	; 0x0d
    1432:	9e 85       	ldd	r25, Y+14	; 0x0e
    1434:	20 e0       	ldi	r18, 0x00	; 0
    1436:	30 e0       	ldi	r19, 0x00	; 0
    1438:	40 e2       	ldi	r20, 0x20	; 32
    143a:	51 e4       	ldi	r21, 0x41	; 65
    143c:	0e 94 17 02 	call	0x42e	; 0x42e <__mulsf3>
    1440:	dc 01       	movw	r26, r24
    1442:	cb 01       	movw	r24, r22
    1444:	bc 01       	movw	r22, r24
    1446:	cd 01       	movw	r24, r26
    1448:	0e 94 41 00 	call	0x82	; 0x82 <__fixunssfsi>
    144c:	dc 01       	movw	r26, r24
    144e:	cb 01       	movw	r24, r22
    1450:	9e 83       	std	Y+6, r25	; 0x06
    1452:	8d 83       	std	Y+5, r24	; 0x05
    1454:	0f c0       	rjmp	.+30     	; 0x1474 <LCD_write_command+0x536>
    1456:	88 ec       	ldi	r24, 0xC8	; 200
    1458:	90 e0       	ldi	r25, 0x00	; 0
    145a:	9c 83       	std	Y+4, r25	; 0x04
    145c:	8b 83       	std	Y+3, r24	; 0x03
    145e:	8b 81       	ldd	r24, Y+3	; 0x03
    1460:	9c 81       	ldd	r25, Y+4	; 0x04
    1462:	01 97       	sbiw	r24, 0x01	; 1
    1464:	f1 f7       	brne	.-4      	; 0x1462 <LCD_write_command+0x524>
    1466:	9c 83       	std	Y+4, r25	; 0x04
    1468:	8b 83       	std	Y+3, r24	; 0x03
		while(__ticks)
		{
			// wait 1/10 ms
			_delay_loop_2(((F_CPU) / 4e3) / 10);
			__ticks --;
    146a:	8d 81       	ldd	r24, Y+5	; 0x05
    146c:	9e 81       	ldd	r25, Y+6	; 0x06
    146e:	01 97       	sbiw	r24, 0x01	; 1
    1470:	9e 83       	std	Y+6, r25	; 0x06
    1472:	8d 83       	std	Y+5, r24	; 0x05
		__ticks = 1;
	else if (__tmp > 65535)
	{
		//	__ticks = requested delay in 1/10 ms
		__ticks = (uint16_t) (__ms * 10.0);
		while(__ticks)
    1474:	8d 81       	ldd	r24, Y+5	; 0x05
    1476:	9e 81       	ldd	r25, Y+6	; 0x06
    1478:	00 97       	sbiw	r24, 0x00	; 0
    147a:	69 f7       	brne	.-38     	; 0x1456 <LCD_write_command+0x518>
    147c:	14 c0       	rjmp	.+40     	; 0x14a6 <LCD_write_command+0x568>
			__ticks --;
		}
		return;
	}
	else
		__ticks = (uint16_t)__tmp;
    147e:	6f 81       	ldd	r22, Y+7	; 0x07
    1480:	78 85       	ldd	r23, Y+8	; 0x08
    1482:	89 85       	ldd	r24, Y+9	; 0x09
    1484:	9a 85       	ldd	r25, Y+10	; 0x0a
    1486:	0e 94 41 00 	call	0x82	; 0x82 <__fixunssfsi>
    148a:	dc 01       	movw	r26, r24
    148c:	cb 01       	movw	r24, r22
    148e:	9e 83       	std	Y+6, r25	; 0x06
    1490:	8d 83       	std	Y+5, r24	; 0x05
    1492:	8d 81       	ldd	r24, Y+5	; 0x05
    1494:	9e 81       	ldd	r25, Y+6	; 0x06
    1496:	9a 83       	std	Y+2, r25	; 0x02
    1498:	89 83       	std	Y+1, r24	; 0x01
    149a:	89 81       	ldd	r24, Y+1	; 0x01
    149c:	9a 81       	ldd	r25, Y+2	; 0x02
    149e:	01 97       	sbiw	r24, 0x01	; 1
    14a0:	f1 f7       	brne	.-4      	; 0x149e <LCD_write_command+0x560>
    14a2:	9a 83       	std	Y+2, r25	; 0x02
    14a4:	89 83       	std	Y+1, r24	; 0x01
	_delay_ms(1);
	
}
    14a6:	e9 96       	adiw	r28, 0x39	; 57
    14a8:	0f b6       	in	r0, 0x3f	; 63
    14aa:	f8 94       	cli
    14ac:	de bf       	out	0x3e, r29	; 62
    14ae:	0f be       	out	0x3f, r0	; 63
    14b0:	cd bf       	out	0x3d, r28	; 61
    14b2:	cf 91       	pop	r28
    14b4:	df 91       	pop	r29
    14b6:	08 95       	ret

000014b8 <LCD_write_char>:
* Purpose      : write a char (by ascii) on LCD
* Parameters   : uint8_t: the value of ascii of the char
* Return value : void
*****************************************************************************/

void LCD_write_char(uint8_t data){
    14b8:	df 93       	push	r29
    14ba:	cf 93       	push	r28
    14bc:	cd b7       	in	r28, 0x3d	; 61
    14be:	de b7       	in	r29, 0x3e	; 62
    14c0:	e9 97       	sbiw	r28, 0x39	; 57
    14c2:	0f b6       	in	r0, 0x3f	; 63
    14c4:	f8 94       	cli
    14c6:	de bf       	out	0x3e, r29	; 62
    14c8:	0f be       	out	0x3f, r0	; 63
    14ca:	cd bf       	out	0x3d, r28	; 61
    14cc:	89 af       	std	Y+57, r24	; 0x39
	// send last 4 bits in com after enable command
	RS(1);
    14ce:	ab e3       	ldi	r26, 0x3B	; 59
    14d0:	b0 e0       	ldi	r27, 0x00	; 0
    14d2:	eb e3       	ldi	r30, 0x3B	; 59
    14d4:	f0 e0       	ldi	r31, 0x00	; 0
    14d6:	80 81       	ld	r24, Z
    14d8:	81 60       	ori	r24, 0x01	; 1
    14da:	8c 93       	st	X, r24
	D4(READBIT(data,4));
    14dc:	89 ad       	ldd	r24, Y+57	; 0x39
    14de:	82 95       	swap	r24
    14e0:	8f 70       	andi	r24, 0x0F	; 15
    14e2:	88 2f       	mov	r24, r24
    14e4:	90 e0       	ldi	r25, 0x00	; 0
    14e6:	81 70       	andi	r24, 0x01	; 1
    14e8:	90 70       	andi	r25, 0x00	; 0
    14ea:	88 23       	and	r24, r24
    14ec:	41 f0       	breq	.+16     	; 0x14fe <LCD_write_char+0x46>
    14ee:	a8 e3       	ldi	r26, 0x38	; 56
    14f0:	b0 e0       	ldi	r27, 0x00	; 0
    14f2:	e8 e3       	ldi	r30, 0x38	; 56
    14f4:	f0 e0       	ldi	r31, 0x00	; 0
    14f6:	80 81       	ld	r24, Z
    14f8:	80 61       	ori	r24, 0x10	; 16
    14fa:	8c 93       	st	X, r24
    14fc:	07 c0       	rjmp	.+14     	; 0x150c <LCD_write_char+0x54>
    14fe:	a8 e3       	ldi	r26, 0x38	; 56
    1500:	b0 e0       	ldi	r27, 0x00	; 0
    1502:	e8 e3       	ldi	r30, 0x38	; 56
    1504:	f0 e0       	ldi	r31, 0x00	; 0
    1506:	80 81       	ld	r24, Z
    1508:	8f 7e       	andi	r24, 0xEF	; 239
    150a:	8c 93       	st	X, r24
	D5(READBIT(data,5));
    150c:	89 ad       	ldd	r24, Y+57	; 0x39
    150e:	82 95       	swap	r24
    1510:	86 95       	lsr	r24
    1512:	87 70       	andi	r24, 0x07	; 7
    1514:	88 2f       	mov	r24, r24
    1516:	90 e0       	ldi	r25, 0x00	; 0
    1518:	81 70       	andi	r24, 0x01	; 1
    151a:	90 70       	andi	r25, 0x00	; 0
    151c:	88 23       	and	r24, r24
    151e:	41 f0       	breq	.+16     	; 0x1530 <LCD_write_char+0x78>
    1520:	a8 e3       	ldi	r26, 0x38	; 56
    1522:	b0 e0       	ldi	r27, 0x00	; 0
    1524:	e8 e3       	ldi	r30, 0x38	; 56
    1526:	f0 e0       	ldi	r31, 0x00	; 0
    1528:	80 81       	ld	r24, Z
    152a:	80 62       	ori	r24, 0x20	; 32
    152c:	8c 93       	st	X, r24
    152e:	07 c0       	rjmp	.+14     	; 0x153e <LCD_write_char+0x86>
    1530:	a8 e3       	ldi	r26, 0x38	; 56
    1532:	b0 e0       	ldi	r27, 0x00	; 0
    1534:	e8 e3       	ldi	r30, 0x38	; 56
    1536:	f0 e0       	ldi	r31, 0x00	; 0
    1538:	80 81       	ld	r24, Z
    153a:	8f 7d       	andi	r24, 0xDF	; 223
    153c:	8c 93       	st	X, r24
	D6(READBIT(data,6));
    153e:	89 ad       	ldd	r24, Y+57	; 0x39
    1540:	82 95       	swap	r24
    1542:	86 95       	lsr	r24
    1544:	86 95       	lsr	r24
    1546:	83 70       	andi	r24, 0x03	; 3
    1548:	88 2f       	mov	r24, r24
    154a:	90 e0       	ldi	r25, 0x00	; 0
    154c:	81 70       	andi	r24, 0x01	; 1
    154e:	90 70       	andi	r25, 0x00	; 0
    1550:	88 23       	and	r24, r24
    1552:	41 f0       	breq	.+16     	; 0x1564 <LCD_write_char+0xac>
    1554:	a8 e3       	ldi	r26, 0x38	; 56
    1556:	b0 e0       	ldi	r27, 0x00	; 0
    1558:	e8 e3       	ldi	r30, 0x38	; 56
    155a:	f0 e0       	ldi	r31, 0x00	; 0
    155c:	80 81       	ld	r24, Z
    155e:	80 64       	ori	r24, 0x40	; 64
    1560:	8c 93       	st	X, r24
    1562:	07 c0       	rjmp	.+14     	; 0x1572 <LCD_write_char+0xba>
    1564:	a8 e3       	ldi	r26, 0x38	; 56
    1566:	b0 e0       	ldi	r27, 0x00	; 0
    1568:	e8 e3       	ldi	r30, 0x38	; 56
    156a:	f0 e0       	ldi	r31, 0x00	; 0
    156c:	80 81       	ld	r24, Z
    156e:	8f 7b       	andi	r24, 0xBF	; 191
    1570:	8c 93       	st	X, r24
	D7(READBIT(data,7));
    1572:	89 ad       	ldd	r24, Y+57	; 0x39
    1574:	88 1f       	adc	r24, r24
    1576:	88 27       	eor	r24, r24
    1578:	88 1f       	adc	r24, r24
    157a:	81 30       	cpi	r24, 0x01	; 1
    157c:	41 f4       	brne	.+16     	; 0x158e <LCD_write_char+0xd6>
    157e:	a8 e3       	ldi	r26, 0x38	; 56
    1580:	b0 e0       	ldi	r27, 0x00	; 0
    1582:	e8 e3       	ldi	r30, 0x38	; 56
    1584:	f0 e0       	ldi	r31, 0x00	; 0
    1586:	80 81       	ld	r24, Z
    1588:	80 68       	ori	r24, 0x80	; 128
    158a:	8c 93       	st	X, r24
    158c:	07 c0       	rjmp	.+14     	; 0x159c <LCD_write_char+0xe4>
    158e:	a8 e3       	ldi	r26, 0x38	; 56
    1590:	b0 e0       	ldi	r27, 0x00	; 0
    1592:	e8 e3       	ldi	r30, 0x38	; 56
    1594:	f0 e0       	ldi	r31, 0x00	; 0
    1596:	80 81       	ld	r24, Z
    1598:	8f 77       	andi	r24, 0x7F	; 127
    159a:	8c 93       	st	X, r24
	EN(1);
    159c:	ab e3       	ldi	r26, 0x3B	; 59
    159e:	b0 e0       	ldi	r27, 0x00	; 0
    15a0:	eb e3       	ldi	r30, 0x3B	; 59
    15a2:	f0 e0       	ldi	r31, 0x00	; 0
    15a4:	80 81       	ld	r24, Z
    15a6:	84 60       	ori	r24, 0x04	; 4
    15a8:	8c 93       	st	X, r24
    15aa:	80 e0       	ldi	r24, 0x00	; 0
    15ac:	90 e0       	ldi	r25, 0x00	; 0
    15ae:	a0 e8       	ldi	r26, 0x80	; 128
    15b0:	bf e3       	ldi	r27, 0x3F	; 63
    15b2:	8d ab       	std	Y+53, r24	; 0x35
    15b4:	9e ab       	std	Y+54, r25	; 0x36
    15b6:	af ab       	std	Y+55, r26	; 0x37
    15b8:	b8 af       	std	Y+56, r27	; 0x38
 */
void
_delay_ms(double __ms)
{
	uint16_t __ticks;
	double __tmp = ((F_CPU) / 4e3) * __ms;
    15ba:	6d a9       	ldd	r22, Y+53	; 0x35
    15bc:	7e a9       	ldd	r23, Y+54	; 0x36
    15be:	8f a9       	ldd	r24, Y+55	; 0x37
    15c0:	98 ad       	ldd	r25, Y+56	; 0x38
    15c2:	20 e0       	ldi	r18, 0x00	; 0
    15c4:	30 e0       	ldi	r19, 0x00	; 0
    15c6:	4a ef       	ldi	r20, 0xFA	; 250
    15c8:	54 e4       	ldi	r21, 0x44	; 68
    15ca:	0e 94 17 02 	call	0x42e	; 0x42e <__mulsf3>
    15ce:	dc 01       	movw	r26, r24
    15d0:	cb 01       	movw	r24, r22
    15d2:	89 ab       	std	Y+49, r24	; 0x31
    15d4:	9a ab       	std	Y+50, r25	; 0x32
    15d6:	ab ab       	std	Y+51, r26	; 0x33
    15d8:	bc ab       	std	Y+52, r27	; 0x34
	if (__tmp < 1.0)
    15da:	69 a9       	ldd	r22, Y+49	; 0x31
    15dc:	7a a9       	ldd	r23, Y+50	; 0x32
    15de:	8b a9       	ldd	r24, Y+51	; 0x33
    15e0:	9c a9       	ldd	r25, Y+52	; 0x34
    15e2:	20 e0       	ldi	r18, 0x00	; 0
    15e4:	30 e0       	ldi	r19, 0x00	; 0
    15e6:	40 e8       	ldi	r20, 0x80	; 128
    15e8:	5f e3       	ldi	r21, 0x3F	; 63
    15ea:	0e 94 71 03 	call	0x6e2	; 0x6e2 <__ltsf2>
    15ee:	88 23       	and	r24, r24
    15f0:	2c f4       	brge	.+10     	; 0x15fc <LCD_write_char+0x144>
		__ticks = 1;
    15f2:	81 e0       	ldi	r24, 0x01	; 1
    15f4:	90 e0       	ldi	r25, 0x00	; 0
    15f6:	98 ab       	std	Y+48, r25	; 0x30
    15f8:	8f a7       	std	Y+47, r24	; 0x2f
    15fa:	3f c0       	rjmp	.+126    	; 0x167a <LCD_write_char+0x1c2>
	else if (__tmp > 65535)
    15fc:	69 a9       	ldd	r22, Y+49	; 0x31
    15fe:	7a a9       	ldd	r23, Y+50	; 0x32
    1600:	8b a9       	ldd	r24, Y+51	; 0x33
    1602:	9c a9       	ldd	r25, Y+52	; 0x34
    1604:	20 e0       	ldi	r18, 0x00	; 0
    1606:	3f ef       	ldi	r19, 0xFF	; 255
    1608:	4f e7       	ldi	r20, 0x7F	; 127
    160a:	57 e4       	ldi	r21, 0x47	; 71
    160c:	0e 94 11 03 	call	0x622	; 0x622 <__gtsf2>
    1610:	18 16       	cp	r1, r24
    1612:	4c f5       	brge	.+82     	; 0x1666 <LCD_write_char+0x1ae>
	{
		//	__ticks = requested delay in 1/10 ms
		__ticks = (uint16_t) (__ms * 10.0);
    1614:	6d a9       	ldd	r22, Y+53	; 0x35
    1616:	7e a9       	ldd	r23, Y+54	; 0x36
    1618:	8f a9       	ldd	r24, Y+55	; 0x37
    161a:	98 ad       	ldd	r25, Y+56	; 0x38
    161c:	20 e0       	ldi	r18, 0x00	; 0
    161e:	30 e0       	ldi	r19, 0x00	; 0
    1620:	40 e2       	ldi	r20, 0x20	; 32
    1622:	51 e4       	ldi	r21, 0x41	; 65
    1624:	0e 94 17 02 	call	0x42e	; 0x42e <__mulsf3>
    1628:	dc 01       	movw	r26, r24
    162a:	cb 01       	movw	r24, r22
    162c:	bc 01       	movw	r22, r24
    162e:	cd 01       	movw	r24, r26
    1630:	0e 94 41 00 	call	0x82	; 0x82 <__fixunssfsi>
    1634:	dc 01       	movw	r26, r24
    1636:	cb 01       	movw	r24, r22
    1638:	98 ab       	std	Y+48, r25	; 0x30
    163a:	8f a7       	std	Y+47, r24	; 0x2f
    163c:	0f c0       	rjmp	.+30     	; 0x165c <LCD_write_char+0x1a4>
    163e:	88 ec       	ldi	r24, 0xC8	; 200
    1640:	90 e0       	ldi	r25, 0x00	; 0
    1642:	9e a7       	std	Y+46, r25	; 0x2e
    1644:	8d a7       	std	Y+45, r24	; 0x2d
    1646:	8d a5       	ldd	r24, Y+45	; 0x2d
    1648:	9e a5       	ldd	r25, Y+46	; 0x2e
    164a:	01 97       	sbiw	r24, 0x01	; 1
    164c:	f1 f7       	brne	.-4      	; 0x164a <LCD_write_char+0x192>
    164e:	9e a7       	std	Y+46, r25	; 0x2e
    1650:	8d a7       	std	Y+45, r24	; 0x2d
		while(__ticks)
		{
			// wait 1/10 ms
			_delay_loop_2(((F_CPU) / 4e3) / 10);
			__ticks --;
    1652:	8f a5       	ldd	r24, Y+47	; 0x2f
    1654:	98 a9       	ldd	r25, Y+48	; 0x30
    1656:	01 97       	sbiw	r24, 0x01	; 1
    1658:	98 ab       	std	Y+48, r25	; 0x30
    165a:	8f a7       	std	Y+47, r24	; 0x2f
		__ticks = 1;
	else if (__tmp > 65535)
	{
		//	__ticks = requested delay in 1/10 ms
		__ticks = (uint16_t) (__ms * 10.0);
		while(__ticks)
    165c:	8f a5       	ldd	r24, Y+47	; 0x2f
    165e:	98 a9       	ldd	r25, Y+48	; 0x30
    1660:	00 97       	sbiw	r24, 0x00	; 0
    1662:	69 f7       	brne	.-38     	; 0x163e <LCD_write_char+0x186>
    1664:	14 c0       	rjmp	.+40     	; 0x168e <LCD_write_char+0x1d6>
			__ticks --;
		}
		return;
	}
	else
		__ticks = (uint16_t)__tmp;
    1666:	69 a9       	ldd	r22, Y+49	; 0x31
    1668:	7a a9       	ldd	r23, Y+50	; 0x32
    166a:	8b a9       	ldd	r24, Y+51	; 0x33
    166c:	9c a9       	ldd	r25, Y+52	; 0x34
    166e:	0e 94 41 00 	call	0x82	; 0x82 <__fixunssfsi>
    1672:	dc 01       	movw	r26, r24
    1674:	cb 01       	movw	r24, r22
    1676:	98 ab       	std	Y+48, r25	; 0x30
    1678:	8f a7       	std	Y+47, r24	; 0x2f
    167a:	8f a5       	ldd	r24, Y+47	; 0x2f
    167c:	98 a9       	ldd	r25, Y+48	; 0x30
    167e:	9c a7       	std	Y+44, r25	; 0x2c
    1680:	8b a7       	std	Y+43, r24	; 0x2b
    1682:	8b a5       	ldd	r24, Y+43	; 0x2b
    1684:	9c a5       	ldd	r25, Y+44	; 0x2c
    1686:	01 97       	sbiw	r24, 0x01	; 1
    1688:	f1 f7       	brne	.-4      	; 0x1686 <LCD_write_char+0x1ce>
    168a:	9c a7       	std	Y+44, r25	; 0x2c
    168c:	8b a7       	std	Y+43, r24	; 0x2b
	_delay_ms(1);
	EN(0);
    168e:	ab e3       	ldi	r26, 0x3B	; 59
    1690:	b0 e0       	ldi	r27, 0x00	; 0
    1692:	eb e3       	ldi	r30, 0x3B	; 59
    1694:	f0 e0       	ldi	r31, 0x00	; 0
    1696:	80 81       	ld	r24, Z
    1698:	8b 7f       	andi	r24, 0xFB	; 251
    169a:	8c 93       	st	X, r24
    169c:	80 e0       	ldi	r24, 0x00	; 0
    169e:	90 e0       	ldi	r25, 0x00	; 0
    16a0:	a0 e8       	ldi	r26, 0x80	; 128
    16a2:	bf e3       	ldi	r27, 0x3F	; 63
    16a4:	8f a3       	std	Y+39, r24	; 0x27
    16a6:	98 a7       	std	Y+40, r25	; 0x28
    16a8:	a9 a7       	std	Y+41, r26	; 0x29
    16aa:	ba a7       	std	Y+42, r27	; 0x2a
 */
void
_delay_ms(double __ms)
{
	uint16_t __ticks;
	double __tmp = ((F_CPU) / 4e3) * __ms;
    16ac:	6f a1       	ldd	r22, Y+39	; 0x27
    16ae:	78 a5       	ldd	r23, Y+40	; 0x28
    16b0:	89 a5       	ldd	r24, Y+41	; 0x29
    16b2:	9a a5       	ldd	r25, Y+42	; 0x2a
    16b4:	20 e0       	ldi	r18, 0x00	; 0
    16b6:	30 e0       	ldi	r19, 0x00	; 0
    16b8:	4a ef       	ldi	r20, 0xFA	; 250
    16ba:	54 e4       	ldi	r21, 0x44	; 68
    16bc:	0e 94 17 02 	call	0x42e	; 0x42e <__mulsf3>
    16c0:	dc 01       	movw	r26, r24
    16c2:	cb 01       	movw	r24, r22
    16c4:	8b a3       	std	Y+35, r24	; 0x23
    16c6:	9c a3       	std	Y+36, r25	; 0x24
    16c8:	ad a3       	std	Y+37, r26	; 0x25
    16ca:	be a3       	std	Y+38, r27	; 0x26
	if (__tmp < 1.0)
    16cc:	6b a1       	ldd	r22, Y+35	; 0x23
    16ce:	7c a1       	ldd	r23, Y+36	; 0x24
    16d0:	8d a1       	ldd	r24, Y+37	; 0x25
    16d2:	9e a1       	ldd	r25, Y+38	; 0x26
    16d4:	20 e0       	ldi	r18, 0x00	; 0
    16d6:	30 e0       	ldi	r19, 0x00	; 0
    16d8:	40 e8       	ldi	r20, 0x80	; 128
    16da:	5f e3       	ldi	r21, 0x3F	; 63
    16dc:	0e 94 71 03 	call	0x6e2	; 0x6e2 <__ltsf2>
    16e0:	88 23       	and	r24, r24
    16e2:	2c f4       	brge	.+10     	; 0x16ee <LCD_write_char+0x236>
		__ticks = 1;
    16e4:	81 e0       	ldi	r24, 0x01	; 1
    16e6:	90 e0       	ldi	r25, 0x00	; 0
    16e8:	9a a3       	std	Y+34, r25	; 0x22
    16ea:	89 a3       	std	Y+33, r24	; 0x21
    16ec:	3f c0       	rjmp	.+126    	; 0x176c <LCD_write_char+0x2b4>
	else if (__tmp > 65535)
    16ee:	6b a1       	ldd	r22, Y+35	; 0x23
    16f0:	7c a1       	ldd	r23, Y+36	; 0x24
    16f2:	8d a1       	ldd	r24, Y+37	; 0x25
    16f4:	9e a1       	ldd	r25, Y+38	; 0x26
    16f6:	20 e0       	ldi	r18, 0x00	; 0
    16f8:	3f ef       	ldi	r19, 0xFF	; 255
    16fa:	4f e7       	ldi	r20, 0x7F	; 127
    16fc:	57 e4       	ldi	r21, 0x47	; 71
    16fe:	0e 94 11 03 	call	0x622	; 0x622 <__gtsf2>
    1702:	18 16       	cp	r1, r24
    1704:	4c f5       	brge	.+82     	; 0x1758 <LCD_write_char+0x2a0>
	{
		//	__ticks = requested delay in 1/10 ms
		__ticks = (uint16_t) (__ms * 10.0);
    1706:	6f a1       	ldd	r22, Y+39	; 0x27
    1708:	78 a5       	ldd	r23, Y+40	; 0x28
    170a:	89 a5       	ldd	r24, Y+41	; 0x29
    170c:	9a a5       	ldd	r25, Y+42	; 0x2a
    170e:	20 e0       	ldi	r18, 0x00	; 0
    1710:	30 e0       	ldi	r19, 0x00	; 0
    1712:	40 e2       	ldi	r20, 0x20	; 32
    1714:	51 e4       	ldi	r21, 0x41	; 65
    1716:	0e 94 17 02 	call	0x42e	; 0x42e <__mulsf3>
    171a:	dc 01       	movw	r26, r24
    171c:	cb 01       	movw	r24, r22
    171e:	bc 01       	movw	r22, r24
    1720:	cd 01       	movw	r24, r26
    1722:	0e 94 41 00 	call	0x82	; 0x82 <__fixunssfsi>
    1726:	dc 01       	movw	r26, r24
    1728:	cb 01       	movw	r24, r22
    172a:	9a a3       	std	Y+34, r25	; 0x22
    172c:	89 a3       	std	Y+33, r24	; 0x21
    172e:	0f c0       	rjmp	.+30     	; 0x174e <LCD_write_char+0x296>
    1730:	88 ec       	ldi	r24, 0xC8	; 200
    1732:	90 e0       	ldi	r25, 0x00	; 0
    1734:	98 a3       	std	Y+32, r25	; 0x20
    1736:	8f 8f       	std	Y+31, r24	; 0x1f
    1738:	8f 8d       	ldd	r24, Y+31	; 0x1f
    173a:	98 a1       	ldd	r25, Y+32	; 0x20
    173c:	01 97       	sbiw	r24, 0x01	; 1
    173e:	f1 f7       	brne	.-4      	; 0x173c <LCD_write_char+0x284>
    1740:	98 a3       	std	Y+32, r25	; 0x20
    1742:	8f 8f       	std	Y+31, r24	; 0x1f
		while(__ticks)
		{
			// wait 1/10 ms
			_delay_loop_2(((F_CPU) / 4e3) / 10);
			__ticks --;
    1744:	89 a1       	ldd	r24, Y+33	; 0x21
    1746:	9a a1       	ldd	r25, Y+34	; 0x22
    1748:	01 97       	sbiw	r24, 0x01	; 1
    174a:	9a a3       	std	Y+34, r25	; 0x22
    174c:	89 a3       	std	Y+33, r24	; 0x21
		__ticks = 1;
	else if (__tmp > 65535)
	{
		//	__ticks = requested delay in 1/10 ms
		__ticks = (uint16_t) (__ms * 10.0);
		while(__ticks)
    174e:	89 a1       	ldd	r24, Y+33	; 0x21
    1750:	9a a1       	ldd	r25, Y+34	; 0x22
    1752:	00 97       	sbiw	r24, 0x00	; 0
    1754:	69 f7       	brne	.-38     	; 0x1730 <LCD_write_char+0x278>
    1756:	14 c0       	rjmp	.+40     	; 0x1780 <LCD_write_char+0x2c8>
			__ticks --;
		}
		return;
	}
	else
		__ticks = (uint16_t)__tmp;
    1758:	6b a1       	ldd	r22, Y+35	; 0x23
    175a:	7c a1       	ldd	r23, Y+36	; 0x24
    175c:	8d a1       	ldd	r24, Y+37	; 0x25
    175e:	9e a1       	ldd	r25, Y+38	; 0x26
    1760:	0e 94 41 00 	call	0x82	; 0x82 <__fixunssfsi>
    1764:	dc 01       	movw	r26, r24
    1766:	cb 01       	movw	r24, r22
    1768:	9a a3       	std	Y+34, r25	; 0x22
    176a:	89 a3       	std	Y+33, r24	; 0x21
    176c:	89 a1       	ldd	r24, Y+33	; 0x21
    176e:	9a a1       	ldd	r25, Y+34	; 0x22
    1770:	9e 8f       	std	Y+30, r25	; 0x1e
    1772:	8d 8f       	std	Y+29, r24	; 0x1d
    1774:	8d 8d       	ldd	r24, Y+29	; 0x1d
    1776:	9e 8d       	ldd	r25, Y+30	; 0x1e
    1778:	01 97       	sbiw	r24, 0x01	; 1
    177a:	f1 f7       	brne	.-4      	; 0x1778 <LCD_write_char+0x2c0>
    177c:	9e 8f       	std	Y+30, r25	; 0x1e
    177e:	8d 8f       	std	Y+29, r24	; 0x1d
	_delay_ms(1);
	
	// send first 4 bits in com after enable command
	D4(READBIT(data,0));
    1780:	89 ad       	ldd	r24, Y+57	; 0x39
    1782:	88 2f       	mov	r24, r24
    1784:	90 e0       	ldi	r25, 0x00	; 0
    1786:	81 70       	andi	r24, 0x01	; 1
    1788:	90 70       	andi	r25, 0x00	; 0
    178a:	88 23       	and	r24, r24
    178c:	41 f0       	breq	.+16     	; 0x179e <LCD_write_char+0x2e6>
    178e:	a8 e3       	ldi	r26, 0x38	; 56
    1790:	b0 e0       	ldi	r27, 0x00	; 0
    1792:	e8 e3       	ldi	r30, 0x38	; 56
    1794:	f0 e0       	ldi	r31, 0x00	; 0
    1796:	80 81       	ld	r24, Z
    1798:	80 61       	ori	r24, 0x10	; 16
    179a:	8c 93       	st	X, r24
    179c:	07 c0       	rjmp	.+14     	; 0x17ac <LCD_write_char+0x2f4>
    179e:	a8 e3       	ldi	r26, 0x38	; 56
    17a0:	b0 e0       	ldi	r27, 0x00	; 0
    17a2:	e8 e3       	ldi	r30, 0x38	; 56
    17a4:	f0 e0       	ldi	r31, 0x00	; 0
    17a6:	80 81       	ld	r24, Z
    17a8:	8f 7e       	andi	r24, 0xEF	; 239
    17aa:	8c 93       	st	X, r24
	D5(READBIT(data,1));
    17ac:	89 ad       	ldd	r24, Y+57	; 0x39
    17ae:	86 95       	lsr	r24
    17b0:	88 2f       	mov	r24, r24
    17b2:	90 e0       	ldi	r25, 0x00	; 0
    17b4:	81 70       	andi	r24, 0x01	; 1
    17b6:	90 70       	andi	r25, 0x00	; 0
    17b8:	88 23       	and	r24, r24
    17ba:	41 f0       	breq	.+16     	; 0x17cc <LCD_write_char+0x314>
    17bc:	a8 e3       	ldi	r26, 0x38	; 56
    17be:	b0 e0       	ldi	r27, 0x00	; 0
    17c0:	e8 e3       	ldi	r30, 0x38	; 56
    17c2:	f0 e0       	ldi	r31, 0x00	; 0
    17c4:	80 81       	ld	r24, Z
    17c6:	80 62       	ori	r24, 0x20	; 32
    17c8:	8c 93       	st	X, r24
    17ca:	07 c0       	rjmp	.+14     	; 0x17da <LCD_write_char+0x322>
    17cc:	a8 e3       	ldi	r26, 0x38	; 56
    17ce:	b0 e0       	ldi	r27, 0x00	; 0
    17d0:	e8 e3       	ldi	r30, 0x38	; 56
    17d2:	f0 e0       	ldi	r31, 0x00	; 0
    17d4:	80 81       	ld	r24, Z
    17d6:	8f 7d       	andi	r24, 0xDF	; 223
    17d8:	8c 93       	st	X, r24
	D6(READBIT(data,2));
    17da:	89 ad       	ldd	r24, Y+57	; 0x39
    17dc:	86 95       	lsr	r24
    17de:	86 95       	lsr	r24
    17e0:	88 2f       	mov	r24, r24
    17e2:	90 e0       	ldi	r25, 0x00	; 0
    17e4:	81 70       	andi	r24, 0x01	; 1
    17e6:	90 70       	andi	r25, 0x00	; 0
    17e8:	88 23       	and	r24, r24
    17ea:	41 f0       	breq	.+16     	; 0x17fc <LCD_write_char+0x344>
    17ec:	a8 e3       	ldi	r26, 0x38	; 56
    17ee:	b0 e0       	ldi	r27, 0x00	; 0
    17f0:	e8 e3       	ldi	r30, 0x38	; 56
    17f2:	f0 e0       	ldi	r31, 0x00	; 0
    17f4:	80 81       	ld	r24, Z
    17f6:	80 64       	ori	r24, 0x40	; 64
    17f8:	8c 93       	st	X, r24
    17fa:	07 c0       	rjmp	.+14     	; 0x180a <LCD_write_char+0x352>
    17fc:	a8 e3       	ldi	r26, 0x38	; 56
    17fe:	b0 e0       	ldi	r27, 0x00	; 0
    1800:	e8 e3       	ldi	r30, 0x38	; 56
    1802:	f0 e0       	ldi	r31, 0x00	; 0
    1804:	80 81       	ld	r24, Z
    1806:	8f 7b       	andi	r24, 0xBF	; 191
    1808:	8c 93       	st	X, r24
	D7(READBIT(data,3));
    180a:	89 ad       	ldd	r24, Y+57	; 0x39
    180c:	86 95       	lsr	r24
    180e:	86 95       	lsr	r24
    1810:	86 95       	lsr	r24
    1812:	88 2f       	mov	r24, r24
    1814:	90 e0       	ldi	r25, 0x00	; 0
    1816:	81 70       	andi	r24, 0x01	; 1
    1818:	90 70       	andi	r25, 0x00	; 0
    181a:	88 23       	and	r24, r24
    181c:	41 f0       	breq	.+16     	; 0x182e <LCD_write_char+0x376>
    181e:	a8 e3       	ldi	r26, 0x38	; 56
    1820:	b0 e0       	ldi	r27, 0x00	; 0
    1822:	e8 e3       	ldi	r30, 0x38	; 56
    1824:	f0 e0       	ldi	r31, 0x00	; 0
    1826:	80 81       	ld	r24, Z
    1828:	80 68       	ori	r24, 0x80	; 128
    182a:	8c 93       	st	X, r24
    182c:	07 c0       	rjmp	.+14     	; 0x183c <LCD_write_char+0x384>
    182e:	a8 e3       	ldi	r26, 0x38	; 56
    1830:	b0 e0       	ldi	r27, 0x00	; 0
    1832:	e8 e3       	ldi	r30, 0x38	; 56
    1834:	f0 e0       	ldi	r31, 0x00	; 0
    1836:	80 81       	ld	r24, Z
    1838:	8f 77       	andi	r24, 0x7F	; 127
    183a:	8c 93       	st	X, r24
	EN(1);
    183c:	ab e3       	ldi	r26, 0x3B	; 59
    183e:	b0 e0       	ldi	r27, 0x00	; 0
    1840:	eb e3       	ldi	r30, 0x3B	; 59
    1842:	f0 e0       	ldi	r31, 0x00	; 0
    1844:	80 81       	ld	r24, Z
    1846:	84 60       	ori	r24, 0x04	; 4
    1848:	8c 93       	st	X, r24
    184a:	80 e0       	ldi	r24, 0x00	; 0
    184c:	90 e0       	ldi	r25, 0x00	; 0
    184e:	a0 e8       	ldi	r26, 0x80	; 128
    1850:	bf e3       	ldi	r27, 0x3F	; 63
    1852:	89 8f       	std	Y+25, r24	; 0x19
    1854:	9a 8f       	std	Y+26, r25	; 0x1a
    1856:	ab 8f       	std	Y+27, r26	; 0x1b
    1858:	bc 8f       	std	Y+28, r27	; 0x1c
 */
void
_delay_ms(double __ms)
{
	uint16_t __ticks;
	double __tmp = ((F_CPU) / 4e3) * __ms;
    185a:	69 8d       	ldd	r22, Y+25	; 0x19
    185c:	7a 8d       	ldd	r23, Y+26	; 0x1a
    185e:	8b 8d       	ldd	r24, Y+27	; 0x1b
    1860:	9c 8d       	ldd	r25, Y+28	; 0x1c
    1862:	20 e0       	ldi	r18, 0x00	; 0
    1864:	30 e0       	ldi	r19, 0x00	; 0
    1866:	4a ef       	ldi	r20, 0xFA	; 250
    1868:	54 e4       	ldi	r21, 0x44	; 68
    186a:	0e 94 17 02 	call	0x42e	; 0x42e <__mulsf3>
    186e:	dc 01       	movw	r26, r24
    1870:	cb 01       	movw	r24, r22
    1872:	8d 8b       	std	Y+21, r24	; 0x15
    1874:	9e 8b       	std	Y+22, r25	; 0x16
    1876:	af 8b       	std	Y+23, r26	; 0x17
    1878:	b8 8f       	std	Y+24, r27	; 0x18
	if (__tmp < 1.0)
    187a:	6d 89       	ldd	r22, Y+21	; 0x15
    187c:	7e 89       	ldd	r23, Y+22	; 0x16
    187e:	8f 89       	ldd	r24, Y+23	; 0x17
    1880:	98 8d       	ldd	r25, Y+24	; 0x18
    1882:	20 e0       	ldi	r18, 0x00	; 0
    1884:	30 e0       	ldi	r19, 0x00	; 0
    1886:	40 e8       	ldi	r20, 0x80	; 128
    1888:	5f e3       	ldi	r21, 0x3F	; 63
    188a:	0e 94 71 03 	call	0x6e2	; 0x6e2 <__ltsf2>
    188e:	88 23       	and	r24, r24
    1890:	2c f4       	brge	.+10     	; 0x189c <LCD_write_char+0x3e4>
		__ticks = 1;
    1892:	81 e0       	ldi	r24, 0x01	; 1
    1894:	90 e0       	ldi	r25, 0x00	; 0
    1896:	9c 8b       	std	Y+20, r25	; 0x14
    1898:	8b 8b       	std	Y+19, r24	; 0x13
    189a:	3f c0       	rjmp	.+126    	; 0x191a <LCD_write_char+0x462>
	else if (__tmp > 65535)
    189c:	6d 89       	ldd	r22, Y+21	; 0x15
    189e:	7e 89       	ldd	r23, Y+22	; 0x16
    18a0:	8f 89       	ldd	r24, Y+23	; 0x17
    18a2:	98 8d       	ldd	r25, Y+24	; 0x18
    18a4:	20 e0       	ldi	r18, 0x00	; 0
    18a6:	3f ef       	ldi	r19, 0xFF	; 255
    18a8:	4f e7       	ldi	r20, 0x7F	; 127
    18aa:	57 e4       	ldi	r21, 0x47	; 71
    18ac:	0e 94 11 03 	call	0x622	; 0x622 <__gtsf2>
    18b0:	18 16       	cp	r1, r24
    18b2:	4c f5       	brge	.+82     	; 0x1906 <LCD_write_char+0x44e>
	{
		//	__ticks = requested delay in 1/10 ms
		__ticks = (uint16_t) (__ms * 10.0);
    18b4:	69 8d       	ldd	r22, Y+25	; 0x19
    18b6:	7a 8d       	ldd	r23, Y+26	; 0x1a
    18b8:	8b 8d       	ldd	r24, Y+27	; 0x1b
    18ba:	9c 8d       	ldd	r25, Y+28	; 0x1c
    18bc:	20 e0       	ldi	r18, 0x00	; 0
    18be:	30 e0       	ldi	r19, 0x00	; 0
    18c0:	40 e2       	ldi	r20, 0x20	; 32
    18c2:	51 e4       	ldi	r21, 0x41	; 65
    18c4:	0e 94 17 02 	call	0x42e	; 0x42e <__mulsf3>
    18c8:	dc 01       	movw	r26, r24
    18ca:	cb 01       	movw	r24, r22
    18cc:	bc 01       	movw	r22, r24
    18ce:	cd 01       	movw	r24, r26
    18d0:	0e 94 41 00 	call	0x82	; 0x82 <__fixunssfsi>
    18d4:	dc 01       	movw	r26, r24
    18d6:	cb 01       	movw	r24, r22
    18d8:	9c 8b       	std	Y+20, r25	; 0x14
    18da:	8b 8b       	std	Y+19, r24	; 0x13
    18dc:	0f c0       	rjmp	.+30     	; 0x18fc <LCD_write_char+0x444>
    18de:	88 ec       	ldi	r24, 0xC8	; 200
    18e0:	90 e0       	ldi	r25, 0x00	; 0
    18e2:	9a 8b       	std	Y+18, r25	; 0x12
    18e4:	89 8b       	std	Y+17, r24	; 0x11
    18e6:	89 89       	ldd	r24, Y+17	; 0x11
    18e8:	9a 89       	ldd	r25, Y+18	; 0x12
    18ea:	01 97       	sbiw	r24, 0x01	; 1
    18ec:	f1 f7       	brne	.-4      	; 0x18ea <LCD_write_char+0x432>
    18ee:	9a 8b       	std	Y+18, r25	; 0x12
    18f0:	89 8b       	std	Y+17, r24	; 0x11
		while(__ticks)
		{
			// wait 1/10 ms
			_delay_loop_2(((F_CPU) / 4e3) / 10);
			__ticks --;
    18f2:	8b 89       	ldd	r24, Y+19	; 0x13
    18f4:	9c 89       	ldd	r25, Y+20	; 0x14
    18f6:	01 97       	sbiw	r24, 0x01	; 1
    18f8:	9c 8b       	std	Y+20, r25	; 0x14
    18fa:	8b 8b       	std	Y+19, r24	; 0x13
		__ticks = 1;
	else if (__tmp > 65535)
	{
		//	__ticks = requested delay in 1/10 ms
		__ticks = (uint16_t) (__ms * 10.0);
		while(__ticks)
    18fc:	8b 89       	ldd	r24, Y+19	; 0x13
    18fe:	9c 89       	ldd	r25, Y+20	; 0x14
    1900:	00 97       	sbiw	r24, 0x00	; 0
    1902:	69 f7       	brne	.-38     	; 0x18de <LCD_write_char+0x426>
    1904:	14 c0       	rjmp	.+40     	; 0x192e <LCD_write_char+0x476>
			__ticks --;
		}
		return;
	}
	else
		__ticks = (uint16_t)__tmp;
    1906:	6d 89       	ldd	r22, Y+21	; 0x15
    1908:	7e 89       	ldd	r23, Y+22	; 0x16
    190a:	8f 89       	ldd	r24, Y+23	; 0x17
    190c:	98 8d       	ldd	r25, Y+24	; 0x18
    190e:	0e 94 41 00 	call	0x82	; 0x82 <__fixunssfsi>
    1912:	dc 01       	movw	r26, r24
    1914:	cb 01       	movw	r24, r22
    1916:	9c 8b       	std	Y+20, r25	; 0x14
    1918:	8b 8b       	std	Y+19, r24	; 0x13
    191a:	8b 89       	ldd	r24, Y+19	; 0x13
    191c:	9c 89       	ldd	r25, Y+20	; 0x14
    191e:	98 8b       	std	Y+16, r25	; 0x10
    1920:	8f 87       	std	Y+15, r24	; 0x0f
    1922:	8f 85       	ldd	r24, Y+15	; 0x0f
    1924:	98 89       	ldd	r25, Y+16	; 0x10
    1926:	01 97       	sbiw	r24, 0x01	; 1
    1928:	f1 f7       	brne	.-4      	; 0x1926 <LCD_write_char+0x46e>
    192a:	98 8b       	std	Y+16, r25	; 0x10
    192c:	8f 87       	std	Y+15, r24	; 0x0f
	_delay_ms(1);
	EN(0);
    192e:	ab e3       	ldi	r26, 0x3B	; 59
    1930:	b0 e0       	ldi	r27, 0x00	; 0
    1932:	eb e3       	ldi	r30, 0x3B	; 59
    1934:	f0 e0       	ldi	r31, 0x00	; 0
    1936:	80 81       	ld	r24, Z
    1938:	8b 7f       	andi	r24, 0xFB	; 251
    193a:	8c 93       	st	X, r24
    193c:	80 e0       	ldi	r24, 0x00	; 0
    193e:	90 e0       	ldi	r25, 0x00	; 0
    1940:	a0 e8       	ldi	r26, 0x80	; 128
    1942:	bf e3       	ldi	r27, 0x3F	; 63
    1944:	8b 87       	std	Y+11, r24	; 0x0b
    1946:	9c 87       	std	Y+12, r25	; 0x0c
    1948:	ad 87       	std	Y+13, r26	; 0x0d
    194a:	be 87       	std	Y+14, r27	; 0x0e
 */
void
_delay_ms(double __ms)
{
	uint16_t __ticks;
	double __tmp = ((F_CPU) / 4e3) * __ms;
    194c:	6b 85       	ldd	r22, Y+11	; 0x0b
    194e:	7c 85       	ldd	r23, Y+12	; 0x0c
    1950:	8d 85       	ldd	r24, Y+13	; 0x0d
    1952:	9e 85       	ldd	r25, Y+14	; 0x0e
    1954:	20 e0       	ldi	r18, 0x00	; 0
    1956:	30 e0       	ldi	r19, 0x00	; 0
    1958:	4a ef       	ldi	r20, 0xFA	; 250
    195a:	54 e4       	ldi	r21, 0x44	; 68
    195c:	0e 94 17 02 	call	0x42e	; 0x42e <__mulsf3>
    1960:	dc 01       	movw	r26, r24
    1962:	cb 01       	movw	r24, r22
    1964:	8f 83       	std	Y+7, r24	; 0x07
    1966:	98 87       	std	Y+8, r25	; 0x08
    1968:	a9 87       	std	Y+9, r26	; 0x09
    196a:	ba 87       	std	Y+10, r27	; 0x0a
	if (__tmp < 1.0)
    196c:	6f 81       	ldd	r22, Y+7	; 0x07
    196e:	78 85       	ldd	r23, Y+8	; 0x08
    1970:	89 85       	ldd	r24, Y+9	; 0x09
    1972:	9a 85       	ldd	r25, Y+10	; 0x0a
    1974:	20 e0       	ldi	r18, 0x00	; 0
    1976:	30 e0       	ldi	r19, 0x00	; 0
    1978:	40 e8       	ldi	r20, 0x80	; 128
    197a:	5f e3       	ldi	r21, 0x3F	; 63
    197c:	0e 94 71 03 	call	0x6e2	; 0x6e2 <__ltsf2>
    1980:	88 23       	and	r24, r24
    1982:	2c f4       	brge	.+10     	; 0x198e <LCD_write_char+0x4d6>
		__ticks = 1;
    1984:	81 e0       	ldi	r24, 0x01	; 1
    1986:	90 e0       	ldi	r25, 0x00	; 0
    1988:	9e 83       	std	Y+6, r25	; 0x06
    198a:	8d 83       	std	Y+5, r24	; 0x05
    198c:	3f c0       	rjmp	.+126    	; 0x1a0c <LCD_write_char+0x554>
	else if (__tmp > 65535)
    198e:	6f 81       	ldd	r22, Y+7	; 0x07
    1990:	78 85       	ldd	r23, Y+8	; 0x08
    1992:	89 85       	ldd	r24, Y+9	; 0x09
    1994:	9a 85       	ldd	r25, Y+10	; 0x0a
    1996:	20 e0       	ldi	r18, 0x00	; 0
    1998:	3f ef       	ldi	r19, 0xFF	; 255
    199a:	4f e7       	ldi	r20, 0x7F	; 127
    199c:	57 e4       	ldi	r21, 0x47	; 71
    199e:	0e 94 11 03 	call	0x622	; 0x622 <__gtsf2>
    19a2:	18 16       	cp	r1, r24
    19a4:	4c f5       	brge	.+82     	; 0x19f8 <LCD_write_char+0x540>
	{
		//	__ticks = requested delay in 1/10 ms
		__ticks = (uint16_t) (__ms * 10.0);
    19a6:	6b 85       	ldd	r22, Y+11	; 0x0b
    19a8:	7c 85       	ldd	r23, Y+12	; 0x0c
    19aa:	8d 85       	ldd	r24, Y+13	; 0x0d
    19ac:	9e 85       	ldd	r25, Y+14	; 0x0e
    19ae:	20 e0       	ldi	r18, 0x00	; 0
    19b0:	30 e0       	ldi	r19, 0x00	; 0
    19b2:	40 e2       	ldi	r20, 0x20	; 32
    19b4:	51 e4       	ldi	r21, 0x41	; 65
    19b6:	0e 94 17 02 	call	0x42e	; 0x42e <__mulsf3>
    19ba:	dc 01       	movw	r26, r24
    19bc:	cb 01       	movw	r24, r22
    19be:	bc 01       	movw	r22, r24
    19c0:	cd 01       	movw	r24, r26
    19c2:	0e 94 41 00 	call	0x82	; 0x82 <__fixunssfsi>
    19c6:	dc 01       	movw	r26, r24
    19c8:	cb 01       	movw	r24, r22
    19ca:	9e 83       	std	Y+6, r25	; 0x06
    19cc:	8d 83       	std	Y+5, r24	; 0x05
    19ce:	0f c0       	rjmp	.+30     	; 0x19ee <LCD_write_char+0x536>
    19d0:	88 ec       	ldi	r24, 0xC8	; 200
    19d2:	90 e0       	ldi	r25, 0x00	; 0
    19d4:	9c 83       	std	Y+4, r25	; 0x04
    19d6:	8b 83       	std	Y+3, r24	; 0x03
    19d8:	8b 81       	ldd	r24, Y+3	; 0x03
    19da:	9c 81       	ldd	r25, Y+4	; 0x04
    19dc:	01 97       	sbiw	r24, 0x01	; 1
    19de:	f1 f7       	brne	.-4      	; 0x19dc <LCD_write_char+0x524>
    19e0:	9c 83       	std	Y+4, r25	; 0x04
    19e2:	8b 83       	std	Y+3, r24	; 0x03
		while(__ticks)
		{
			// wait 1/10 ms
			_delay_loop_2(((F_CPU) / 4e3) / 10);
			__ticks --;
    19e4:	8d 81       	ldd	r24, Y+5	; 0x05
    19e6:	9e 81       	ldd	r25, Y+6	; 0x06
    19e8:	01 97       	sbiw	r24, 0x01	; 1
    19ea:	9e 83       	std	Y+6, r25	; 0x06
    19ec:	8d 83       	std	Y+5, r24	; 0x05
		__ticks = 1;
	else if (__tmp > 65535)
	{
		//	__ticks = requested delay in 1/10 ms
		__ticks = (uint16_t) (__ms * 10.0);
		while(__ticks)
    19ee:	8d 81       	ldd	r24, Y+5	; 0x05
    19f0:	9e 81       	ldd	r25, Y+6	; 0x06
    19f2:	00 97       	sbiw	r24, 0x00	; 0
    19f4:	69 f7       	brne	.-38     	; 0x19d0 <LCD_write_char+0x518>
    19f6:	14 c0       	rjmp	.+40     	; 0x1a20 <LCD_write_char+0x568>
			__ticks --;
		}
		return;
	}
	else
		__ticks = (uint16_t)__tmp;
    19f8:	6f 81       	ldd	r22, Y+7	; 0x07
    19fa:	78 85       	ldd	r23, Y+8	; 0x08
    19fc:	89 85       	ldd	r24, Y+9	; 0x09
    19fe:	9a 85       	ldd	r25, Y+10	; 0x0a
    1a00:	0e 94 41 00 	call	0x82	; 0x82 <__fixunssfsi>
    1a04:	dc 01       	movw	r26, r24
    1a06:	cb 01       	movw	r24, r22
    1a08:	9e 83       	std	Y+6, r25	; 0x06
    1a0a:	8d 83       	std	Y+5, r24	; 0x05
    1a0c:	8d 81       	ldd	r24, Y+5	; 0x05
    1a0e:	9e 81       	ldd	r25, Y+6	; 0x06
    1a10:	9a 83       	std	Y+2, r25	; 0x02
    1a12:	89 83       	std	Y+1, r24	; 0x01
    1a14:	89 81       	ldd	r24, Y+1	; 0x01
    1a16:	9a 81       	ldd	r25, Y+2	; 0x02
    1a18:	01 97       	sbiw	r24, 0x01	; 1
    1a1a:	f1 f7       	brne	.-4      	; 0x1a18 <LCD_write_char+0x560>
    1a1c:	9a 83       	std	Y+2, r25	; 0x02
    1a1e:	89 83       	std	Y+1, r24	; 0x01
	_delay_ms(1);
	
}
    1a20:	e9 96       	adiw	r28, 0x39	; 57
    1a22:	0f b6       	in	r0, 0x3f	; 63
    1a24:	f8 94       	cli
    1a26:	de bf       	out	0x3e, r29	; 62
    1a28:	0f be       	out	0x3f, r0	; 63
    1a2a:	cd bf       	out	0x3d, r28	; 61
    1a2c:	cf 91       	pop	r28
    1a2e:	df 91       	pop	r29
    1a30:	08 95       	ret

00001a32 <LCD_write_num>:
* Purpose      : display a specific number on LCD
* Parameters   : uint16_t: 5 digit number or less
* Return value : void
*************************************************************************/

void LCD_write_num(uint16_t num){
    1a32:	df 93       	push	r29
    1a34:	cf 93       	push	r28
    1a36:	cd b7       	in	r28, 0x3d	; 61
    1a38:	de b7       	in	r29, 0x3e	; 62
    1a3a:	28 97       	sbiw	r28, 0x08	; 8
    1a3c:	0f b6       	in	r0, 0x3f	; 63
    1a3e:	f8 94       	cli
    1a40:	de bf       	out	0x3e, r29	; 62
    1a42:	0f be       	out	0x3f, r0	; 63
    1a44:	cd bf       	out	0x3d, r28	; 61
    1a46:	98 87       	std	Y+8, r25	; 0x08
    1a48:	8f 83       	std	Y+7, r24	; 0x07
	if (num ==0) {LCD_write_char('0');return;}	 
    1a4a:	8f 81       	ldd	r24, Y+7	; 0x07
    1a4c:	98 85       	ldd	r25, Y+8	; 0x08
    1a4e:	00 97       	sbiw	r24, 0x00	; 0
    1a50:	21 f4       	brne	.+8      	; 0x1a5a <LCD_write_num+0x28>
    1a52:	80 e3       	ldi	r24, 0x30	; 48
    1a54:	0e 94 5c 0a 	call	0x14b8	; 0x14b8 <LCD_write_char>
    1a58:	3d c0       	rjmp	.+122    	; 0x1ad4 <LCD_write_num+0xa2>
	uint8_t n[5]; int8_t i=0;
    1a5a:	19 82       	std	Y+1, r1	; 0x01
    1a5c:	20 c0       	rjmp	.+64     	; 0x1a9e <LCD_write_num+0x6c>
	//save every digit of num in our array separately  
	for(;num!=0;i++)
	{
		n[i]=(num%10) +'0';
    1a5e:	89 81       	ldd	r24, Y+1	; 0x01
    1a60:	e8 2f       	mov	r30, r24
    1a62:	ff 27       	eor	r31, r31
    1a64:	e7 fd       	sbrc	r30, 7
    1a66:	f0 95       	com	r31
    1a68:	8f 81       	ldd	r24, Y+7	; 0x07
    1a6a:	98 85       	ldd	r25, Y+8	; 0x08
    1a6c:	2a e0       	ldi	r18, 0x0A	; 10
    1a6e:	30 e0       	ldi	r19, 0x00	; 0
    1a70:	b9 01       	movw	r22, r18
    1a72:	0e 94 ae 0d 	call	0x1b5c	; 0x1b5c <__udivmodhi4>
    1a76:	28 2f       	mov	r18, r24
    1a78:	20 5d       	subi	r18, 0xD0	; 208
    1a7a:	ce 01       	movw	r24, r28
    1a7c:	02 96       	adiw	r24, 0x02	; 2
    1a7e:	e8 0f       	add	r30, r24
    1a80:	f9 1f       	adc	r31, r25
    1a82:	20 83       	st	Z, r18
		num/=10;
    1a84:	8f 81       	ldd	r24, Y+7	; 0x07
    1a86:	98 85       	ldd	r25, Y+8	; 0x08
    1a88:	2a e0       	ldi	r18, 0x0A	; 10
    1a8a:	30 e0       	ldi	r19, 0x00	; 0
    1a8c:	b9 01       	movw	r22, r18
    1a8e:	0e 94 ae 0d 	call	0x1b5c	; 0x1b5c <__udivmodhi4>
    1a92:	cb 01       	movw	r24, r22
    1a94:	98 87       	std	Y+8, r25	; 0x08
    1a96:	8f 83       	std	Y+7, r24	; 0x07

void LCD_write_num(uint16_t num){
	if (num ==0) {LCD_write_char('0');return;}	 
	uint8_t n[5]; int8_t i=0;
	//save every digit of num in our array separately  
	for(;num!=0;i++)
    1a98:	89 81       	ldd	r24, Y+1	; 0x01
    1a9a:	8f 5f       	subi	r24, 0xFF	; 255
    1a9c:	89 83       	std	Y+1, r24	; 0x01
    1a9e:	8f 81       	ldd	r24, Y+7	; 0x07
    1aa0:	98 85       	ldd	r25, Y+8	; 0x08
    1aa2:	00 97       	sbiw	r24, 0x00	; 0
    1aa4:	e1 f6       	brne	.-72     	; 0x1a5e <LCD_write_num+0x2c>
	{
		n[i]=(num%10) +'0';
		num/=10;
	}
	i--;
    1aa6:	89 81       	ldd	r24, Y+1	; 0x01
    1aa8:	81 50       	subi	r24, 0x01	; 1
    1aaa:	89 83       	std	Y+1, r24	; 0x01
    1aac:	10 c0       	rjmp	.+32     	; 0x1ace <LCD_write_num+0x9c>
	while(i!=-1){
		LCD_write_char(n[i]);
    1aae:	89 81       	ldd	r24, Y+1	; 0x01
    1ab0:	28 2f       	mov	r18, r24
    1ab2:	33 27       	eor	r19, r19
    1ab4:	27 fd       	sbrc	r18, 7
    1ab6:	30 95       	com	r19
    1ab8:	ce 01       	movw	r24, r28
    1aba:	02 96       	adiw	r24, 0x02	; 2
    1abc:	fc 01       	movw	r30, r24
    1abe:	e2 0f       	add	r30, r18
    1ac0:	f3 1f       	adc	r31, r19
    1ac2:	80 81       	ld	r24, Z
    1ac4:	0e 94 5c 0a 	call	0x14b8	; 0x14b8 <LCD_write_char>
		i--;
    1ac8:	89 81       	ldd	r24, Y+1	; 0x01
    1aca:	81 50       	subi	r24, 0x01	; 1
    1acc:	89 83       	std	Y+1, r24	; 0x01
	{
		n[i]=(num%10) +'0';
		num/=10;
	}
	i--;
	while(i!=-1){
    1ace:	89 81       	ldd	r24, Y+1	; 0x01
    1ad0:	8f 3f       	cpi	r24, 0xFF	; 255
    1ad2:	69 f7       	brne	.-38     	; 0x1aae <LCD_write_num+0x7c>
		LCD_write_char(n[i]);
		i--;
	}
}
    1ad4:	28 96       	adiw	r28, 0x08	; 8
    1ad6:	0f b6       	in	r0, 0x3f	; 63
    1ad8:	f8 94       	cli
    1ada:	de bf       	out	0x3e, r29	; 62
    1adc:	0f be       	out	0x3f, r0	; 63
    1ade:	cd bf       	out	0x3d, r28	; 61
    1ae0:	cf 91       	pop	r28
    1ae2:	df 91       	pop	r29
    1ae4:	08 95       	ret

00001ae6 <LCD_write_string>:
* Purpose      : display a specific string on LCD
* Parameters   : uint8_t*: array of string which must end with null
* Return value : void
*****************************************************************************/

void LCD_write_string(uint8_t *str){
    1ae6:	df 93       	push	r29
    1ae8:	cf 93       	push	r28
    1aea:	00 d0       	rcall	.+0      	; 0x1aec <LCD_write_string+0x6>
    1aec:	0f 92       	push	r0
    1aee:	cd b7       	in	r28, 0x3d	; 61
    1af0:	de b7       	in	r29, 0x3e	; 62
    1af2:	9b 83       	std	Y+3, r25	; 0x03
    1af4:	8a 83       	std	Y+2, r24	; 0x02
	uint8_t i =0;
    1af6:	19 82       	std	Y+1, r1	; 0x01
    1af8:	0e c0       	rjmp	.+28     	; 0x1b16 <LCD_write_string+0x30>
	for(;str[i]!='\0';i++){
		LCD_write_char(str[i]);
    1afa:	89 81       	ldd	r24, Y+1	; 0x01
    1afc:	28 2f       	mov	r18, r24
    1afe:	30 e0       	ldi	r19, 0x00	; 0
    1b00:	8a 81       	ldd	r24, Y+2	; 0x02
    1b02:	9b 81       	ldd	r25, Y+3	; 0x03
    1b04:	fc 01       	movw	r30, r24
    1b06:	e2 0f       	add	r30, r18
    1b08:	f3 1f       	adc	r31, r19
    1b0a:	80 81       	ld	r24, Z
    1b0c:	0e 94 5c 0a 	call	0x14b8	; 0x14b8 <LCD_write_char>
* Return value : void
*****************************************************************************/

void LCD_write_string(uint8_t *str){
	uint8_t i =0;
	for(;str[i]!='\0';i++){
    1b10:	89 81       	ldd	r24, Y+1	; 0x01
    1b12:	8f 5f       	subi	r24, 0xFF	; 255
    1b14:	89 83       	std	Y+1, r24	; 0x01
    1b16:	89 81       	ldd	r24, Y+1	; 0x01
    1b18:	28 2f       	mov	r18, r24
    1b1a:	30 e0       	ldi	r19, 0x00	; 0
    1b1c:	8a 81       	ldd	r24, Y+2	; 0x02
    1b1e:	9b 81       	ldd	r25, Y+3	; 0x03
    1b20:	fc 01       	movw	r30, r24
    1b22:	e2 0f       	add	r30, r18
    1b24:	f3 1f       	adc	r31, r19
    1b26:	80 81       	ld	r24, Z
    1b28:	88 23       	and	r24, r24
    1b2a:	39 f7       	brne	.-50     	; 0x1afa <LCD_write_string+0x14>
		LCD_write_char(str[i]);
	}
}
    1b2c:	0f 90       	pop	r0
    1b2e:	0f 90       	pop	r0
    1b30:	0f 90       	pop	r0
    1b32:	cf 91       	pop	r28
    1b34:	df 91       	pop	r29
    1b36:	08 95       	ret

00001b38 <main>:
#include "header.h"
#include "LCD.h"


int main(void)
{	
    1b38:	df 93       	push	r29
    1b3a:	cf 93       	push	r28
    1b3c:	cd b7       	in	r28, 0x3d	; 61
    1b3e:	de b7       	in	r29, 0x3e	; 62
    LCD_init();
    1b40:	0e 94 9b 05 	call	0xb36	; 0xb36 <LCD_init>
    CLRBIT(PORTA,1);
    1b44:	ab e3       	ldi	r26, 0x3B	; 59
    1b46:	b0 e0       	ldi	r27, 0x00	; 0
    1b48:	eb e3       	ldi	r30, 0x3B	; 59
    1b4a:	f0 e0       	ldi	r31, 0x00	; 0
    1b4c:	80 81       	ld	r24, Z
    1b4e:	8d 7f       	andi	r24, 0xFD	; 253
    1b50:	8c 93       	st	X, r24
    LCD_write_string("hello");
    1b52:	80 e6       	ldi	r24, 0x60	; 96
    1b54:	90 e0       	ldi	r25, 0x00	; 0
    1b56:	0e 94 73 0d 	call	0x1ae6	; 0x1ae6 <LCD_write_string>
    1b5a:	ff cf       	rjmp	.-2      	; 0x1b5a <main+0x22>

00001b5c <__udivmodhi4>:
    1b5c:	aa 1b       	sub	r26, r26
    1b5e:	bb 1b       	sub	r27, r27
    1b60:	51 e1       	ldi	r21, 0x11	; 17
    1b62:	07 c0       	rjmp	.+14     	; 0x1b72 <__udivmodhi4_ep>

00001b64 <__udivmodhi4_loop>:
    1b64:	aa 1f       	adc	r26, r26
    1b66:	bb 1f       	adc	r27, r27
    1b68:	a6 17       	cp	r26, r22
    1b6a:	b7 07       	cpc	r27, r23
    1b6c:	10 f0       	brcs	.+4      	; 0x1b72 <__udivmodhi4_ep>
    1b6e:	a6 1b       	sub	r26, r22
    1b70:	b7 0b       	sbc	r27, r23

00001b72 <__udivmodhi4_ep>:
    1b72:	88 1f       	adc	r24, r24
    1b74:	99 1f       	adc	r25, r25
    1b76:	5a 95       	dec	r21
    1b78:	a9 f7       	brne	.-22     	; 0x1b64 <__udivmodhi4_loop>
    1b7a:	80 95       	com	r24
    1b7c:	90 95       	com	r25
    1b7e:	bc 01       	movw	r22, r24
    1b80:	cd 01       	movw	r24, r26
    1b82:	08 95       	ret

00001b84 <__prologue_saves__>:
    1b84:	2f 92       	push	r2
    1b86:	3f 92       	push	r3
    1b88:	4f 92       	push	r4
    1b8a:	5f 92       	push	r5
    1b8c:	6f 92       	push	r6
    1b8e:	7f 92       	push	r7
    1b90:	8f 92       	push	r8
    1b92:	9f 92       	push	r9
    1b94:	af 92       	push	r10
    1b96:	bf 92       	push	r11
    1b98:	cf 92       	push	r12
    1b9a:	df 92       	push	r13
    1b9c:	ef 92       	push	r14
    1b9e:	ff 92       	push	r15
    1ba0:	0f 93       	push	r16
    1ba2:	1f 93       	push	r17
    1ba4:	cf 93       	push	r28
    1ba6:	df 93       	push	r29
    1ba8:	cd b7       	in	r28, 0x3d	; 61
    1baa:	de b7       	in	r29, 0x3e	; 62
    1bac:	ca 1b       	sub	r28, r26
    1bae:	db 0b       	sbc	r29, r27
    1bb0:	0f b6       	in	r0, 0x3f	; 63
    1bb2:	f8 94       	cli
    1bb4:	de bf       	out	0x3e, r29	; 62
    1bb6:	0f be       	out	0x3f, r0	; 63
    1bb8:	cd bf       	out	0x3d, r28	; 61
    1bba:	09 94       	ijmp

00001bbc <__epilogue_restores__>:
    1bbc:	2a 88       	ldd	r2, Y+18	; 0x12
    1bbe:	39 88       	ldd	r3, Y+17	; 0x11
    1bc0:	48 88       	ldd	r4, Y+16	; 0x10
    1bc2:	5f 84       	ldd	r5, Y+15	; 0x0f
    1bc4:	6e 84       	ldd	r6, Y+14	; 0x0e
    1bc6:	7d 84       	ldd	r7, Y+13	; 0x0d
    1bc8:	8c 84       	ldd	r8, Y+12	; 0x0c
    1bca:	9b 84       	ldd	r9, Y+11	; 0x0b
    1bcc:	aa 84       	ldd	r10, Y+10	; 0x0a
    1bce:	b9 84       	ldd	r11, Y+9	; 0x09
    1bd0:	c8 84       	ldd	r12, Y+8	; 0x08
    1bd2:	df 80       	ldd	r13, Y+7	; 0x07
    1bd4:	ee 80       	ldd	r14, Y+6	; 0x06
    1bd6:	fd 80       	ldd	r15, Y+5	; 0x05
    1bd8:	0c 81       	ldd	r16, Y+4	; 0x04
    1bda:	1b 81       	ldd	r17, Y+3	; 0x03
    1bdc:	aa 81       	ldd	r26, Y+2	; 0x02
    1bde:	b9 81       	ldd	r27, Y+1	; 0x01
    1be0:	ce 0f       	add	r28, r30
    1be2:	d1 1d       	adc	r29, r1
    1be4:	0f b6       	in	r0, 0x3f	; 63
    1be6:	f8 94       	cli
    1be8:	de bf       	out	0x3e, r29	; 62
    1bea:	0f be       	out	0x3f, r0	; 63
    1bec:	cd bf       	out	0x3d, r28	; 61
    1bee:	ed 01       	movw	r28, r26
    1bf0:	08 95       	ret

00001bf2 <_exit>:
    1bf2:	f8 94       	cli

00001bf4 <__stop_program>:
    1bf4:	ff cf       	rjmp	.-2      	; 0x1bf4 <__stop_program>
